TMS320C2000 Assembler PC v22.6.0 Mon Sep  2 11:55:45 2024

Copyright (c) 1996-2018 Texas Instruments Incorporated
clllc_hal.asm                                                        PAGE    1

       1              ;***************************************************************
       2              ;* TMS320C2000 G3 C/C++ Codegen                               PC v22.6.0.LTS *
       3              ;* Date/Time created: Mon Sep  2 11:55:45 2024                 *
       4              ;***************************************************************
       5                      .compiler_opts --abi=eabi --cla_support=cla2 --diag_wrap=off --float_support=fpu32 --hll_source=on --
       6                      .asg    XAR2, FP
       7              
       8              $C$DW$CU        .dwtag  DW_TAG_compile_unit
       9                      .dwattr $C$DW$CU, DW_AT_name("../clllc_hal.c")
      10                      .dwattr $C$DW$CU, DW_AT_producer("TI TMS320C2000 G3 C/C++ Codegen PC v22.6.0.LTS Copyright (c) 1996-2
      11                      .dwattr $C$DW$CU, DW_AT_TI_version(0x01)
      12                      .dwattr $C$DW$CU, DW_AT_comp_dir("C:\Users\ZXC\Documents\mcu project\ti-project\clllc_nonpowerSUITE_F
      13              
      14              $C$DW$1 .dwtag  DW_TAG_subprogram
      15                      .dwattr $C$DW$1, DW_AT_name("Device_init")
      16                      .dwattr $C$DW$1, DW_AT_linkage_name("Device_init")
      17                      .dwattr $C$DW$1, DW_AT_declaration
      18                      .dwattr $C$DW$1, DW_AT_external
      19                      .dwattr $C$DW$1, DW_AT_decl_file("C:/Users/ZXC/Documents/mcu project/ti-project/clllc_nonpowerSUITE_F
      20                      .dwattr $C$DW$1, DW_AT_decl_line(0x87)
      21                      .dwattr $C$DW$1, DW_AT_decl_column(0x0d)
      22                      .dwendtag $C$DW$1
      23              
      24              
      25              $C$DW$2 .dwtag  DW_TAG_subprogram
      26                      .dwattr $C$DW$2, DW_AT_name("Device_initGPIO")
      27                      .dwattr $C$DW$2, DW_AT_linkage_name("Device_initGPIO")
      28                      .dwattr $C$DW$2, DW_AT_declaration
      29                      .dwattr $C$DW$2, DW_AT_external
      30                      .dwattr $C$DW$2, DW_AT_decl_file("C:/Users/ZXC/Documents/mcu project/ti-project/clllc_nonpowerSUITE_F
      31                      .dwattr $C$DW$2, DW_AT_decl_line(0x89)
      32                      .dwattr $C$DW$2, DW_AT_decl_column(0x0d)
      33                      .dwendtag $C$DW$2
      34              
      35              
      36              $C$DW$3 .dwtag  DW_TAG_subprogram
      37                      .dwattr $C$DW$3, DW_AT_name("Interrupt_initModule")
      38                      .dwattr $C$DW$3, DW_AT_linkage_name("Interrupt_initModule")
      39                      .dwattr $C$DW$3, DW_AT_declaration
      40                      .dwattr $C$DW$3, DW_AT_external
      41                      .dwattr $C$DW$3, DW_AT_decl_file("C:\Users\ZXC\Documents\mcu project\ti-project\clllc_nonpowerSUITE_F
      42                      .dwattr $C$DW$3, DW_AT_decl_line(0x1a9)
      43                      .dwattr $C$DW$3, DW_AT_decl_column(0x01)
      44                      .dwendtag $C$DW$3
      45              
      46              
      47              $C$DW$4 .dwtag  DW_TAG_subprogram
      48                      .dwattr $C$DW$4, DW_AT_name("Interrupt_initVectorTable")
      49                      .dwattr $C$DW$4, DW_AT_linkage_name("Interrupt_initVectorTable")
      50                      .dwattr $C$DW$4, DW_AT_declaration
      51                      .dwattr $C$DW$4, DW_AT_external
      52                      .dwattr $C$DW$4, DW_AT_decl_file("C:\Users\ZXC\Documents\mcu project\ti-project\clllc_nonpowerSUITE_F
      53                      .dwattr $C$DW$4, DW_AT_decl_line(0x1b4)
      54                      .dwattr $C$DW$4, DW_AT_decl_column(0x01)
      55                      .dwendtag $C$DW$4
TMS320C2000 Assembler PC v22.6.0 Mon Sep  2 11:55:45 2024

Copyright (c) 1996-2018 Texas Instruments Incorporated
clllc_hal.asm                                                        PAGE    2

      56              
      57              
      58              $C$DW$5 .dwtag  DW_TAG_subprogram
      59                      .dwattr $C$DW$5, DW_AT_name("CPUTimer_setEmulationMode")
      60                      .dwattr $C$DW$5, DW_AT_linkage_name("CPUTimer_setEmulationMode")
      61                      .dwattr $C$DW$5, DW_AT_declaration
      62                      .dwattr $C$DW$5, DW_AT_external
      63                      .dwattr $C$DW$5, DW_AT_decl_file("C:/Users/ZXC/Documents/mcu project/ti-project/clllc_nonpowerSUITE_F
      64                      .dwattr $C$DW$5, DW_AT_decl_line(0x1e3)
      65                      .dwattr $C$DW$5, DW_AT_decl_column(0x0d)
      66              $C$DW$6 .dwtag  DW_TAG_formal_parameter
      67                      .dwattr $C$DW$6, DW_AT_type(*$C$DW$T$142)
      68              
      69              $C$DW$7 .dwtag  DW_TAG_formal_parameter
      70                      .dwattr $C$DW$7, DW_AT_type(*$C$DW$T$42)
      71              
      72                      .dwendtag $C$DW$5
      73              
      74              
      75              $C$DW$8 .dwtag  DW_TAG_subprogram
      76                      .dwattr $C$DW$8, DW_AT_name("ADC_setVREF")
      77                      .dwattr $C$DW$8, DW_AT_linkage_name("ADC_setVREF")
      78                      .dwattr $C$DW$8, DW_AT_declaration
      79                      .dwattr $C$DW$8, DW_AT_external
      80                      .dwattr $C$DW$8, DW_AT_decl_file("C:/Users/ZXC/Documents/mcu project/ti-project/clllc_nonpowerSUITE_F
      81                      .dwattr $C$DW$8, DW_AT_decl_line(0x7e9)
      82                      .dwattr $C$DW$8, DW_AT_decl_column(0x01)
      83              $C$DW$9 .dwtag  DW_TAG_formal_parameter
      84                      .dwattr $C$DW$9, DW_AT_type(*$C$DW$T$142)
      85              
      86              $C$DW$10        .dwtag  DW_TAG_formal_parameter
      87                      .dwattr $C$DW$10, DW_AT_type(*$C$DW$T$28)
      88              
      89              $C$DW$11        .dwtag  DW_TAG_formal_parameter
      90                      .dwattr $C$DW$11, DW_AT_type(*$C$DW$T$30)
      91              
      92                      .dwendtag $C$DW$8
      93              
      94              
      95              $C$DW$12        .dwtag  DW_TAG_subprogram
      96                      .dwattr $C$DW$12, DW_AT_name("SysCtl_delay")
      97                      .dwattr $C$DW$12, DW_AT_linkage_name("SysCtl_delay")
      98                      .dwattr $C$DW$12, DW_AT_declaration
      99                      .dwattr $C$DW$12, DW_AT_external
     100                      .dwattr $C$DW$12, DW_AT_decl_file("C:\Users\ZXC\Documents\mcu project\ti-project\clllc_nonpowerSUITE_
     101                      .dwattr $C$DW$12, DW_AT_decl_line(0xaf6)
     102                      .dwattr $C$DW$12, DW_AT_decl_column(0x01)
     103              $C$DW$13        .dwtag  DW_TAG_formal_parameter
     104                      .dwattr $C$DW$13, DW_AT_type(*$C$DW$T$142)
     105              
     106                      .dwendtag $C$DW$12
     107              
     108              
     109              $C$DW$14        .dwtag  DW_TAG_subprogram
     110                      .dwattr $C$DW$14, DW_AT_name("XBAR_setEPWMMuxConfig")
TMS320C2000 Assembler PC v22.6.0 Mon Sep  2 11:55:45 2024

Copyright (c) 1996-2018 Texas Instruments Incorporated
clllc_hal.asm                                                        PAGE    3

     111                      .dwattr $C$DW$14, DW_AT_linkage_name("XBAR_setEPWMMuxConfig")
     112                      .dwattr $C$DW$14, DW_AT_declaration
     113                      .dwattr $C$DW$14, DW_AT_external
     114                      .dwattr $C$DW$14, DW_AT_decl_file("C:\Users\ZXC\Documents\mcu project\ti-project\clllc_nonpowerSUITE_
     115                      .dwattr $C$DW$14, DW_AT_decl_line(0x4be)
     116                      .dwattr $C$DW$14, DW_AT_decl_column(0x01)
     117              $C$DW$15        .dwtag  DW_TAG_formal_parameter
     118                      .dwattr $C$DW$15, DW_AT_type(*$C$DW$T$118)
     119              
     120              $C$DW$16        .dwtag  DW_TAG_formal_parameter
     121                      .dwattr $C$DW$16, DW_AT_type(*$C$DW$T$122)
     122              
     123                      .dwendtag $C$DW$14
     124              
     125              
     126              $C$DW$17        .dwtag  DW_TAG_subprogram
     127                      .dwattr $C$DW$17, DW_AT_name("XBAR_clearInputFlag")
     128                      .dwattr $C$DW$17, DW_AT_linkage_name("XBAR_clearInputFlag")
     129                      .dwattr $C$DW$17, DW_AT_declaration
     130                      .dwattr $C$DW$17, DW_AT_external
     131                      .dwattr $C$DW$17, DW_AT_decl_file("C:\Users\ZXC\Documents\mcu project\ti-project\clllc_nonpowerSUITE_
     132                      .dwattr $C$DW$17, DW_AT_decl_line(0x4db)
     133                      .dwattr $C$DW$17, DW_AT_decl_column(0x01)
     134              $C$DW$18        .dwtag  DW_TAG_formal_parameter
     135                      .dwattr $C$DW$18, DW_AT_type(*$C$DW$T$124)
     136              
     137                      .dwendtag $C$DW$17
     138              
     139              
     140              $C$DW$19        .dwtag  DW_TAG_subprogram
     141                      .dwattr $C$DW$19, DW_AT_name("CMPSS_configLatchOnPWMSYNC")
     142                      .dwattr $C$DW$19, DW_AT_linkage_name("CMPSS_configLatchOnPWMSYNC")
     143                      .dwattr $C$DW$19, DW_AT_declaration
     144                      .dwattr $C$DW$19, DW_AT_external
     145                      .dwattr $C$DW$19, DW_AT_decl_file("C:/Users/ZXC/Documents/mcu project/ti-project/clllc_nonpowerSUITE_
     146                      .dwattr $C$DW$19, DW_AT_decl_line(0x549)
     147                      .dwattr $C$DW$19, DW_AT_decl_column(0x01)
     148              $C$DW$20        .dwtag  DW_TAG_formal_parameter
     149                      .dwattr $C$DW$20, DW_AT_type(*$C$DW$T$142)
     150              
     151              $C$DW$21        .dwtag  DW_TAG_formal_parameter
     152                      .dwattr $C$DW$21, DW_AT_type(*$C$DW$T$169)
     153              
     154              $C$DW$22        .dwtag  DW_TAG_formal_parameter
     155                      .dwattr $C$DW$22, DW_AT_type(*$C$DW$T$169)
     156              
     157                      .dwendtag $C$DW$19
     158              
     159              
     160              $C$DW$23        .dwtag  DW_TAG_subprogram
     161                      .dwattr $C$DW$23, DW_AT_name("CMPSS_configFilterHigh")
     162                      .dwattr $C$DW$23, DW_AT_linkage_name("CMPSS_configFilterHigh")
     163                      .dwattr $C$DW$23, DW_AT_declaration
     164                      .dwattr $C$DW$23, DW_AT_external
     165                      .dwattr $C$DW$23, DW_AT_decl_file("C:/Users/ZXC/Documents/mcu project/ti-project/clllc_nonpowerSUITE_
TMS320C2000 Assembler PC v22.6.0 Mon Sep  2 11:55:45 2024

Copyright (c) 1996-2018 Texas Instruments Incorporated
clllc_hal.asm                                                        PAGE    4

     166                      .dwattr $C$DW$23, DW_AT_decl_line(0x503)
     167                      .dwattr $C$DW$23, DW_AT_decl_column(0x01)
     168              $C$DW$24        .dwtag  DW_TAG_formal_parameter
     169                      .dwattr $C$DW$24, DW_AT_type(*$C$DW$T$142)
     170              
     171              $C$DW$25        .dwtag  DW_TAG_formal_parameter
     172                      .dwattr $C$DW$25, DW_AT_type(*$C$DW$T$163)
     173              
     174              $C$DW$26        .dwtag  DW_TAG_formal_parameter
     175                      .dwattr $C$DW$26, DW_AT_type(*$C$DW$T$163)
     176              
     177              $C$DW$27        .dwtag  DW_TAG_formal_parameter
     178                      .dwattr $C$DW$27, DW_AT_type(*$C$DW$T$163)
     179              
     180                      .dwendtag $C$DW$23
     181              
     182              
     183              $C$DW$28        .dwtag  DW_TAG_subprogram
     184                      .dwattr $C$DW$28, DW_AT_name("CMPSS_configFilterLow")
     185                      .dwattr $C$DW$28, DW_AT_linkage_name("CMPSS_configFilterLow")
     186                      .dwattr $C$DW$28, DW_AT_declaration
     187                      .dwattr $C$DW$28, DW_AT_external
     188                      .dwattr $C$DW$28, DW_AT_decl_file("C:/Users/ZXC/Documents/mcu project/ti-project/clllc_nonpowerSUITE_
     189                      .dwattr $C$DW$28, DW_AT_decl_line(0x533)
     190                      .dwattr $C$DW$28, DW_AT_decl_column(0x01)
     191              $C$DW$29        .dwtag  DW_TAG_formal_parameter
     192                      .dwattr $C$DW$29, DW_AT_type(*$C$DW$T$142)
     193              
     194              $C$DW$30        .dwtag  DW_TAG_formal_parameter
     195                      .dwattr $C$DW$30, DW_AT_type(*$C$DW$T$163)
     196              
     197              $C$DW$31        .dwtag  DW_TAG_formal_parameter
     198                      .dwattr $C$DW$31, DW_AT_type(*$C$DW$T$163)
     199              
     200              $C$DW$32        .dwtag  DW_TAG_formal_parameter
     201                      .dwattr $C$DW$32, DW_AT_type(*$C$DW$T$163)
     202              
     203                      .dwendtag $C$DW$28
     204              
     205              
     206              $C$DW$33        .dwtag  DW_TAG_subprogram
     207                      .dwattr $C$DW$33, DW_AT_name("XBAR_setOutputMuxConfig")
     208                      .dwattr $C$DW$33, DW_AT_linkage_name("XBAR_setOutputMuxConfig")
     209                      .dwattr $C$DW$33, DW_AT_declaration
     210                      .dwattr $C$DW$33, DW_AT_external
     211                      .dwattr $C$DW$33, DW_AT_decl_file("C:\Users\ZXC\Documents\mcu project\ti-project\clllc_nonpowerSUITE_
     212                      .dwattr $C$DW$33, DW_AT_decl_line(0x49d)
     213                      .dwattr $C$DW$33, DW_AT_decl_column(0x01)
     214              $C$DW$34        .dwtag  DW_TAG_formal_parameter
     215                      .dwattr $C$DW$34, DW_AT_type(*$C$DW$T$116)
     216              
     217              $C$DW$35        .dwtag  DW_TAG_formal_parameter
     218                      .dwattr $C$DW$35, DW_AT_type(*$C$DW$T$120)
     219              
     220                      .dwendtag $C$DW$33
TMS320C2000 Assembler PC v22.6.0 Mon Sep  2 11:55:45 2024

Copyright (c) 1996-2018 Texas Instruments Incorporated
clllc_hal.asm                                                        PAGE    5

     221              
     222              
     223              $C$DW$36        .dwtag  DW_TAG_subprogram
     224                      .dwattr $C$DW$36, DW_AT_name("GPIO_setDirectionMode")
     225                      .dwattr $C$DW$36, DW_AT_linkage_name("GPIO_setDirectionMode")
     226                      .dwattr $C$DW$36, DW_AT_declaration
     227                      .dwattr $C$DW$36, DW_AT_external
     228                      .dwattr $C$DW$36, DW_AT_decl_file("C:/Users/ZXC/Documents/mcu project/ti-project/clllc_nonpowerSUITE_
     229                      .dwattr $C$DW$36, DW_AT_decl_line(0x31f)
     230                      .dwattr $C$DW$36, DW_AT_decl_column(0x01)
     231              $C$DW$37        .dwtag  DW_TAG_formal_parameter
     232                      .dwattr $C$DW$37, DW_AT_type(*$C$DW$T$142)
     233              
     234              $C$DW$38        .dwtag  DW_TAG_formal_parameter
     235                      .dwattr $C$DW$38, DW_AT_type(*$C$DW$T$126)
     236              
     237                      .dwendtag $C$DW$36
     238              
     239              
     240              $C$DW$39        .dwtag  DW_TAG_subprogram
     241                      .dwattr $C$DW$39, DW_AT_name("GPIO_setQualificationMode")
     242                      .dwattr $C$DW$39, DW_AT_linkage_name("GPIO_setQualificationMode")
     243                      .dwattr $C$DW$39, DW_AT_declaration
     244                      .dwattr $C$DW$39, DW_AT_external
     245                      .dwattr $C$DW$39, DW_AT_decl_file("C:/Users/ZXC/Documents/mcu project/ti-project/clllc_nonpowerSUITE_
     246                      .dwattr $C$DW$39, DW_AT_decl_line(0x38f)
     247                      .dwattr $C$DW$39, DW_AT_decl_column(0x01)
     248              $C$DW$40        .dwtag  DW_TAG_formal_parameter
     249                      .dwattr $C$DW$40, DW_AT_type(*$C$DW$T$142)
     250              
     251              $C$DW$41        .dwtag  DW_TAG_formal_parameter
     252                      .dwattr $C$DW$41, DW_AT_type(*$C$DW$T$128)
     253              
     254                      .dwendtag $C$DW$39
     255              
     256              
     257              $C$DW$42        .dwtag  DW_TAG_subprogram
     258                      .dwattr $C$DW$42, DW_AT_name("GPIO_setPinConfig")
     259                      .dwattr $C$DW$42, DW_AT_linkage_name("GPIO_setPinConfig")
     260                      .dwattr $C$DW$42, DW_AT_declaration
     261                      .dwattr $C$DW$42, DW_AT_external
     262                      .dwattr $C$DW$42, DW_AT_decl_file("C:/Users/ZXC/Documents/mcu project/ti-project/clllc_nonpowerSUITE_
     263                      .dwattr $C$DW$42, DW_AT_decl_line(0x3fe)
     264                      .dwattr $C$DW$42, DW_AT_decl_column(0x01)
     265              $C$DW$43        .dwtag  DW_TAG_formal_parameter
     266                      .dwattr $C$DW$43, DW_AT_type(*$C$DW$T$142)
     267              
     268                      .dwendtag $C$DW$42
     269              
     270              
     271              $C$DW$44        .dwtag  DW_TAG_subprogram
     272                      .dwattr $C$DW$44, DW_AT_name("SCI_setConfig")
     273                      .dwattr $C$DW$44, DW_AT_linkage_name("SCI_setConfig")
     274                      .dwattr $C$DW$44, DW_AT_declaration
     275                      .dwattr $C$DW$44, DW_AT_external
TMS320C2000 Assembler PC v22.6.0 Mon Sep  2 11:55:45 2024

Copyright (c) 1996-2018 Texas Instruments Incorporated
clllc_hal.asm                                                        PAGE    6

     276                      .dwattr $C$DW$44, DW_AT_decl_file("C:/Users/ZXC/Documents/mcu project/ti-project/clllc_nonpowerSUITE_
     277                      .dwattr $C$DW$44, DW_AT_decl_line(0x5ba)
     278                      .dwattr $C$DW$44, DW_AT_decl_column(0x01)
     279              $C$DW$45        .dwtag  DW_TAG_formal_parameter
     280                      .dwattr $C$DW$45, DW_AT_type(*$C$DW$T$142)
     281              
     282              $C$DW$46        .dwtag  DW_TAG_formal_parameter
     283                      .dwattr $C$DW$46, DW_AT_type(*$C$DW$T$142)
     284              
     285              $C$DW$47        .dwtag  DW_TAG_formal_parameter
     286                      .dwattr $C$DW$47, DW_AT_type(*$C$DW$T$142)
     287              
     288              $C$DW$48        .dwtag  DW_TAG_formal_parameter
     289                      .dwattr $C$DW$48, DW_AT_type(*$C$DW$T$142)
     290              
     291                      .dwendtag $C$DW$44
     292              
     293              
     294              $C$DW$49        .dwtag  DW_TAG_subprogram
     295                      .dwattr $C$DW$49, DW_AT_name("SCI_clearInterruptStatus")
     296                      .dwattr $C$DW$49, DW_AT_linkage_name("SCI_clearInterruptStatus")
     297                      .dwattr $C$DW$49, DW_AT_declaration
     298                      .dwattr $C$DW$49, DW_AT_external
     299                      .dwattr $C$DW$49, DW_AT_decl_file("C:/Users/ZXC/Documents/mcu project/ti-project/clllc_nonpowerSUITE_
     300                      .dwattr $C$DW$49, DW_AT_decl_line(0x63a)
     301                      .dwattr $C$DW$49, DW_AT_decl_column(0x01)
     302              $C$DW$50        .dwtag  DW_TAG_formal_parameter
     303                      .dwattr $C$DW$50, DW_AT_type(*$C$DW$T$142)
     304              
     305              $C$DW$51        .dwtag  DW_TAG_formal_parameter
     306                      .dwattr $C$DW$51, DW_AT_type(*$C$DW$T$142)
     307              
     308                      .dwendtag $C$DW$49
     309              
     310              
     311              $C$DW$52        .dwtag  DW_TAG_subprogram
     312                      .dwattr $C$DW$52, DW_AT_name("SCI_enableInterrupt")
     313                      .dwattr $C$DW$52, DW_AT_linkage_name("SCI_enableInterrupt")
     314                      .dwattr $C$DW$52, DW_AT_declaration
     315                      .dwattr $C$DW$52, DW_AT_external
     316                      .dwattr $C$DW$52, DW_AT_decl_file("C:/Users/ZXC/Documents/mcu project/ti-project/clllc_nonpowerSUITE_
     317                      .dwattr $C$DW$52, DW_AT_decl_line(0x605)
     318                      .dwattr $C$DW$52, DW_AT_decl_column(0x01)
     319              $C$DW$53        .dwtag  DW_TAG_formal_parameter
     320                      .dwattr $C$DW$53, DW_AT_type(*$C$DW$T$142)
     321              
     322              $C$DW$54        .dwtag  DW_TAG_formal_parameter
     323                      .dwattr $C$DW$54, DW_AT_type(*$C$DW$T$142)
     324              
     325                      .dwendtag $C$DW$52
     326              
     327              
     328              $C$DW$55        .dwtag  DW_TAG_subprogram
     329                      .dwattr $C$DW$55, DW_AT_name("GPIO_setPadConfig")
     330                      .dwattr $C$DW$55, DW_AT_linkage_name("GPIO_setPadConfig")
TMS320C2000 Assembler PC v22.6.0 Mon Sep  2 11:55:45 2024

Copyright (c) 1996-2018 Texas Instruments Incorporated
clllc_hal.asm                                                        PAGE    7

     331                      .dwattr $C$DW$55, DW_AT_declaration
     332                      .dwattr $C$DW$55, DW_AT_external
     333                      .dwattr $C$DW$55, DW_AT_decl_file("C:/Users/ZXC/Documents/mcu project/ti-project/clllc_nonpowerSUITE_
     334                      .dwattr $C$DW$55, DW_AT_decl_line(0x368)
     335                      .dwattr $C$DW$55, DW_AT_decl_column(0x01)
     336              $C$DW$56        .dwtag  DW_TAG_formal_parameter
     337                      .dwattr $C$DW$56, DW_AT_type(*$C$DW$T$142)
     338              
     339              $C$DW$57        .dwtag  DW_TAG_formal_parameter
     340                      .dwattr $C$DW$57, DW_AT_type(*$C$DW$T$142)
     341              
     342                      .dwendtag $C$DW$55
     343              
     344                      .global ||MEP_ScaleFactor||
     345 00000000               .bss    ||MEP_ScaleFactor||,1,1,0
     346              $C$DW$58        .dwtag  DW_TAG_variable
     347                      .dwattr $C$DW$58, DW_AT_name("MEP_ScaleFactor")
     348                      .dwattr $C$DW$58, DW_AT_linkage_name("MEP_ScaleFactor")
     349                      .dwattr $C$DW$58, DW_AT_location[DW_OP_addr ||MEP_ScaleFactor||]
     350                      .dwattr $C$DW$58, DW_AT_type(*$C$DW$T$233)
     351                      .dwattr $C$DW$58, DW_AT_external
     352                      .dwattr $C$DW$58, DW_AT_decl_file("../clllc_hal.c")
     353                      .dwattr $C$DW$58, DW_AT_decl_line(0x21)
     354                      .dwattr $C$DW$58, DW_AT_decl_column(0x09)
     355              
     356 00000000               .data
     357                      .align  1
     358                      .elfsym ||ledCnt1$1||,SYM_SIZE(1),SYM_BLOCKED(1)
     359 00000000       ||ledCnt1$1||:
     360 00000000 0000          .bits           0,16
     361                                      ; ledCnt1$1 @ 0
     362              
     363              
     364              $C$DW$59        .dwtag  DW_TAG_subprogram
     365                      .dwattr $C$DW$59, DW_AT_name("SFO")
     366                      .dwattr $C$DW$59, DW_AT_linkage_name("SFO")
     367                      .dwattr $C$DW$59, DW_AT_type(*$C$DW$T$10)
     368                      .dwattr $C$DW$59, DW_AT_declaration
     369                      .dwattr $C$DW$59, DW_AT_external
     370                      .dwattr $C$DW$59, DW_AT_decl_file("C:/Users/ZXC/Documents/mcu project/ti-project/clllc_nonpowerSUITE_
     371                      .dwattr $C$DW$59, DW_AT_decl_line(0x4b)
     372                      .dwattr $C$DW$59, DW_AT_decl_column(0x05)
     373                      .dwendtag $C$DW$59
     374              
     375              
     376              $C$DW$60        .dwtag  DW_TAG_subprogram
     377                      .dwattr $C$DW$60, DW_AT_name("__eallow")
     378                      .dwattr $C$DW$60, DW_AT_linkage_name("__eallow")
     379                      .dwattr $C$DW$60, DW_AT_declaration
     380                      .dwattr $C$DW$60, DW_AT_external
     381                      .dwendtag $C$DW$60
     382              
     383              
     384              $C$DW$61        .dwtag  DW_TAG_subprogram
     385                      .dwattr $C$DW$61, DW_AT_name("__edis")
TMS320C2000 Assembler PC v22.6.0 Mon Sep  2 11:55:45 2024

Copyright (c) 1996-2018 Texas Instruments Incorporated
clllc_hal.asm                                                        PAGE    8

     386                      .dwattr $C$DW$61, DW_AT_linkage_name("__edis")
     387                      .dwattr $C$DW$61, DW_AT_declaration
     388                      .dwattr $C$DW$61, DW_AT_external
     389                      .dwendtag $C$DW$61
     390              
     391                      .global ||ePWM||
     392 00000000               .sect   ".data:ePWM", RW
     393                      .align  2
     394                      .elfsym ||ePWM||,SYM_SIZE(18)
     395 00000000       ||ePWM||:
     396 00000000 0000          .bits           0,32
         00000001 0000 
     397                                      ; ePWM[0] @ 0
     398 00000002 4000          .bits           0x4000,32
         00000003 0000 
     399                                      ; ePWM[1] @ 32
     400 00000004 4100          .bits           0x4100,32
         00000005 0000 
     401                                      ; ePWM[2] @ 64
     402 00000006 4200          .bits           0x4200,32
         00000007 0000 
     403                                      ; ePWM[3] @ 96
     404 00000008 4300          .bits           0x4300,32
         00000009 0000 
     405                                      ; ePWM[4] @ 128
     406 0000000a 4400          .bits           0x4400,32
         0000000b 0000 
     407                                      ; ePWM[5] @ 160
     408 0000000c 4500          .bits           0x4500,32
         0000000d 0000 
     409                                      ; ePWM[6] @ 192
     410 0000000e 4600          .bits           0x4600,32
         0000000f 0000 
     411                                      ; ePWM[7] @ 224
     412 00000010 4700          .bits           0x4700,32
         00000011 0000 
     413                                      ; ePWM[8] @ 256
     414              
     415              $C$DW$62        .dwtag  DW_TAG_variable
     416                      .dwattr $C$DW$62, DW_AT_name("ePWM")
     417                      .dwattr $C$DW$62, DW_AT_linkage_name("ePWM")
     418                      .dwattr $C$DW$62, DW_AT_location[DW_OP_addr ||ePWM||]
     419                      .dwattr $C$DW$62, DW_AT_type(*$C$DW$T$245)
     420                      .dwattr $C$DW$62, DW_AT_external
     421                      .dwattr $C$DW$62, DW_AT_decl_file("../clllc_hal.c")
     422                      .dwattr $C$DW$62, DW_AT_decl_line(0x23)
     423                      .dwattr $C$DW$62, DW_AT_decl_column(0x13)
     424              
     425                      .sblock ".bss"
     426                      .sblock ".data"
     427              ;       C:\ti\ccs1240\ccs\tools\compiler\ti-cgt-c2000_22.6.0.LTS\bin\opt2000.exe C:\\Users\\ZXC\\AppData\\Loc
     428              ;       C:\ti\ccs1240\ccs\tools\compiler\ti-cgt-c2000_22.6.0.LTS\bin\acia2000.exe -@C:\\Users\\ZXC\\AppData\\
     429 00000000               .sect   ".text"
     430                      .clink
     431                      .global ||CLLLC_HAL_toggleLED1||
TMS320C2000 Assembler PC v22.6.0 Mon Sep  2 11:55:45 2024

Copyright (c) 1996-2018 Texas Instruments Incorporated
clllc_hal.asm                                                        PAGE    9

     432              
     433              $C$DW$63        .dwtag  DW_TAG_subprogram
     434                      .dwattr $C$DW$63, DW_AT_name("CLLLC_HAL_toggleLED1")
     435                      .dwattr $C$DW$63, DW_AT_low_pc(||CLLLC_HAL_toggleLED1||)
     436                      .dwattr $C$DW$63, DW_AT_high_pc(0x00)
     437                      .dwattr $C$DW$63, DW_AT_linkage_name("CLLLC_HAL_toggleLED1")
     438                      .dwattr $C$DW$63, DW_AT_external
     439                      .dwattr $C$DW$63, DW_AT_decl_file("../clllc_hal.c")
     440                      .dwattr $C$DW$63, DW_AT_decl_line(0x4ae)
     441                      .dwattr $C$DW$63, DW_AT_decl_column(0x06)
     442                      .dwattr $C$DW$63, DW_AT_TI_max_frame_size(-2)
     443                      .dwpsn  file "../clllc_hal.c",line 1199,column 1,is_stmt,address ||CLLLC_HAL_toggleLED1||,isa 0
     444              
     445                      .dwfde $C$DW$CIE, ||CLLLC_HAL_toggleLED1||
     446              $C$DW$64        .dwtag  DW_TAG_variable
     447                      .dwattr $C$DW$64, DW_AT_name("ledCnt1")
     448                      .dwattr $C$DW$64, DW_AT_linkage_name("ledCnt1$1")
     449                      .dwattr $C$DW$64, DW_AT_type(*$C$DW$T$163)
     450                      .dwattr $C$DW$64, DW_AT_location[DW_OP_addr ||ledCnt1$1||]
     451              
     452              
     453              ;***************************************************************
     454              ;* FNAME: CLLLC_HAL_toggleLED1          FR SIZE:   0           *
     455              ;*                                                             *
     456              ;* FUNCTION ENVIRONMENT                                        *
     457              ;*                                                             *
     458              ;* FUNCTION PROPERTIES                                         *
     459              ;*                            0 Parameter,  0 Auto,  0 SOE     *
     460              ;***************************************************************
     461              
     462 00000000       ||CLLLC_HAL_toggleLED1||:
     463                      .dwcfi  cfa_offset, -2
     464                      .dwcfi  save_reg_to_mem, 26, 0
     465 00000000 761F!         MOVW      DP,#||ledCnt1$1||     ; [CPU_ARAU] 
         00000001 0000 
     466                      .dwpsn  file "../clllc_hal.c",line 1202,column 5,is_stmt,isa 0
     467 00000002 9200!         MOV       AL,@||ledCnt1$1||     ; [CPU_ALU] |1202| 
     468 00000003 6007          B         ||$C$L1||,NEQ         ; [CPU_ALU] |1202| 
     469                      ; branchcc occurs ; [] |1202| 
     470                      .dwcfi  remember_state
     471                      .dwpsn  file "C:/Users/ZXC/Documents/mcu project/ti-project/clllc_nonpowerSUITE_F28004x/device/driver
     472 00000004 0204          MOVB      ACC,#4                ; [CPU_ALU] |498| 
     473                      .dwpsn  file "../clllc_hal.c",line 1205,column 9,is_stmt,isa 0
     474 00000005 56BF!         MOVB      @||ledCnt1$1||,#5,UNC ; [CPU_ALU] |1205| 
         00000006 0500 
     475                      .dwpsn  file "C:/Users/ZXC/Documents/mcu project/ti-project/clllc_nonpowerSUITE_F28004x/device/driver
     476 00000007 BDA9          MOV32     *(0:0x7f0e),ACC       ; [CPU_FPU] |498| 
         00000008 7F0E 
     477              $C$DW$65        .dwtag  DW_TAG_TI_branch
     478                      .dwattr $C$DW$65, DW_AT_low_pc(0x00)
     479                      .dwattr $C$DW$65, DW_AT_TI_return
     480              
     481 00000009 0006          LRETR     ; [CPU_ALU] 
     482                      ; return occurs ; [] 
     483                      .dwcfi  restore_state
TMS320C2000 Assembler PC v22.6.0 Mon Sep  2 11:55:45 2024

Copyright (c) 1996-2018 Texas Instruments Incorporated
clllc_hal.asm                                                        PAGE   10

     484 0000000a       ||$C$L1||:    
     485                      .dwpsn  file "../clllc_hal.c",line 1209,column 9,is_stmt,isa 0
     486 0000000a 0B00!         DEC       @||ledCnt1$1||        ; [CPU_ALU] |1209| 
     487              $C$DW$66        .dwtag  DW_TAG_TI_branch
     488                      .dwattr $C$DW$66, DW_AT_low_pc(0x00)
     489                      .dwattr $C$DW$66, DW_AT_TI_return
     490              
     491 0000000b 0006          LRETR     ; [CPU_ALU] 
     492                      ; return occurs ; [] 
     493                      .dwattr $C$DW$63, DW_AT_TI_end_file("../clllc_hal.c")
     494                      .dwattr $C$DW$63, DW_AT_TI_end_line(0x4bc)
     495                      .dwattr $C$DW$63, DW_AT_TI_end_column(0x01)
     496                      .dwendentry
     497                      .dwendtag $C$DW$63
     498              
     499 0000000c               .sect   ".text"
     500                      .clink
     501                      .global ||CLLLC_HAL_setupTrigForADC||
     502              
     503              $C$DW$67        .dwtag  DW_TAG_subprogram
     504                      .dwattr $C$DW$67, DW_AT_name("CLLLC_HAL_setupTrigForADC")
     505                      .dwattr $C$DW$67, DW_AT_low_pc(||CLLLC_HAL_setupTrigForADC||)
     506                      .dwattr $C$DW$67, DW_AT_high_pc(0x00)
     507                      .dwattr $C$DW$67, DW_AT_linkage_name("CLLLC_HAL_setupTrigForADC")
     508                      .dwattr $C$DW$67, DW_AT_external
     509                      .dwattr $C$DW$67, DW_AT_decl_file("../clllc_hal.c")
     510                      .dwattr $C$DW$67, DW_AT_decl_line(0x472)
     511                      .dwattr $C$DW$67, DW_AT_decl_column(0x06)
     512                      .dwattr $C$DW$67, DW_AT_TI_max_frame_size(-2)
     513                      .dwpsn  file "../clllc_hal.c",line 1139,column 1,is_stmt,address ||CLLLC_HAL_setupTrigForADC||,isa 0
     514              
     515                      .dwfde $C$DW$CIE, ||CLLLC_HAL_setupTrigForADC||
     516              
     517              ;***************************************************************
     518              ;* FNAME: CLLLC_HAL_setupTrigForADC     FR SIZE:   0           *
     519              ;*                                                             *
     520              ;* FUNCTION ENVIRONMENT                                        *
     521              ;*                                                             *
     522              ;* FUNCTION PROPERTIES                                         *
     523              ;*                            0 Parameter,  0 Auto,  0 SOE     *
     524              ;***************************************************************
     525              
     526 0000000c       ||CLLLC_HAL_setupTrigForADC||:
     527                      .dwcfi  cfa_offset, -2
     528                      .dwcfi  save_reg_to_mem, 26, 0
     529                      .dwpsn  file "C:/Users/ZXC/Documents/mcu project/ti-project/clllc_nonpowerSUITE_F28004x/device/driver
     530 0000000c F5A9          MOV       AL,*(0:0x44a4)        ; [CPU_ALU] |5176| 
         0000000d 44A4 
     531 0000000e 1AA9          OR        AL,#0x0700            ; [CPU_ALU] |5176| 
         0000000f 0700 
     532                      .dwpsn  file "C:/Users/ZXC/Documents/mcu project/ti-project/clllc_nonpowerSUITE_F28004x/device/driver
     533 00000010 9B1E          MOVB      AH,#30                ; [CPU_FPU] |2445| 
     534                      .dwpsn  file "C:/Users/ZXC/Documents/mcu project/ti-project/clllc_nonpowerSUITE_F28004x/device/driver
     535 00000011 F4A9          MOV       *(0:0x44a4),AL        ; [CPU_ALU] |5176| 
         00000012 44A4 
TMS320C2000 Assembler PC v22.6.0 Mon Sep  2 11:55:45 2024

Copyright (c) 1996-2018 Texas Instruments Incorporated
clllc_hal.asm                                                        PAGE   11

     536                      .dwpsn  file "C:/Users/ZXC/Documents/mcu project/ti-project/clllc_nonpowerSUITE_F28004x/device/driver
     537 00000013 F5A9          MOV       AL,*(0:0x44a4)        ; [CPU_ALU] |5191| 
         00000014 44A4 
     538 00000015 18A9          AND       AL,#0xffef            ; [CPU_ALU] |5191| 
         00000016 FFEF 
     539 00000017 F4A9          MOV       *(0:0x44a4),AL        ; [CPU_ALU] |5191| 
         00000018 44A4 
     540                      .dwpsn  file "C:/Users/ZXC/Documents/mcu project/ti-project/clllc_nonpowerSUITE_F28004x/device/driver
     541 00000019 F4A8          MOV       *(0:0x446d),AH        ; [CPU_ALU] |2445| 
         0000001a 446D 
     542                      .dwpsn  file "C:/Users/ZXC/Documents/mcu project/ti-project/clllc_nonpowerSUITE_F28004x/device/driver
     543 0000001b F5A9          MOV       AL,*(0:0x44a6)        ; [CPU_ALU] |5288| 
         0000001c 44A6 
     544 0000001d 5020          ORB       AL,#0x20              ; [CPU_ALU] |5288| 
     545 0000001e F4A9          MOV       *(0:0x44a6),AL        ; [CPU_ALU] |5288| 
         0000001f 44A6 
     546                      .dwpsn  file "C:/Users/ZXC/Documents/mcu project/ti-project/clllc_nonpowerSUITE_F28004x/device/driver
     547 00000020 F5A9          MOV       AL,*(0:0x44b0)        ; [CPU_ALU] |5294| 
         00000021 44B0 
     548 00000022 CCA9          AND       AL,AL,#0xfff0         ; [CPU_ALU] |5294| 
         00000023 FFF0 
     549 00000024 5001          ORB       AL,#0x01              ; [CPU_ALU] |5294| 
     550 00000025 F4A9          MOV       *(0:0x44b0),AL        ; [CPU_ALU] |5294| 
         00000026 44B0 
     551                      .dwpsn  file "C:/Users/ZXC/Documents/mcu project/ti-project/clllc_nonpowerSUITE_F28004x/device/driver
     552 00000027 F5A9          MOV       AL,*(0:0x44a4)        ; [CPU_ALU] |5072| 
         00000028 44A4 
     553 00000029 1AA9          OR        AL,#0x0800            ; [CPU_ALU] |5072| 
         0000002a 0800 
     554 0000002b F4A9          MOV       *(0:0x44a4),AL        ; [CPU_ALU] |5072| 
         0000002c 44A4 
     555                      .dwpsn  file "C:/Users/ZXC/Documents/mcu project/ti-project/clllc_nonpowerSUITE_F28004x/device/driver
     556 0000002d F5A9          MOV       AL,*(0:0x40a4)        ; [CPU_ALU] |5176| 
         0000002e 40A4 
     557 0000002f 18A9          AND       AL,#0xfeff            ; [CPU_ALU] |5176| 
         00000030 FEFF 
     558 00000031 1AA9          OR        AL,#0x0600            ; [CPU_ALU] |5176| 
         00000032 0600 
     559 00000033 F4A9          MOV       *(0:0x40a4),AL        ; [CPU_ALU] |5176| 
         00000034 40A4 
     560                      .dwpsn  file "C:/Users/ZXC/Documents/mcu project/ti-project/clllc_nonpowerSUITE_F28004x/device/driver
     561 00000035 F5A9          MOV       AL,*(0:0x40a4)        ; [CPU_ALU] |5201| 
         00000036 40A4 
     562 00000037 5010          ORB       AL,#0x10              ; [CPU_ALU] |5201| 
     563 00000038 F4A9          MOV       *(0:0x40a4),AL        ; [CPU_ALU] |5201| 
         00000039 40A4 
     564                      .dwpsn  file "C:/Users/ZXC/Documents/mcu project/ti-project/clllc_nonpowerSUITE_F28004x/device/driver
     565 0000003a F5A9          MOV       AL,*(0:0x40a6)        ; [CPU_ALU] |5288| 
         0000003b 40A6 
     566 0000003c 5020          ORB       AL,#0x20              ; [CPU_ALU] |5288| 
     567 0000003d F4A9          MOV       *(0:0x40a6),AL        ; [CPU_ALU] |5288| 
         0000003e 40A6 
     568                      .dwpsn  file "C:/Users/ZXC/Documents/mcu project/ti-project/clllc_nonpowerSUITE_F28004x/device/driver
     569 0000003f F5A9          MOV       AL,*(0:0x40b0)        ; [CPU_ALU] |5294| 
         00000040 40B0 
TMS320C2000 Assembler PC v22.6.0 Mon Sep  2 11:55:45 2024

Copyright (c) 1996-2018 Texas Instruments Incorporated
clllc_hal.asm                                                        PAGE   12

     570 00000041 CCA9          AND       AL,AL,#0xfff0         ; [CPU_ALU] |5294| 
         00000042 FFF0 
     571 00000043 5006          ORB       AL,#0x06              ; [CPU_ALU] |5294| 
     572 00000044 F4A9          MOV       *(0:0x40b0),AL        ; [CPU_ALU] |5294| 
         00000045 40B0 
     573                      .dwpsn  file "C:/Users/ZXC/Documents/mcu project/ti-project/clllc_nonpowerSUITE_F28004x/device/driver
     574 00000046 F5A9          MOV       AL,*(0:0x40a4)        ; [CPU_ALU] |5072| 
         00000047 40A4 
     575 00000048 1AA9          OR        AL,#0x0800            ; [CPU_ALU] |5072| 
         00000049 0800 
     576 0000004a F4A9          MOV       *(0:0x40a4),AL        ; [CPU_ALU] |5072| 
         0000004b 40A4 
     577              $C$DW$68        .dwtag  DW_TAG_TI_branch
     578                      .dwattr $C$DW$68, DW_AT_low_pc(0x00)
     579                      .dwattr $C$DW$68, DW_AT_TI_return
     580              
     581 0000004c 0006          LRETR     ; [CPU_ALU] 
     582                      ; return occurs ; [] 
     583                      .dwattr $C$DW$67, DW_AT_TI_end_file("../clllc_hal.c")
     584                      .dwattr $C$DW$67, DW_AT_TI_end_line(0x4a5)
     585                      .dwattr $C$DW$67, DW_AT_TI_end_column(0x01)
     586                      .dwendentry
     587                      .dwendtag $C$DW$67
     588              
     589 0000004d               .sect   ".text"
     590                      .clink
     591                      .global ||CLLLC_HAL_setupSynchronousRectificationActionDebug||
     592              
     593              $C$DW$69        .dwtag  DW_TAG_subprogram
     594                      .dwattr $C$DW$69, DW_AT_name("CLLLC_HAL_setupSynchronousRectificationActionDebug")
     595                      .dwattr $C$DW$69, DW_AT_low_pc(||CLLLC_HAL_setupSynchronousRectificationActionDebug||)
     596                      .dwattr $C$DW$69, DW_AT_high_pc(0x00)
     597                      .dwattr $C$DW$69, DW_AT_linkage_name("CLLLC_HAL_setupSynchronousRectificationActionDebug")
     598                      .dwattr $C$DW$69, DW_AT_external
     599                      .dwattr $C$DW$69, DW_AT_decl_file("../clllc_hal.c")
     600                      .dwattr $C$DW$69, DW_AT_decl_line(0x44b)
     601                      .dwattr $C$DW$69, DW_AT_decl_column(0x06)
     602                      .dwattr $C$DW$69, DW_AT_TI_max_frame_size(-2)
     603                      .dwpsn  file "../clllc_hal.c",line 1100,column 1,is_stmt,address ||CLLLC_HAL_setupSynchronousRectific
     604              
     605                      .dwfde $C$DW$CIE, ||CLLLC_HAL_setupSynchronousRectificationActionDebug||
     606              $C$DW$70        .dwtag  DW_TAG_formal_parameter
     607                      .dwattr $C$DW$70, DW_AT_name("powerFlow")
     608                      .dwattr $C$DW$70, DW_AT_type(*$C$DW$T$163)
     609                      .dwattr $C$DW$70, DW_AT_location[DW_OP_reg0]
     610              
     611              
     612              ;***************************************************************
     613              ;* FNAME: CLLLC_HAL_setupSynchronousRectificationActionDebug FR SIZE:   0           *
     614              ;*                                                             *
     615              ;* FUNCTION ENVIRONMENT                                        *
     616              ;*                                                             *
     617              ;* FUNCTION PROPERTIES                                         *
     618              ;*                            0 Parameter,  0 Auto,  0 SOE     *
     619              ;***************************************************************
TMS320C2000 Assembler PC v22.6.0 Mon Sep  2 11:55:45 2024

Copyright (c) 1996-2018 Texas Instruments Incorporated
clllc_hal.asm                                                        PAGE   13

     620              
     621              ||CLLLC_HAL_setupSynchronousRectificationActionDebug||:
     622              ;* AL    assigned to powerFlow
     623              $C$DW$71        .dwtag  DW_TAG_variable
     624                      .dwattr $C$DW$71, DW_AT_name("powerFlow")
     625                      .dwattr $C$DW$71, DW_AT_type(*$C$DW$T$237)
     626                      .dwattr $C$DW$71, DW_AT_location[DW_OP_reg0]
     627              
     628                      .dwcfi  cfa_offset, -2
     629                      .dwcfi  save_reg_to_mem, 26, 0
     630                      .dwpsn  file "../clllc_hal.c",line 1104,column 5,is_stmt,isa 0
     631 0000004d 5201          CMPB      AL,#1                 ; [CPU_ALU] |1104| 
     632 0000004e 6119          B         ||$C$L2||,EQ          ; [CPU_ALU] |1104| 
     633                      ; branchcc occurs ; [] |1104| 
     634                      .dwpsn  file "../clllc_hal.c",line 1118,column 9,is_stmt,isa 0
     635 0000004f 9A00          MOVB      AL,#0                 ; [CPU_ALU] |1118| 
     636 00000050 28A8          MOV       AH,#4096              ; [CPU_ALU] |1118| 
         00000051 1000 
     637              $C$DW$72        .dwtag  DW_TAG_TI_branch
     638                      .dwattr $C$DW$72, DW_AT_low_pc(0x00)
     639                      .dwattr $C$DW$72, DW_AT_name("XBAR_setOutputMuxConfig")
     640                      .dwattr $C$DW$72, DW_AT_TI_call
     641              
     642 00000052 7640!         LCR       #||XBAR_setOutputMuxConfig|| ; [CPU_ALU] |1118| 
         00000053 0000 
     643                      ; call occurs [#||XBAR_setOutputMuxConfig||] ; [] |1118| 
     644                      .dwpsn  file "C:\Users\ZXC\Documents\mcu project\ti-project\clllc_nonpowerSUITE_F28004x\device\driver
     645 00000054 7622          EALLOW    ; [CPU_ALU] |645| 
     646                      .dwpsn  file "C:\Users\ZXC\Documents\mcu project\ti-project\clllc_nonpowerSUITE_F28004x\device\driver
     647 00000055 BFA9          MOV32     ACC,*(0:0x7aa0)       ; [CPU_FPU] |647| 
         00000056 7AA0 
     648 00000057 1AA9          OR        AL,#256               ; [CPU_ALU] |647| 
         00000058 0100 
     649 00000059 BDA9          MOV32     *(0:0x7aa0),ACC       ; [CPU_FPU] |647| 
         0000005a 7AA0 
     650                      .dwpsn  file "C:\Users\ZXC\Documents\mcu project\ti-project\clllc_nonpowerSUITE_F28004x\device\driver
     651 0000005b 761A          EDIS      ; [CPU_ALU] |649| 
     652                      .dwpsn  file "../clllc_hal.c",line 1122,column 9,is_stmt,isa 0
     653 0000005c 9A02          MOVB      AL,#2                 ; [CPU_ALU] |1122| 
     654 0000005d 28A8          MOV       AH,#4608              ; [CPU_ALU] |1122| 
         0000005e 1200 
     655              $C$DW$73        .dwtag  DW_TAG_TI_branch
     656                      .dwattr $C$DW$73, DW_AT_low_pc(0x00)
     657                      .dwattr $C$DW$73, DW_AT_name("XBAR_setOutputMuxConfig")
     658                      .dwattr $C$DW$73, DW_AT_TI_call
     659              
     660 0000005f 7640!         LCR       #||XBAR_setOutputMuxConfig|| ; [CPU_ALU] |1122| 
         00000060 0000 
     661                      ; call occurs [#||XBAR_setOutputMuxConfig||] ; [] |1122| 
     662                      .dwpsn  file "C:\Users\ZXC\Documents\mcu project\ti-project\clllc_nonpowerSUITE_F28004x\device\driver
     663 00000061 7622          EALLOW    ; [CPU_ALU] |645| 
     664                      .dwpsn  file "C:\Users\ZXC\Documents\mcu project\ti-project\clllc_nonpowerSUITE_F28004x\device\driver
     665 00000062 BFA9          MOV32     ACC,*(0:0x7aa2)       ; [CPU_FPU] |647| 
         00000063 7AA2 
     666 00000064 1AA9          OR        AL,#512               ; [CPU_ALU] |647| 
TMS320C2000 Assembler PC v22.6.0 Mon Sep  2 11:55:45 2024

Copyright (c) 1996-2018 Texas Instruments Incorporated
clllc_hal.asm                                                        PAGE   14

         00000065 0200 
     667                      .dwpsn  file "../clllc_hal.c",line 1124,column 9,is_stmt,isa 0
     668 00000066 6F16          B         ||$C$L3||,UNC         ; [CPU_ALU] |1124| 
     669                      ; branch occurs ; [] |1124| 
     670 00000067       ||$C$L2||:    
     671                      .dwpsn  file "../clllc_hal.c",line 1107,column 9,is_stmt,isa 0
     672 00000067 9A00          MOVB      AL,#0                 ; [CPU_ALU] |1107| 
     673 00000068 28A8          MOV       AH,#3072              ; [CPU_ALU] |1107| 
         00000069 0C00 
     674              $C$DW$74        .dwtag  DW_TAG_TI_branch
     675                      .dwattr $C$DW$74, DW_AT_low_pc(0x00)
     676                      .dwattr $C$DW$74, DW_AT_name("XBAR_setOutputMuxConfig")
     677                      .dwattr $C$DW$74, DW_AT_TI_call
     678              
     679 0000006a 7640!         LCR       #||XBAR_setOutputMuxConfig|| ; [CPU_ALU] |1107| 
         0000006b 0000 
     680                      ; call occurs [#||XBAR_setOutputMuxConfig||] ; [] |1107| 
     681                      .dwpsn  file "C:\Users\ZXC\Documents\mcu project\ti-project\clllc_nonpowerSUITE_F28004x\device\driver
     682 0000006c 7622          EALLOW    ; [CPU_ALU] |645| 
     683                      .dwpsn  file "C:\Users\ZXC\Documents\mcu project\ti-project\clllc_nonpowerSUITE_F28004x\device\driver
     684 0000006d BFA9          MOV32     ACC,*(0:0x7aa0)       ; [CPU_FPU] |647| 
         0000006e 7AA0 
     685 0000006f 5040          ORB       AL,#0x40              ; [CPU_ALU] |647| 
     686 00000070 BDA9          MOV32     *(0:0x7aa0),ACC       ; [CPU_FPU] |647| 
         00000071 7AA0 
     687                      .dwpsn  file "C:\Users\ZXC\Documents\mcu project\ti-project\clllc_nonpowerSUITE_F28004x\device\driver
     688 00000072 761A          EDIS      ; [CPU_ALU] |649| 
     689                      .dwpsn  file "../clllc_hal.c",line 1111,column 9,is_stmt,isa 0
     690 00000073 9A02          MOVB      AL,#2                 ; [CPU_ALU] |1111| 
     691 00000074 28A8          MOV       AH,#3584              ; [CPU_ALU] |1111| 
         00000075 0E00 
     692              $C$DW$75        .dwtag  DW_TAG_TI_branch
     693                      .dwattr $C$DW$75, DW_AT_low_pc(0x00)
     694                      .dwattr $C$DW$75, DW_AT_name("XBAR_setOutputMuxConfig")
     695                      .dwattr $C$DW$75, DW_AT_TI_call
     696              
     697 00000076 7640!         LCR       #||XBAR_setOutputMuxConfig|| ; [CPU_ALU] |1111| 
         00000077 0000 
     698                      ; call occurs [#||XBAR_setOutputMuxConfig||] ; [] |1111| 
     699                      .dwpsn  file "C:\Users\ZXC\Documents\mcu project\ti-project\clllc_nonpowerSUITE_F28004x\device\driver
     700 00000078 7622          EALLOW    ; [CPU_ALU] |645| 
     701                      .dwpsn  file "C:\Users\ZXC\Documents\mcu project\ti-project\clllc_nonpowerSUITE_F28004x\device\driver
     702 00000079 BFA9          MOV32     ACC,*(0:0x7aa2)       ; [CPU_FPU] |647| 
         0000007a 7AA2 
     703 0000007b 5080          ORB       AL,#0x80              ; [CPU_ALU] |647| 
     704 0000007c       ||$C$L3||:    
     705 0000007c BDA9          MOV32     *(0:0x7aa2),ACC       ; [CPU_FPU] |647| 
         0000007d 7AA2 
     706                      .dwpsn  file "C:\Users\ZXC\Documents\mcu project\ti-project\clllc_nonpowerSUITE_F28004x\device\driver
     707 0000007e 761A          EDIS      ; [CPU_ALU] |649| 
     708                      .dwpsn  file "../clllc_hal.c",line 1129,column 5,is_stmt,isa 0
     709 0000007f D401          MOVB      XAR4,#1               ; [CPU_ALU] |1129| 
     710 00000080 023A          MOVB      ACC,#58               ; [CPU_ALU] |1129| 
     711              $C$DW$76        .dwtag  DW_TAG_TI_branch
     712                      .dwattr $C$DW$76, DW_AT_low_pc(0x00)
TMS320C2000 Assembler PC v22.6.0 Mon Sep  2 11:55:45 2024

Copyright (c) 1996-2018 Texas Instruments Incorporated
clllc_hal.asm                                                        PAGE   15

     713                      .dwattr $C$DW$76, DW_AT_name("GPIO_setDirectionMode")
     714                      .dwattr $C$DW$76, DW_AT_TI_call
     715              
     716 00000081 7640!         LCR       #||GPIO_setDirectionMode|| ; [CPU_ALU] |1129| 
         00000082 0000 
     717                      ; call occurs [#||GPIO_setDirectionMode||] ; [] |1129| 
     718                      .dwpsn  file "../clllc_hal.c",line 1130,column 5,is_stmt,isa 0
     719 00000083 D403          MOVB      XAR4,#3               ; [CPU_ALU] |1130| 
     720 00000084 023A          MOVB      ACC,#58               ; [CPU_ALU] |1130| 
     721              $C$DW$77        .dwtag  DW_TAG_TI_branch
     722                      .dwattr $C$DW$77, DW_AT_low_pc(0x00)
     723                      .dwattr $C$DW$77, DW_AT_name("GPIO_setQualificationMode")
     724                      .dwattr $C$DW$77, DW_AT_TI_call
     725              
     726 00000085 7640!         LCR       #||GPIO_setQualificationMode|| ; [CPU_ALU] |1130| 
         00000086 0000 
     727                      ; call occurs [#||GPIO_setQualificationMode||] ; [] |1130| 
     728                      .dwpsn  file "../clllc_hal.c",line 1131,column 5,is_stmt,isa 0
     729 00000087 28A9          MOV       AL,#5125              ; [CPU_ALU] |1131| 
         00000088 1405 
     730 00000089 9B48          MOV       AH,#72                ; [CPU_ALU] |1131| 
     731              $C$DW$78        .dwtag  DW_TAG_TI_branch
     732                      .dwattr $C$DW$78, DW_AT_low_pc(0x00)
     733                      .dwattr $C$DW$78, DW_AT_name("GPIO_setPinConfig")
     734                      .dwattr $C$DW$78, DW_AT_TI_call
     735              
     736 0000008a 7640!         LCR       #||GPIO_setPinConfig|| ; [CPU_ALU] |1131| 
         0000008b 0000 
     737                      ; call occurs [#||GPIO_setPinConfig||] ; [] |1131| 
     738                      .dwpsn  file "../clllc_hal.c",line 1133,column 5,is_stmt,isa 0
     739 0000008c D401          MOVB      XAR4,#1               ; [CPU_ALU] |1133| 
     740 0000008d 023B          MOVB      ACC,#59               ; [CPU_ALU] |1133| 
     741              $C$DW$79        .dwtag  DW_TAG_TI_branch
     742                      .dwattr $C$DW$79, DW_AT_low_pc(0x00)
     743                      .dwattr $C$DW$79, DW_AT_name("GPIO_setDirectionMode")
     744                      .dwattr $C$DW$79, DW_AT_TI_call
     745              
     746 0000008e 7640!         LCR       #||GPIO_setDirectionMode|| ; [CPU_ALU] |1133| 
         0000008f 0000 
     747                      ; call occurs [#||GPIO_setDirectionMode||] ; [] |1133| 
     748                      .dwpsn  file "../clllc_hal.c",line 1134,column 5,is_stmt,isa 0
     749 00000090 D403          MOVB      XAR4,#3               ; [CPU_ALU] |1134| 
     750 00000091 023B          MOVB      ACC,#59               ; [CPU_ALU] |1134| 
     751              $C$DW$80        .dwtag  DW_TAG_TI_branch
     752                      .dwattr $C$DW$80, DW_AT_low_pc(0x00)
     753                      .dwattr $C$DW$80, DW_AT_name("GPIO_setQualificationMode")
     754                      .dwattr $C$DW$80, DW_AT_TI_call
     755              
     756 00000092 7640!         LCR       #||GPIO_setQualificationMode|| ; [CPU_ALU] |1134| 
         00000093 0000 
     757                      ; call occurs [#||GPIO_setQualificationMode||] ; [] |1134| 
     758                      .dwpsn  file "../clllc_hal.c",line 1135,column 5,is_stmt,isa 0
     759 00000094 28A9          MOV       AL,#5637              ; [CPU_ALU] |1135| 
         00000095 1605 
     760 00000096 9B48          MOV       AH,#72                ; [CPU_ALU] |1135| 
TMS320C2000 Assembler PC v22.6.0 Mon Sep  2 11:55:45 2024

Copyright (c) 1996-2018 Texas Instruments Incorporated
clllc_hal.asm                                                        PAGE   16

     761              $C$DW$81        .dwtag  DW_TAG_TI_branch
     762                      .dwattr $C$DW$81, DW_AT_low_pc(0x00)
     763                      .dwattr $C$DW$81, DW_AT_name("GPIO_setPinConfig")
     764                      .dwattr $C$DW$81, DW_AT_TI_call
     765              
     766 00000097 7640!         LCR       #||GPIO_setPinConfig|| ; [CPU_ALU] |1135| 
         00000098 0000 
     767                      ; call occurs [#||GPIO_setPinConfig||] ; [] |1135| 
     768              $C$DW$82        .dwtag  DW_TAG_TI_branch
     769                      .dwattr $C$DW$82, DW_AT_low_pc(0x00)
     770                      .dwattr $C$DW$82, DW_AT_TI_return
     771              
     772 00000099 0006          LRETR     ; [CPU_ALU] 
     773                      ; return occurs ; [] 
     774                      .dwattr $C$DW$69, DW_AT_TI_end_file("../clllc_hal.c")
     775                      .dwattr $C$DW$69, DW_AT_TI_end_line(0x470)
     776                      .dwattr $C$DW$69, DW_AT_TI_end_column(0x01)
     777                      .dwendentry
     778                      .dwendtag $C$DW$69
     779              
     780 0000009a               .sect   ".text"
     781                      .clink
     782                      .global ||CLLLC_HAL_setupSynchronousRectificationAction||
     783              
     784              $C$DW$83        .dwtag  DW_TAG_subprogram
     785                      .dwattr $C$DW$83, DW_AT_name("CLLLC_HAL_setupSynchronousRectificationAction")
     786                      .dwattr $C$DW$83, DW_AT_low_pc(||CLLLC_HAL_setupSynchronousRectificationAction||)
     787                      .dwattr $C$DW$83, DW_AT_high_pc(0x00)
     788                      .dwattr $C$DW$83, DW_AT_linkage_name("CLLLC_HAL_setupSynchronousRectificationAction")
     789                      .dwattr $C$DW$83, DW_AT_external
     790                      .dwattr $C$DW$83, DW_AT_decl_file("../clllc_hal.c")
     791                      .dwattr $C$DW$83, DW_AT_decl_line(0x2ad)
     792                      .dwattr $C$DW$83, DW_AT_decl_column(0x06)
     793                      .dwattr $C$DW$83, DW_AT_TI_max_frame_size(-4)
     794                      .dwpsn  file "../clllc_hal.c",line 686,column 1,is_stmt,address ||CLLLC_HAL_setupSynchronousRectifica
     795              
     796                      .dwfde $C$DW$CIE, ||CLLLC_HAL_setupSynchronousRectificationAction||
     797              $C$DW$84        .dwtag  DW_TAG_formal_parameter
     798                      .dwattr $C$DW$84, DW_AT_name("powerFlow")
     799                      .dwattr $C$DW$84, DW_AT_type(*$C$DW$T$163)
     800                      .dwattr $C$DW$84, DW_AT_location[DW_OP_reg0]
     801              
     802              
     803              ;***************************************************************
     804              ;* FNAME: CLLLC_HAL_setupSynchronousRectificationAction FR SIZE:   2           *
     805              ;*                                                             *
     806              ;* FUNCTION ENVIRONMENT                                        *
     807              ;*                                                             *
     808              ;* FUNCTION PROPERTIES                                         *
     809              ;*                            1 Parameter,  0 Auto,  0 SOE     *
     810              ;***************************************************************
     811              
     812              ||CLLLC_HAL_setupSynchronousRectificationAction||:
     813              ;* AL    assigned to powerFlow
     814              $C$DW$85        .dwtag  DW_TAG_variable
TMS320C2000 Assembler PC v22.6.0 Mon Sep  2 11:55:45 2024

Copyright (c) 1996-2018 Texas Instruments Incorporated
clllc_hal.asm                                                        PAGE   17

     815                      .dwattr $C$DW$85, DW_AT_name("powerFlow")
     816                      .dwattr $C$DW$85, DW_AT_type(*$C$DW$T$237)
     817                      .dwattr $C$DW$85, DW_AT_location[DW_OP_reg0]
     818              
     819                      .dwcfi  cfa_offset, -2
     820                      .dwcfi  save_reg_to_mem, 26, 0
     821 0000009a FE02          ADDB      SP,#2                 ; [CPU_ARAU] 
     822                      .dwcfi  cfa_offset, -4
     823                      .dwpsn  file "../clllc_hal.c",line 687,column 5,is_stmt,isa 0
     824 0000009b 5201          CMPB      AL,#1                 ; [CPU_ALU] |687| 
     825 0000009c FFE1          B         ||$C$L4||,EQ          ; [CPU_ALU] |687| 
         0000009d 015B 
     826                      ; branchcc occurs ; [] |687| 
     827                      .dwpsn  file "../clllc_hal.c",line 886,column 10,is_stmt,isa 0
     828 0000009e 5202          CMPB      AL,#2                 ; [CPU_ALU] |886| 
     829 0000009f FFE0          B         ||$C$L6||,NEQ         ; [CPU_ALU] |886| 
         000000a0 02B1 
     830                      ; branchcc occurs ; [] |886| 
     831                      .dwpsn  file "C:/Users/ZXC/Documents/mcu project/ti-project/clllc_nonpowerSUITE_F28004x/device/driver
     832 000000a1 7622          EALLOW    ; [CPU_ALU] |643| 
     833                      .dwpsn  file "C:/Users/ZXC/Documents/mcu project/ti-project/clllc_nonpowerSUITE_F28004x/device/driver
     834 000000a2 8F05          MOVL      XAR4,#382850          ; [CPU_ARAU] |648| 
         000000a3 D782 
     835 000000a4 06C4          MOVL      ACC,*+XAR4[0]         ; [CPU_ALU] |648| 
     836 000000a5 18A9          AND       AL,#36863             ; [CPU_ALU] |648| 
         000000a6 8FFF 
     837 000000a7 1EC4          MOVL      *+XAR4[0],ACC         ; [CPU_ALU] |648| 
     838                      .dwpsn  file "C:/Users/ZXC/Documents/mcu project/ti-project/clllc_nonpowerSUITE_F28004x/device/driver
     839 000000a8 8F05          MOVL      XAR4,#382852          ; [CPU_ARAU] |687| 
         000000a9 D784 
     840 000000aa 06C4          MOVL      ACC,*+XAR4[0]         ; [CPU_ALU] |687| 
     841 000000ab 18A9          AND       AL,#36863             ; [CPU_ALU] |687| 
         000000ac 8FFF 
     842 000000ad 1EC4          MOVL      *+XAR4[0],ACC         ; [CPU_ALU] |687| 
     843                      .dwpsn  file "C:/Users/ZXC/Documents/mcu project/ti-project/clllc_nonpowerSUITE_F28004x/device/driver
     844 000000ae F5A9          MOV       AL,*(0:0x5d00)        ; [CPU_ALU] |258| 
         000000af 5D00 
     845 000000b0 1AA9          OR        AL,#0x8000            ; [CPU_ALU] |258| 
         000000b1 8000 
     846 000000b2 F4A9          MOV       *(0:0x5d00),AL        ; [CPU_ALU] |258| 
         000000b3 5D00 
     847                      .dwpsn  file "C:/Users/ZXC/Documents/mcu project/ti-project/clllc_nonpowerSUITE_F28004x/device/driver
     848 000000b4 F5A9          MOV       AL,*(0:0x5d04)        ; [CPU_ALU] |560| 
         000000b5 5D04 
     849 000000b6 18A9          AND       AL,#0xff5e            ; [CPU_ALU] |560| 
         000000b7 FF5E 
     850 000000b8 F4A9          MOV       *(0:0x5d04),AL        ; [CPU_ALU] |560| 
         000000b9 5D04 
     851                      .dwpsn  file "C:/Users/ZXC/Documents/mcu project/ti-project/clllc_nonpowerSUITE_F28004x/device/driver
     852 000000ba 761A          EDIS      ; [CPU_ALU] |564| 
     853                      .dwpsn  file "C:/Users/ZXC/Documents/mcu project/ti-project/clllc_nonpowerSUITE_F28004x/device/driver
     854 000000bb 28A8          MOV       AH,#2150              ; [CPU_ALU] |594| 
         000000bc 0866 
     855                      .dwpsn  file "C:/Users/ZXC/Documents/mcu project/ti-project/clllc_nonpowerSUITE_F28004x/device/driver
     856 000000bd 28A9          MOV       AL,#1950              ; [CPU_ALU] |624| 
TMS320C2000 Assembler PC v22.6.0 Mon Sep  2 11:55:45 2024

Copyright (c) 1996-2018 Texas Instruments Incorporated
clllc_hal.asm                                                        PAGE   18

         000000be 079E 
     857                      .dwpsn  file "C:/Users/ZXC/Documents/mcu project/ti-project/clllc_nonpowerSUITE_F28004x/device/driver
     858 000000bf F4A8          MOV       *(0:0x5d06),AH        ; [CPU_ALU] |594| 
         000000c0 5D06 
     859                      .dwpsn  file "C:/Users/ZXC/Documents/mcu project/ti-project/clllc_nonpowerSUITE_F28004x/device/driver
     860 000000c1 F4A9          MOV       *(0:0x5d12),AL        ; [CPU_ALU] |624| 
         000000c2 5D12 
     861                      .dwpsn  file "C:/Users/ZXC/Documents/mcu project/ti-project/clllc_nonpowerSUITE_F28004x/device/driver
     862 000000c3 7622          EALLOW    ; [CPU_ALU] |330| 
     863                      .dwpsn  file "C:/Users/ZXC/Documents/mcu project/ti-project/clllc_nonpowerSUITE_F28004x/device/driver
     864 000000c4 F5A9          MOV       AL,*(0:0x5d00)        ; [CPU_ALU] |332| 
         000000c5 5D00 
     865 000000c6 CCA9          AND       AL,AL,#0xffbe         ; [CPU_ALU] |332| 
         000000c7 FFBE 
     866 000000c8 5002          ORB       AL,#0x02              ; [CPU_ALU] |332| 
     867 000000c9 F4A9          MOV       *(0:0x5d00),AL        ; [CPU_ALU] |332| 
         000000ca 5D00 
     868                      .dwpsn  file "C:/Users/ZXC/Documents/mcu project/ti-project/clllc_nonpowerSUITE_F28004x/device/driver
     869 000000cb F5A9          MOV       AL,*(0:0x5d00)        ; [CPU_ALU] |378| 
         000000cc 5D00 
     870 000000cd 18A9          AND       AL,#0xbcff            ; [CPU_ALU] |378| 
         000000ce BCFF 
     871 000000cf F4A9          MOV       *(0:0x5d00),AL        ; [CPU_ALU] |378| 
         000000d0 5D00 
     872                      .dwpsn  file "C:/Users/ZXC/Documents/mcu project/ti-project/clllc_nonpowerSUITE_F28004x/device/driver
     873 000000d1 F5A9          MOV       AL,*(0:0x5d04)        ; [CPU_ALU] |1175| 
         000000d2 5D04 
     874 000000d3 18A9          AND       AL,#0xf0ff            ; [CPU_ALU] |1175| 
         000000d4 F0FF 
     875 000000d5 F4A9          MOV       *(0:0x5d04),AL        ; [CPU_ALU] |1175| 
         000000d6 5D04 
     876                      .dwpsn  file "C:/Users/ZXC/Documents/mcu project/ti-project/clllc_nonpowerSUITE_F28004x/device/driver
     877 000000d7 F5A9          MOV       AL,*(0:0x5d04)        ; [CPU_ALU] |1206| 
         000000d8 5D04 
     878 000000d9 1AA9          OR        AL,#0x1000            ; [CPU_ALU] |1206| 
         000000da 1000 
     879 000000db F4A9          MOV       *(0:0x5d04),AL        ; [CPU_ALU] |1206| 
         000000dc 5D04 
     880                      .dwpsn  file "C:/Users/ZXC/Documents/mcu project/ti-project/clllc_nonpowerSUITE_F28004x/device/driver
     881 000000dd 761A          EDIS      ; [CPU_ALU] |1207| 
     882                      .dwpsn  file "../clllc_hal.c",line 938,column 9,is_stmt,isa 0
     883 000000de D501          MOVB      XAR5,#1               ; [CPU_ALU] |938| 
     884 000000df D401          MOVB      XAR4,#1               ; [CPU_ALU] |938| 
     885 000000e0 FF20          MOV       ACC,#23808            ; [CPU_ALU] |938| 
         000000e1 5D00 
     886              $C$DW$86        .dwtag  DW_TAG_TI_branch
     887                      .dwattr $C$DW$86, DW_AT_low_pc(0x00)
     888                      .dwattr $C$DW$86, DW_AT_name("CMPSS_configLatchOnPWMSYNC")
     889                      .dwattr $C$DW$86, DW_AT_TI_call
     890              
     891 000000e2 7640!         LCR       #||CMPSS_configLatchOnPWMSYNC|| ; [CPU_ALU] |938| 
         000000e3 0000 
     892                      ; call occurs [#||CMPSS_configLatchOnPWMSYNC||] ; [] |938| 
     893                      .dwpsn  file "../clllc_hal.c",line 940,column 9,is_stmt,isa 0
     894 000000e4 7622          EALLOW    ; [CPU_ALU] |940| 
TMS320C2000 Assembler PC v22.6.0 Mon Sep  2 11:55:45 2024

Copyright (c) 1996-2018 Texas Instruments Incorporated
clllc_hal.asm                                                        PAGE   19

     895                      .dwpsn  file "../clllc_hal.c",line 941,column 9,is_stmt,isa 0
     896 000000e5 F5A9          MOV       AL,*(0:0x5d04)        ; [CPU_ALU] |941| 
         000000e6 5D04 
     897 000000e7 501E          ORB       AL,#0x1e              ; [CPU_ALU] |941| 
     898 000000e8 F4A9          MOV       *(0:0x5d04),AL        ; [CPU_ALU] |941| 
         000000e9 5D04 
     899                      .dwpsn  file "../clllc_hal.c",line 942,column 9,is_stmt,isa 0
     900 000000ea 761A          EDIS      ; [CPU_ALU] |942| 
     901                      .dwpsn  file "../clllc_hal.c",line 947,column 9,is_stmt,isa 0
     902 000000eb 56BF          MOVB      *-SP[1],#1,UNC        ; [CPU_ALU] |947| 
         000000ec 0141 
     903 000000ed D400          MOVB      XAR4,#0               ; [CPU_ALU] |947| 
     904 000000ee D501          MOVB      XAR5,#1               ; [CPU_ALU] |947| 
     905 000000ef FF20          MOV       ACC,#23808            ; [CPU_ALU] |947| 
         000000f0 5D00 
     906              $C$DW$87        .dwtag  DW_TAG_TI_branch
     907                      .dwattr $C$DW$87, DW_AT_low_pc(0x00)
     908                      .dwattr $C$DW$87, DW_AT_name("CMPSS_configFilterHigh")
     909                      .dwattr $C$DW$87, DW_AT_TI_call
     910              
     911 000000f1 7640!         LCR       #||CMPSS_configFilterHigh|| ; [CPU_ALU] |947| 
         000000f2 0000 
     912                      ; call occurs [#||CMPSS_configFilterHigh||] ; [] |947| 
     913                      .dwpsn  file "../clllc_hal.c",line 948,column 9,is_stmt,isa 0
     914 000000f3 56BF          MOVB      *-SP[1],#1,UNC        ; [CPU_ALU] |948| 
         000000f4 0141 
     915 000000f5 D400          MOVB      XAR4,#0               ; [CPU_ALU] |948| 
     916 000000f6 D501          MOVB      XAR5,#1               ; [CPU_ALU] |948| 
     917 000000f7 FF20          MOV       ACC,#23808            ; [CPU_ALU] |948| 
         000000f8 5D00 
     918              $C$DW$88        .dwtag  DW_TAG_TI_branch
     919                      .dwattr $C$DW$88, DW_AT_low_pc(0x00)
     920                      .dwattr $C$DW$88, DW_AT_name("CMPSS_configFilterLow")
     921                      .dwattr $C$DW$88, DW_AT_TI_call
     922              
     923 000000f9 7640!         LCR       #||CMPSS_configFilterLow|| ; [CPU_ALU] |948| 
         000000fa 0000 
     924                      ; call occurs [#||CMPSS_configFilterLow||] ; [] |948| 
     925                      .dwpsn  file "C:/Users/ZXC/Documents/mcu project/ti-project/clllc_nonpowerSUITE_F28004x/device/driver
     926 000000fb 7622          EALLOW    ; [CPU_ALU] |653| 
     927                      .dwpsn  file "C:/Users/ZXC/Documents/mcu project/ti-project/clllc_nonpowerSUITE_F28004x/device/driver
     928 000000fc F5A9          MOV       AL,*(0:0x5d18)        ; [CPU_ALU] |655| 
         000000fd 5D18 
     929 000000fe 1AA9          OR        AL,#0x8000            ; [CPU_ALU] |655| 
         000000ff 8000 
     930 00000100 F4A9          MOV       *(0:0x5d18),AL        ; [CPU_ALU] |655| 
         00000101 5D18 
     931                      .dwpsn  file "C:/Users/ZXC/Documents/mcu project/ti-project/clllc_nonpowerSUITE_F28004x/device/driver
     932 00000102 F5A9          MOV       AL,*(0:0x5d16)        ; [CPU_ALU] |688| 
         00000103 5D16 
     933 00000104 1AA9          OR        AL,#0x8000            ; [CPU_ALU] |688| 
         00000105 8000 
     934 00000106 F4A9          MOV       *(0:0x5d16),AL        ; [CPU_ALU] |688| 
         00000107 5D16 
     935                      .dwpsn  file "C:/Users/ZXC/Documents/mcu project/ti-project/clllc_nonpowerSUITE_F28004x/device/driver
TMS320C2000 Assembler PC v22.6.0 Mon Sep  2 11:55:45 2024

Copyright (c) 1996-2018 Texas Instruments Incorporated
clllc_hal.asm                                                        PAGE   20

     936 00000108 F5A9          MOV       AL,*(0:0x5d00)        ; [CPU_ALU] |425| 
         00000109 5D00 
     937 0000010a 503C          ORB       AL,#0x3c              ; [CPU_ALU] |425| 
     938 0000010b F4A9          MOV       *(0:0x5d00),AL        ; [CPU_ALU] |425| 
         0000010c 5D00 
     939                      .dwpsn  file "C:/Users/ZXC/Documents/mcu project/ti-project/clllc_nonpowerSUITE_F28004x/device/driver
     940 0000010d F5A9          MOV       AL,*(0:0x5d00)        ; [CPU_ALU] |474| 
         0000010e 5D00 
     941 0000010f 1AA9          OR        AL,#0x3c00            ; [CPU_ALU] |474| 
         00000110 3C00 
     942 00000111 F4A9          MOV       *(0:0x5d00),AL        ; [CPU_ALU] |474| 
         00000112 5D00 
     943                      .dwpsn  file "C:/Users/ZXC/Documents/mcu project/ti-project/clllc_nonpowerSUITE_F28004x/device/driver
     944 00000113 9A02          MOVB      AL,#2                 ; [CPU_ALU] |1031| 
     945 00000114 F4A9          MOV       *(0:0x5d01),AL        ; [CPU_ALU] |1031| 
         00000115 5D01 
     946                      .dwpsn  file "C:/Users/ZXC/Documents/mcu project/ti-project/clllc_nonpowerSUITE_F28004x/device/driver
     947 00000116 F5A9          MOV       AL,*(0:0x5d03)        ; [CPU_ALU] |772| 
         00000117 5D03 
     948 00000118 5002          ORB       AL,#0x02              ; [CPU_ALU] |772| 
     949 00000119 F4A9          MOV       *(0:0x5d03),AL        ; [CPU_ALU] |772| 
         0000011a 5D03 
     950                      .dwpsn  file "C:/Users/ZXC/Documents/mcu project/ti-project/clllc_nonpowerSUITE_F28004x/device/driver
     951 0000011b F5A9          MOV       AL,*(0:0x5d03)        ; [CPU_ALU] |802| 
         0000011c 5D03 
     952 0000011d 1AA9          OR        AL,#0x0200            ; [CPU_ALU] |802| 
         0000011e 0200 
     953 0000011f F4A9          MOV       *(0:0x5d03),AL        ; [CPU_ALU] |802| 
         00000120 5D03 
     954                      .dwpsn  file "C:/Users/ZXC/Documents/mcu project/ti-project/clllc_nonpowerSUITE_F28004x/device/driver
     955 00000121 761A          EDIS      ; [CPU_ALU] |804| 
     956                      .dwpsn  file "../clllc_hal.c",line 973,column 9,is_stmt,isa 0
     957 00000122 28A8          MOV       AH,#4096              ; [CPU_ALU] |973| 
         00000123 1000 
     958 00000124 9A02          MOVB      AL,#2                 ; [CPU_ALU] |973| 
     959              $C$DW$89        .dwtag  DW_TAG_TI_branch
     960                      .dwattr $C$DW$89, DW_AT_low_pc(0x00)
     961                      .dwattr $C$DW$89, DW_AT_name("XBAR_setEPWMMuxConfig")
     962                      .dwattr $C$DW$89, DW_AT_TI_call
     963              
     964 00000125 7640!         LCR       #||XBAR_setEPWMMuxConfig|| ; [CPU_ALU] |973| 
         00000126 0000 
     965                      ; call occurs [#||XBAR_setEPWMMuxConfig||] ; [] |973| 
     966                      .dwpsn  file "C:\Users\ZXC\Documents\mcu project\ti-project\clllc_nonpowerSUITE_F28004x\device\driver
     967 00000127 7622          EALLOW    ; [CPU_ALU] |856| 
     968                      .dwpsn  file "C:\Users\ZXC\Documents\mcu project\ti-project\clllc_nonpowerSUITE_F28004x\device\driver
     969 00000128 BFA9          MOV32     ACC,*(0:0x7a22)       ; [CPU_FPU] |858| 
         00000129 7A22 
     970 0000012a 1AA9          OR        AL,#256               ; [CPU_ALU] |858| 
         0000012b 0100 
     971 0000012c BDA9          MOV32     *(0:0x7a22),ACC       ; [CPU_FPU] |858| 
         0000012d 7A22 
     972                      .dwpsn  file "C:\Users\ZXC\Documents\mcu project\ti-project\clllc_nonpowerSUITE_F28004x\device\driver
     973 0000012e 761A          EDIS      ; [CPU_ALU] |859| 
     974                      .dwpsn  file "../clllc_hal.c",line 978,column 9,is_stmt,isa 0
TMS320C2000 Assembler PC v22.6.0 Mon Sep  2 11:55:45 2024

Copyright (c) 1996-2018 Texas Instruments Incorporated
clllc_hal.asm                                                        PAGE   21

     975 0000012f 9A04          MOVB      AL,#4                 ; [CPU_ALU] |978| 
     976 00000130 28A8          MOV       AH,#4608              ; [CPU_ALU] |978| 
         00000131 1200 
     977              $C$DW$90        .dwtag  DW_TAG_TI_branch
     978                      .dwattr $C$DW$90, DW_AT_low_pc(0x00)
     979                      .dwattr $C$DW$90, DW_AT_name("XBAR_setEPWMMuxConfig")
     980                      .dwattr $C$DW$90, DW_AT_TI_call
     981              
     982 00000132 7640!         LCR       #||XBAR_setEPWMMuxConfig|| ; [CPU_ALU] |978| 
         00000133 0000 
     983                      ; call occurs [#||XBAR_setEPWMMuxConfig||] ; [] |978| 
     984                      .dwpsn  file "C:\Users\ZXC\Documents\mcu project\ti-project\clllc_nonpowerSUITE_F28004x\device\driver
     985 00000134 7622          EALLOW    ; [CPU_ALU] |856| 
     986                      .dwpsn  file "C:\Users\ZXC\Documents\mcu project\ti-project\clllc_nonpowerSUITE_F28004x\device\driver
     987 00000135 BFA9          MOV32     ACC,*(0:0x7a24)       ; [CPU_FPU] |858| 
         00000136 7A24 
     988 00000137 1AA9          OR        AL,#512               ; [CPU_ALU] |858| 
         00000138 0200 
     989 00000139 BDA9          MOV32     *(0:0x7a24),ACC       ; [CPU_FPU] |858| 
         0000013a 7A24 
     990                      .dwpsn  file "C:\Users\ZXC\Documents\mcu project\ti-project\clllc_nonpowerSUITE_F28004x\device\driver
     991 0000013b 761A          EDIS      ; [CPU_ALU] |859| 
     992                      .dwpsn  file "../clllc_hal.c",line 983,column 9,is_stmt,isa 0
     993 0000013c 9A09          MOVB      AL,#9                 ; [CPU_ALU] |983| 
     994              $C$DW$91        .dwtag  DW_TAG_TI_branch
     995                      .dwattr $C$DW$91, DW_AT_low_pc(0x00)
     996                      .dwattr $C$DW$91, DW_AT_name("XBAR_clearInputFlag")
     997                      .dwattr $C$DW$91, DW_AT_TI_call
     998              
     999 0000013d 7640!         LCR       #||XBAR_clearInputFlag|| ; [CPU_ALU] |983| 
         0000013e 0000 
    1000                      ; call occurs [#||XBAR_clearInputFlag||] ; [] |983| 
    1001                      .dwpsn  file "../clllc_hal.c",line 984,column 9,is_stmt,isa 0
    1002 0000013f 9A08          MOVB      AL,#8                 ; [CPU_ALU] |984| 
    1003              $C$DW$92        .dwtag  DW_TAG_TI_branch
    1004                      .dwattr $C$DW$92, DW_AT_low_pc(0x00)
    1005                      .dwattr $C$DW$92, DW_AT_name("XBAR_clearInputFlag")
    1006                      .dwattr $C$DW$92, DW_AT_TI_call
    1007              
    1008 00000140 7640!         LCR       #||XBAR_clearInputFlag|| ; [CPU_ALU] |984| 
         00000141 0000 
    1009                      ; call occurs [#||XBAR_clearInputFlag||] ; [] |984| 
    1010                      .dwpsn  file "C:/Users/ZXC/Documents/mcu project/ti-project/clllc_nonpowerSUITE_F28004x/device/driver
    1011 00000142 7622          EALLOW    ; [CPU_ALU] |5776| 
    1012                      .dwpsn  file "C:/Users/ZXC/Documents/mcu project/ti-project/clllc_nonpowerSUITE_F28004x/device/driver
    1013 00000143 F5A9          MOV       AL,*(0:0x40c7)        ; [CPU_ALU] |5777| 
         00000144 40C7 
    1014 00000145 CCA9          AND       AL,AL,#0xffef         ; [CPU_ALU] |5777| 
         00000146 FFEF 
    1015 00000147 5020          ORB       AL,#0x20              ; [CPU_ALU] |5777| 
    1016 00000148 F4A9          MOV       *(0:0x40c7),AL        ; [CPU_ALU] |5777| 
         00000149 40C7 
    1017                      .dwpsn  file "C:/Users/ZXC/Documents/mcu project/ti-project/clllc_nonpowerSUITE_F28004x/device/driver
    1018 0000014a 761A          EDIS      ; [CPU_ALU] |5780| 
    1019                      .dwpsn  file "C:/Users/ZXC/Documents/mcu project/ti-project/clllc_nonpowerSUITE_F28004x/device/driver
TMS320C2000 Assembler PC v22.6.0 Mon Sep  2 11:55:45 2024

Copyright (c) 1996-2018 Texas Instruments Incorporated
clllc_hal.asm                                                        PAGE   22

    1020 0000014b 9B00          MOVB      AH,#0                 ; [CPU_ALU] |6031| 
    1021                      .dwpsn  file "C:/Users/ZXC/Documents/mcu project/ti-project/clllc_nonpowerSUITE_F28004x/device/driver
    1022 0000014c 9A19          MOVB      AL,#25                ; [CPU_ALU] |6058| 
    1023                      .dwpsn  file "C:/Users/ZXC/Documents/mcu project/ti-project/clllc_nonpowerSUITE_F28004x/device/driver
    1024 0000014d F4A8          MOV       *(0:0x40c9),AH        ; [CPU_ALU] |6031| 
         0000014e 40C9 
    1025                      .dwpsn  file "C:/Users/ZXC/Documents/mcu project/ti-project/clllc_nonpowerSUITE_F28004x/device/driver
    1026 0000014f F4A9          MOV       *(0:0x40cb),AL        ; [CPU_ALU] |6058| 
         00000150 40CB 
    1027                      .dwpsn  file "C:/Users/ZXC/Documents/mcu project/ti-project/clllc_nonpowerSUITE_F28004x/device/driver
    1028 00000151 7622          EALLOW    ; [CPU_ALU] |5659| 
    1029                      .dwpsn  file "C:/Users/ZXC/Documents/mcu project/ti-project/clllc_nonpowerSUITE_F28004x/device/driver
    1030 00000152 F5A9          MOV       AL,*(0:0x40c7)        ; [CPU_ALU] |5660| 
         00000153 40C7 
    1031 00000154 5004          ORB       AL,#0x04              ; [CPU_ALU] |5660| 
    1032 00000155 F4A9          MOV       *(0:0x40c7),AL        ; [CPU_ALU] |5660| 
         00000156 40C7 
    1033                      .dwpsn  file "../clllc_hal.c",line 1054,column 9,is_stmt,isa 0
    1034 00000157 76C0          MOVL      XAR7,#65535           ; [CPU_ALU] |1054| 
         00000158 FFFF 
    1035                      .dwpsn  file "../clllc_hal.c",line 1055,column 9,is_stmt,isa 0
    1036 00000159 7680          MOVL      XAR6,#65535           ; [CPU_ALU] |1055| 
         0000015a FFFF 
    1037                      .dwpsn  file "../clllc_hal.c",line 1056,column 9,is_stmt,isa 0
    1038 0000015b 28A8          MOV       AH,#65535             ; [CPU_ALU] |1056| 
         0000015c FFFF 
    1039                      .dwpsn  file "C:/Users/ZXC/Documents/mcu project/ti-project/clllc_nonpowerSUITE_F28004x/device/driver
    1040 0000015d F5A9          MOV       AL,*(0:0x40c0)        ; [CPU_ALU] |5628| 
         0000015e 40C0 
    1041 0000015f CCA9          AND       AL,AL,#0xff0f         ; [CPU_ALU] |5628| 
         00000160 FF0F 
    1042 00000161 5040          ORB       AL,#0x40              ; [CPU_ALU] |5628| 
    1043 00000162 F4A9          MOV       *(0:0x40c0),AL        ; [CPU_ALU] |5628| 
         00000163 40C0 
    1044 00000164 F5A9          MOV       AL,*(0:0x40c0)        ; [CPU_ALU] |5628| 
         00000165 40C0 
    1045 00000166 18A9          AND       AL,#0x0fff            ; [CPU_ALU] |5628| 
         00000167 0FFF 
    1046 00000168 1AA9          OR        AL,#0x6000            ; [CPU_ALU] |5628| 
         00000169 6000 
    1047 0000016a F4A9          MOV       *(0:0x40c0),AL        ; [CPU_ALU] |5628| 
         0000016b 40C0 
    1048 0000016c F5A9          MOV       AL,*(0:0x41c0)        ; [CPU_ALU] |5628| 
         0000016d 41C0 
    1049 0000016e CCA9          AND       AL,AL,#0xff0f         ; [CPU_ALU] |5628| 
         0000016f FF0F 
    1050 00000170 5060          ORB       AL,#0x60              ; [CPU_ALU] |5628| 
    1051 00000171 F4A9          MOV       *(0:0x41c0),AL        ; [CPU_ALU] |5628| 
         00000172 41C0 
    1052 00000173 F5A9          MOV       AL,*(0:0x41c0)        ; [CPU_ALU] |5628| 
         00000174 41C0 
    1053 00000175 18A9          AND       AL,#0x0fff            ; [CPU_ALU] |5628| 
         00000176 0FFF 
    1054 00000177 1AA9          OR        AL,#0x4000            ; [CPU_ALU] |5628| 
         00000178 4000 
TMS320C2000 Assembler PC v22.6.0 Mon Sep  2 11:55:45 2024

Copyright (c) 1996-2018 Texas Instruments Incorporated
clllc_hal.asm                                                        PAGE   23

    1055 00000179 F4A9          MOV       *(0:0x41c0),AL        ; [CPU_ALU] |5628| 
         0000017a 41C0 
    1056                      .dwpsn  file "C:/Users/ZXC/Documents/mcu project/ti-project/clllc_nonpowerSUITE_F28004x/device/driver
    1057 0000017b F5A9          MOV       AL,*(0:0x4082)        ; [CPU_ALU] |3998| 
         0000017c 4082 
    1058 0000017d CCA9          AND       AL,AL,#0xffe7         ; [CPU_ALU] |3998| 
         0000017e FFE7 
    1059 0000017f 5020          ORB       AL,#0x20              ; [CPU_ALU] |3998| 
    1060 00000180 F4A9          MOV       *(0:0x4082),AL        ; [CPU_ALU] |3998| 
         00000181 4082 
    1061 00000182 F5A9          MOV       AL,*(0:0x4082)        ; [CPU_ALU] |3998| 
         00000183 4082 
    1062 00000184 18A9          AND       AL,#0xf9ff            ; [CPU_ALU] |3998| 
         00000185 F9FF 
    1063 00000186 1AA9          OR        AL,#0x0800            ; [CPU_ALU] |3998| 
         00000187 0800 
    1064 00000188 F4A9          MOV       *(0:0x4082),AL        ; [CPU_ALU] |3998| 
         00000189 4082 
    1065 0000018a F5A9          MOV       AL,*(0:0x4182)        ; [CPU_ALU] |3998| 
         0000018b 4182 
    1066 0000018c CCA9          AND       AL,AL,#0xffe7         ; [CPU_ALU] |3998| 
         0000018d FFE7 
    1067 0000018e 5020          ORB       AL,#0x20              ; [CPU_ALU] |3998| 
    1068 0000018f F4A9          MOV       *(0:0x4182),AL        ; [CPU_ALU] |3998| 
         00000190 4182 
    1069 00000191 F5A9          MOV       AL,*(0:0x4182)        ; [CPU_ALU] |3998| 
         00000192 4182 
    1070 00000193 18A9          AND       AL,#0xf9ff            ; [CPU_ALU] |3998| 
         00000194 F9FF 
    1071 00000195 1AA9          OR        AL,#0x0800            ; [CPU_ALU] |3998| 
         00000196 0800 
    1072 00000197 F4A9          MOV       *(0:0x4182),AL        ; [CPU_ALU] |3998| 
         00000198 4182 
    1073                      .dwpsn  file "C:/Users/ZXC/Documents/mcu project/ti-project/clllc_nonpowerSUITE_F28004x/device/driver
    1074 00000199 F5A9          MOV       AL,*(0:0x4085)        ; [CPU_ALU] |4029| 
         0000019a 4085 
    1075 0000019b 1AA9          OR        AL,#0x8000            ; [CPU_ALU] |4029| 
         0000019c 8000 
    1076 0000019d F4A9          MOV       *(0:0x4085),AL        ; [CPU_ALU] |4029| 
         0000019e 4085 
    1077 0000019f F5A9          MOV       AL,*(0:0x4185)        ; [CPU_ALU] |4029| 
         000001a0 4185 
    1078 000001a1 1AA9          OR        AL,#0x8000            ; [CPU_ALU] |4029| 
         000001a2 8000 
    1079 000001a3 F4A9          MOV       *(0:0x4185),AL        ; [CPU_ALU] |4029| 
         000001a4 4185 
    1080                      .dwpsn  file "../clllc_hal.c",line 1057,column 9,is_stmt,isa 0
    1081 000001a5 28A9          MOV       AL,#65535             ; [CPU_ALU] |1057| 
         000001a6 FFFF 
    1082                      .dwpsn  file "../clllc_hal.c",line 1054,column 9,is_stmt,isa 0
    1083 000001a7 F4A7          MOV       *(0:0x4086),AR7       ; [CPU_ALU] |1054| 
         000001a8 4086 
    1084                      .dwpsn  file "../clllc_hal.c",line 1055,column 9,is_stmt,isa 0
    1085 000001a9 F4A6          MOV       *(0:0x4087),AR6       ; [CPU_ALU] |1055| 
         000001aa 4087 
TMS320C2000 Assembler PC v22.6.0 Mon Sep  2 11:55:45 2024

Copyright (c) 1996-2018 Texas Instruments Incorporated
clllc_hal.asm                                                        PAGE   24

    1086                      .dwpsn  file "../clllc_hal.c",line 1056,column 9,is_stmt,isa 0
    1087 000001ab F4A8          MOV       *(0:0x4186),AH        ; [CPU_ALU] |1056| 
         000001ac 4186 
    1088                      .dwpsn  file "../clllc_hal.c",line 1057,column 9,is_stmt,isa 0
    1089 000001ad F4A9          MOV       *(0:0x4187),AL        ; [CPU_ALU] |1057| 
         000001ae 4187 
    1090                      .dwpsn  file "C:/Users/ZXC/Documents/mcu project/ti-project/clllc_nonpowerSUITE_F28004x/device/driver
    1091 000001af F5A9          MOV       AL,*(0:0x4086)        ; [CPU_ALU] |4219| 
         000001b0 4086 
    1092 000001b1 CCA9          AND       AL,AL,#0xfe3f         ; [CPU_ALU] |4219| 
         000001b2 FE3F 
    1093 000001b3 5080          ORB       AL,#0x80              ; [CPU_ALU] |4219| 
    1094 000001b4 F4A9          MOV       *(0:0x4086),AL        ; [CPU_ALU] |4219| 
         000001b5 4086 
    1095                      .dwpsn  file "C:/Users/ZXC/Documents/mcu project/ti-project/clllc_nonpowerSUITE_F28004x/device/driver
    1096 000001b6 F5A9          MOV       AL,*(0:0x4085)        ; [CPU_ALU] |4223| 
         000001b7 4085 
    1097 000001b8 1AA9          OR        AL,#0x8000            ; [CPU_ALU] |4223| 
         000001b9 8000 
    1098 000001ba F4A9          MOV       *(0:0x4085),AL        ; [CPU_ALU] |4223| 
         000001bb 4085 
    1099                      .dwpsn  file "C:/Users/ZXC/Documents/mcu project/ti-project/clllc_nonpowerSUITE_F28004x/device/driver
    1100 000001bc F5A9          MOV       AL,*(0:0x4087)        ; [CPU_ALU] |4275| 
         000001bd 4087 
    1101 000001be 18A9          AND       AL,#0xf1ff            ; [CPU_ALU] |4275| 
         000001bf F1FF 
    1102 000001c0 1AA9          OR        AL,#0x0400            ; [CPU_ALU] |4275| 
         000001c1 0400 
    1103 000001c2 F4A9          MOV       *(0:0x4087),AL        ; [CPU_ALU] |4275| 
         000001c3 4087 
    1104                      .dwpsn  file "C:/Users/ZXC/Documents/mcu project/ti-project/clllc_nonpowerSUITE_F28004x/device/driver
    1105 000001c4 F5A9          MOV       AL,*(0:0x4085)        ; [CPU_ALU] |4279| 
         000001c5 4085 
    1106 000001c6 1AA9          OR        AL,#0x8000            ; [CPU_ALU] |4279| 
         000001c7 8000 
    1107 000001c8 F4A9          MOV       *(0:0x4085),AL        ; [CPU_ALU] |4279| 
         000001c9 4085 
    1108                      .dwpsn  file "C:/Users/ZXC/Documents/mcu project/ti-project/clllc_nonpowerSUITE_F28004x/device/driver
    1109 000001ca F5A9          MOV       AL,*(0:0x4186)        ; [CPU_ALU] |4219| 
         000001cb 4186 
    1110 000001cc 18A9          AND       AL,#0xf1ff            ; [CPU_ALU] |4219| 
         000001cd F1FF 
    1111 000001ce 1AA9          OR        AL,#0x0400            ; [CPU_ALU] |4219| 
         000001cf 0400 
    1112 000001d0 F4A9          MOV       *(0:0x4186),AL        ; [CPU_ALU] |4219| 
         000001d1 4186 
    1113                      .dwpsn  file "C:/Users/ZXC/Documents/mcu project/ti-project/clllc_nonpowerSUITE_F28004x/device/driver
    1114 000001d2 F5A9          MOV       AL,*(0:0x4185)        ; [CPU_ALU] |4223| 
         000001d3 4185 
    1115 000001d4 1AA9          OR        AL,#0x8000            ; [CPU_ALU] |4223| 
         000001d5 8000 
    1116 000001d6 F4A9          MOV       *(0:0x4185),AL        ; [CPU_ALU] |4223| 
         000001d7 4185 
    1117                      .dwpsn  file "C:/Users/ZXC/Documents/mcu project/ti-project/clllc_nonpowerSUITE_F28004x/device/driver
    1118 000001d8 F5A9          MOV       AL,*(0:0x4187)        ; [CPU_ALU] |4275| 
TMS320C2000 Assembler PC v22.6.0 Mon Sep  2 11:55:45 2024

Copyright (c) 1996-2018 Texas Instruments Incorporated
clllc_hal.asm                                                        PAGE   25

         000001d9 4187 
    1119 000001da CCA9          AND       AL,AL,#0xfe3f         ; [CPU_ALU] |4275| 
         000001db FE3F 
    1120 000001dc 5080          ORB       AL,#0x80              ; [CPU_ALU] |4275| 
    1121 000001dd F4A9          MOV       *(0:0x4187),AL        ; [CPU_ALU] |4275| 
         000001de 4187 
    1122                      .dwpsn  file "C:/Users/ZXC/Documents/mcu project/ti-project/clllc_nonpowerSUITE_F28004x/device/driver
    1123 000001df F5A9          MOV       AL,*(0:0x4185)        ; [CPU_ALU] |4279| 
         000001e0 4185 
    1124 000001e1 1AA9          OR        AL,#0x8000            ; [CPU_ALU] |4279| 
         000001e2 8000 
    1125 000001e3 F4A9          MOV       *(0:0x4185),AL        ; [CPU_ALU] |4279| 
         000001e4 4185 
    1126                      .dwpsn  file "C:/Users/ZXC/Documents/mcu project/ti-project/clllc_nonpowerSUITE_F28004x/device/driver
    1127 000001e5 F5A9          MOV       AL,*(0:0x4097)        ; [CPU_ALU] |4499| 
         000001e6 4097 
    1128 000001e7 18A9          AND       AL,#0x3fff            ; [CPU_ALU] |4499| 
         000001e8 3FFF 
    1129 000001e9 1AA9          OR        AL,#0x8000            ; [CPU_ALU] |4499| 
         000001ea 8000 
    1130 000001eb F4A9          MOV       *(0:0x4097),AL        ; [CPU_ALU] |4499| 
         000001ec 4097 
    1131 000001ed F5A9          MOV       AL,*(0:0x4197)        ; [CPU_ALU] |4499| 
         000001ee 4197 
    1132 000001ef 18A9          AND       AL,#0x3fff            ; [CPU_ALU] |4499| 
         000001f0 3FFF 
    1133 000001f1 1AA9          OR        AL,#0x8000            ; [CPU_ALU] |4499| 
         000001f2 8000 
    1134 000001f3 F4A9          MOV       *(0:0x4197),AL        ; [CPU_ALU] |4499| 
         000001f4 4197 
    1135 000001f5 FFEF          B         ||$C$L5||,UNC         ; [CPU_ALU] 
         000001f6 015A 
    1136                      ; branch occurs ; [] 
    1137 000001f7       ||$C$L4||:    
    1138                      .dwpsn  file "C:/Users/ZXC/Documents/mcu project/ti-project/clllc_nonpowerSUITE_F28004x/device/driver
    1139 000001f7 7622          EALLOW    ; [CPU_ALU] |643| 
    1140                      .dwpsn  file "C:/Users/ZXC/Documents/mcu project/ti-project/clllc_nonpowerSUITE_F28004x/device/driver
    1141 000001f8 8F05          MOVL      XAR4,#382850          ; [CPU_ARAU] |648| 
         000001f9 D782 
    1142 000001fa 06C4          MOVL      ACC,*+XAR4[0]         ; [CPU_ALU] |648| 
    1143 000001fb 18A9          AND       AL,#62463             ; [CPU_ALU] |648| 
         000001fc F3FF 
    1144 000001fd 1AA9          OR        AL,#512               ; [CPU_ALU] |648| 
         000001fe 0200 
    1145 000001ff 1EC4          MOVL      *+XAR4[0],ACC         ; [CPU_ALU] |648| 
    1146                      .dwpsn  file "C:/Users/ZXC/Documents/mcu project/ti-project/clllc_nonpowerSUITE_F28004x/device/driver
    1147 00000200 8F05          MOVL      XAR4,#382852          ; [CPU_ARAU] |687| 
         00000201 D784 
    1148 00000202 06C4          MOVL      ACC,*+XAR4[0]         ; [CPU_ALU] |687| 
    1149 00000203 18A9          AND       AL,#62463             ; [CPU_ALU] |687| 
         00000204 F3FF 
    1150 00000205 1AA9          OR        AL,#512               ; [CPU_ALU] |687| 
         00000206 0200 
    1151 00000207 1EC4          MOVL      *+XAR4[0],ACC         ; [CPU_ALU] |687| 
    1152                      .dwpsn  file "C:/Users/ZXC/Documents/mcu project/ti-project/clllc_nonpowerSUITE_F28004x/device/driver
TMS320C2000 Assembler PC v22.6.0 Mon Sep  2 11:55:45 2024

Copyright (c) 1996-2018 Texas Instruments Incorporated
clllc_hal.asm                                                        PAGE   26

    1153 00000208 F5A9          MOV       AL,*(0:0x5ce0)        ; [CPU_ALU] |258| 
         00000209 5CE0 
    1154 0000020a 1AA9          OR        AL,#0x8000            ; [CPU_ALU] |258| 
         0000020b 8000 
    1155 0000020c F4A9          MOV       *(0:0x5ce0),AL        ; [CPU_ALU] |258| 
         0000020d 5CE0 
    1156                      .dwpsn  file "C:/Users/ZXC/Documents/mcu project/ti-project/clllc_nonpowerSUITE_F28004x/device/driver
    1157 0000020e F5A9          MOV       AL,*(0:0x5ce4)        ; [CPU_ALU] |560| 
         0000020f 5CE4 
    1158 00000210 18A9          AND       AL,#0xff5e            ; [CPU_ALU] |560| 
         00000211 FF5E 
    1159 00000212 F4A9          MOV       *(0:0x5ce4),AL        ; [CPU_ALU] |560| 
         00000213 5CE4 
    1160                      .dwpsn  file "C:/Users/ZXC/Documents/mcu project/ti-project/clllc_nonpowerSUITE_F28004x/device/driver
    1161 00000214 761A          EDIS      ; [CPU_ALU] |564| 
    1162                      .dwpsn  file "C:/Users/ZXC/Documents/mcu project/ti-project/clllc_nonpowerSUITE_F28004x/device/driver
    1163 00000215 28A8          MOV       AH,#2150              ; [CPU_ALU] |594| 
         00000216 0866 
    1164                      .dwpsn  file "C:/Users/ZXC/Documents/mcu project/ti-project/clllc_nonpowerSUITE_F28004x/device/driver
    1165 00000217 28A9          MOV       AL,#1950              ; [CPU_ALU] |624| 
         00000218 079E 
    1166                      .dwpsn  file "C:/Users/ZXC/Documents/mcu project/ti-project/clllc_nonpowerSUITE_F28004x/device/driver
    1167 00000219 F4A8          MOV       *(0:0x5ce6),AH        ; [CPU_ALU] |594| 
         0000021a 5CE6 
    1168                      .dwpsn  file "C:/Users/ZXC/Documents/mcu project/ti-project/clllc_nonpowerSUITE_F28004x/device/driver
    1169 0000021b F4A9          MOV       *(0:0x5cf2),AL        ; [CPU_ALU] |624| 
         0000021c 5CF2 
    1170                      .dwpsn  file "C:/Users/ZXC/Documents/mcu project/ti-project/clllc_nonpowerSUITE_F28004x/device/driver
    1171 0000021d 7622          EALLOW    ; [CPU_ALU] |330| 
    1172                      .dwpsn  file "C:/Users/ZXC/Documents/mcu project/ti-project/clllc_nonpowerSUITE_F28004x/device/driver
    1173 0000021e F5A9          MOV       AL,*(0:0x5ce0)        ; [CPU_ALU] |332| 
         0000021f 5CE0 
    1174 00000220 CCA9          AND       AL,AL,#0xffbe         ; [CPU_ALU] |332| 
         00000221 FFBE 
    1175 00000222 5002          ORB       AL,#0x02              ; [CPU_ALU] |332| 
    1176 00000223 F4A9          MOV       *(0:0x5ce0),AL        ; [CPU_ALU] |332| 
         00000224 5CE0 
    1177                      .dwpsn  file "C:/Users/ZXC/Documents/mcu project/ti-project/clllc_nonpowerSUITE_F28004x/device/driver
    1178 00000225 F5A9          MOV       AL,*(0:0x5ce0)        ; [CPU_ALU] |378| 
         00000226 5CE0 
    1179 00000227 18A9          AND       AL,#0xbcff            ; [CPU_ALU] |378| 
         00000228 BCFF 
    1180 00000229 F4A9          MOV       *(0:0x5ce0),AL        ; [CPU_ALU] |378| 
         0000022a 5CE0 
    1181                      .dwpsn  file "C:/Users/ZXC/Documents/mcu project/ti-project/clllc_nonpowerSUITE_F28004x/device/driver
    1182 0000022b F5A9          MOV       AL,*(0:0x5ce4)        ; [CPU_ALU] |1175| 
         0000022c 5CE4 
    1183 0000022d 18A9          AND       AL,#0xf0ff            ; [CPU_ALU] |1175| 
         0000022e F0FF 
    1184 0000022f 1AA9          OR        AL,#0x0200            ; [CPU_ALU] |1175| 
         00000230 0200 
    1185 00000231 F4A9          MOV       *(0:0x5ce4),AL        ; [CPU_ALU] |1175| 
         00000232 5CE4 
    1186                      .dwpsn  file "C:/Users/ZXC/Documents/mcu project/ti-project/clllc_nonpowerSUITE_F28004x/device/driver
    1187 00000233 F5A9          MOV       AL,*(0:0x5ce4)        ; [CPU_ALU] |1206| 
TMS320C2000 Assembler PC v22.6.0 Mon Sep  2 11:55:45 2024

Copyright (c) 1996-2018 Texas Instruments Incorporated
clllc_hal.asm                                                        PAGE   27

         00000234 5CE4 
    1188 00000235 1AA9          OR        AL,#0x1000            ; [CPU_ALU] |1206| 
         00000236 1000 
    1189 00000237 F4A9          MOV       *(0:0x5ce4),AL        ; [CPU_ALU] |1206| 
         00000238 5CE4 
    1190                      .dwpsn  file "C:/Users/ZXC/Documents/mcu project/ti-project/clllc_nonpowerSUITE_F28004x/device/driver
    1191 00000239 761A          EDIS      ; [CPU_ALU] |1207| 
    1192                      .dwpsn  file "../clllc_hal.c",line 737,column 9,is_stmt,isa 0
    1193 0000023a D501          MOVB      XAR5,#1               ; [CPU_ALU] |737| 
    1194 0000023b D401          MOVB      XAR4,#1               ; [CPU_ALU] |737| 
    1195 0000023c FF20          MOV       ACC,#23776            ; [CPU_ALU] |737| 
         0000023d 5CE0 
    1196              $C$DW$93        .dwtag  DW_TAG_TI_branch
    1197                      .dwattr $C$DW$93, DW_AT_low_pc(0x00)
    1198                      .dwattr $C$DW$93, DW_AT_name("CMPSS_configLatchOnPWMSYNC")
    1199                      .dwattr $C$DW$93, DW_AT_TI_call
    1200              
    1201 0000023e 7640!         LCR       #||CMPSS_configLatchOnPWMSYNC|| ; [CPU_ALU] |737| 
         0000023f 0000 
    1202                      ; call occurs [#||CMPSS_configLatchOnPWMSYNC||] ; [] |737| 
    1203                      .dwpsn  file "../clllc_hal.c",line 739,column 9,is_stmt,isa 0
    1204 00000240 7622          EALLOW    ; [CPU_ALU] |739| 
    1205                      .dwpsn  file "../clllc_hal.c",line 740,column 9,is_stmt,isa 0
    1206 00000241 F5A9          MOV       AL,*(0:0x5ce4)        ; [CPU_ALU] |740| 
         00000242 5CE4 
    1207 00000243 501E          ORB       AL,#0x1e              ; [CPU_ALU] |740| 
    1208 00000244 F4A9          MOV       *(0:0x5ce4),AL        ; [CPU_ALU] |740| 
         00000245 5CE4 
    1209                      .dwpsn  file "../clllc_hal.c",line 741,column 9,is_stmt,isa 0
    1210 00000246 761A          EDIS      ; [CPU_ALU] |741| 
    1211                      .dwpsn  file "../clllc_hal.c",line 746,column 9,is_stmt,isa 0
    1212 00000247 56BF          MOVB      *-SP[1],#1,UNC        ; [CPU_ALU] |746| 
         00000248 0141 
    1213 00000249 D400          MOVB      XAR4,#0               ; [CPU_ALU] |746| 
    1214 0000024a D501          MOVB      XAR5,#1               ; [CPU_ALU] |746| 
    1215 0000024b FF20          MOV       ACC,#23776            ; [CPU_ALU] |746| 
         0000024c 5CE0 
    1216              $C$DW$94        .dwtag  DW_TAG_TI_branch
    1217                      .dwattr $C$DW$94, DW_AT_low_pc(0x00)
    1218                      .dwattr $C$DW$94, DW_AT_name("CMPSS_configFilterHigh")
    1219                      .dwattr $C$DW$94, DW_AT_TI_call
    1220              
    1221 0000024d 7640!         LCR       #||CMPSS_configFilterHigh|| ; [CPU_ALU] |746| 
         0000024e 0000 
    1222                      ; call occurs [#||CMPSS_configFilterHigh||] ; [] |746| 
    1223                      .dwpsn  file "../clllc_hal.c",line 747,column 9,is_stmt,isa 0
    1224 0000024f 56BF          MOVB      *-SP[1],#1,UNC        ; [CPU_ALU] |747| 
         00000250 0141 
    1225 00000251 D400          MOVB      XAR4,#0               ; [CPU_ALU] |747| 
    1226 00000252 D501          MOVB      XAR5,#1               ; [CPU_ALU] |747| 
    1227 00000253 FF20          MOV       ACC,#23776            ; [CPU_ALU] |747| 
         00000254 5CE0 
    1228              $C$DW$95        .dwtag  DW_TAG_TI_branch
    1229                      .dwattr $C$DW$95, DW_AT_low_pc(0x00)
    1230                      .dwattr $C$DW$95, DW_AT_name("CMPSS_configFilterLow")
TMS320C2000 Assembler PC v22.6.0 Mon Sep  2 11:55:45 2024

Copyright (c) 1996-2018 Texas Instruments Incorporated
clllc_hal.asm                                                        PAGE   28

    1231                      .dwattr $C$DW$95, DW_AT_TI_call
    1232              
    1233 00000255 7640!         LCR       #||CMPSS_configFilterLow|| ; [CPU_ALU] |747| 
         00000256 0000 
    1234                      ; call occurs [#||CMPSS_configFilterLow||] ; [] |747| 
    1235                      .dwpsn  file "C:/Users/ZXC/Documents/mcu project/ti-project/clllc_nonpowerSUITE_F28004x/device/driver
    1236 00000257 7622          EALLOW    ; [CPU_ALU] |653| 
    1237                      .dwpsn  file "C:/Users/ZXC/Documents/mcu project/ti-project/clllc_nonpowerSUITE_F28004x/device/driver
    1238 00000258 F5A9          MOV       AL,*(0:0x5cf8)        ; [CPU_ALU] |655| 
         00000259 5CF8 
    1239 0000025a 1AA9          OR        AL,#0x8000            ; [CPU_ALU] |655| 
         0000025b 8000 
    1240 0000025c F4A9          MOV       *(0:0x5cf8),AL        ; [CPU_ALU] |655| 
         0000025d 5CF8 
    1241                      .dwpsn  file "C:/Users/ZXC/Documents/mcu project/ti-project/clllc_nonpowerSUITE_F28004x/device/driver
    1242 0000025e F5A9          MOV       AL,*(0:0x5cf6)        ; [CPU_ALU] |688| 
         0000025f 5CF6 
    1243 00000260 1AA9          OR        AL,#0x8000            ; [CPU_ALU] |688| 
         00000261 8000 
    1244 00000262 F4A9          MOV       *(0:0x5cf6),AL        ; [CPU_ALU] |688| 
         00000263 5CF6 
    1245                      .dwpsn  file "C:/Users/ZXC/Documents/mcu project/ti-project/clllc_nonpowerSUITE_F28004x/device/driver
    1246 00000264 F5A9          MOV       AL,*(0:0x5ce0)        ; [CPU_ALU] |425| 
         00000265 5CE0 
    1247 00000266 503C          ORB       AL,#0x3c              ; [CPU_ALU] |425| 
    1248 00000267 F4A9          MOV       *(0:0x5ce0),AL        ; [CPU_ALU] |425| 
         00000268 5CE0 
    1249                      .dwpsn  file "C:/Users/ZXC/Documents/mcu project/ti-project/clllc_nonpowerSUITE_F28004x/device/driver
    1250 00000269 F5A9          MOV       AL,*(0:0x5ce0)        ; [CPU_ALU] |474| 
         0000026a 5CE0 
    1251 0000026b 1AA9          OR        AL,#0x3c00            ; [CPU_ALU] |474| 
         0000026c 3C00 
    1252 0000026d F4A9          MOV       *(0:0x5ce0),AL        ; [CPU_ALU] |474| 
         0000026e 5CE0 
    1253                      .dwpsn  file "C:/Users/ZXC/Documents/mcu project/ti-project/clllc_nonpowerSUITE_F28004x/device/driver
    1254 0000026f 9A02          MOVB      AL,#2                 ; [CPU_ALU] |1031| 
    1255 00000270 F4A9          MOV       *(0:0x5ce1),AL        ; [CPU_ALU] |1031| 
         00000271 5CE1 
    1256                      .dwpsn  file "C:/Users/ZXC/Documents/mcu project/ti-project/clllc_nonpowerSUITE_F28004x/device/driver
    1257 00000272 F5A9          MOV       AL,*(0:0x5ce3)        ; [CPU_ALU] |772| 
         00000273 5CE3 
    1258 00000274 5002          ORB       AL,#0x02              ; [CPU_ALU] |772| 
    1259 00000275 F4A9          MOV       *(0:0x5ce3),AL        ; [CPU_ALU] |772| 
         00000276 5CE3 
    1260                      .dwpsn  file "C:/Users/ZXC/Documents/mcu project/ti-project/clllc_nonpowerSUITE_F28004x/device/driver
    1261 00000277 F5A9          MOV       AL,*(0:0x5ce3)        ; [CPU_ALU] |802| 
         00000278 5CE3 
    1262 00000279 1AA9          OR        AL,#0x0200            ; [CPU_ALU] |802| 
         0000027a 0200 
    1263 0000027b F4A9          MOV       *(0:0x5ce3),AL        ; [CPU_ALU] |802| 
         0000027c 5CE3 
    1264                      .dwpsn  file "C:/Users/ZXC/Documents/mcu project/ti-project/clllc_nonpowerSUITE_F28004x/device/driver
    1265 0000027d 761A          EDIS      ; [CPU_ALU] |804| 
    1266                      .dwpsn  file "../clllc_hal.c",line 772,column 9,is_stmt,isa 0
    1267 0000027e 28A8          MOV       AH,#3072              ; [CPU_ALU] |772| 
TMS320C2000 Assembler PC v22.6.0 Mon Sep  2 11:55:45 2024

Copyright (c) 1996-2018 Texas Instruments Incorporated
clllc_hal.asm                                                        PAGE   29

         0000027f 0C00 
    1268 00000280 9A02          MOVB      AL,#2                 ; [CPU_ALU] |772| 
    1269              $C$DW$96        .dwtag  DW_TAG_TI_branch
    1270                      .dwattr $C$DW$96, DW_AT_low_pc(0x00)
    1271                      .dwattr $C$DW$96, DW_AT_name("XBAR_setEPWMMuxConfig")
    1272                      .dwattr $C$DW$96, DW_AT_TI_call
    1273              
    1274 00000281 7640!         LCR       #||XBAR_setEPWMMuxConfig|| ; [CPU_ALU] |772| 
         00000282 0000 
    1275                      ; call occurs [#||XBAR_setEPWMMuxConfig||] ; [] |772| 
    1276                      .dwpsn  file "C:\Users\ZXC\Documents\mcu project\ti-project\clllc_nonpowerSUITE_F28004x\device\driver
    1277 00000283 7622          EALLOW    ; [CPU_ALU] |856| 
    1278                      .dwpsn  file "C:\Users\ZXC\Documents\mcu project\ti-project\clllc_nonpowerSUITE_F28004x\device\driver
    1279 00000284 BFA9          MOV32     ACC,*(0:0x7a22)       ; [CPU_FPU] |858| 
         00000285 7A22 
    1280 00000286 5040          ORB       AL,#0x40              ; [CPU_ALU] |858| 
    1281 00000287 BDA9          MOV32     *(0:0x7a22),ACC       ; [CPU_FPU] |858| 
         00000288 7A22 
    1282                      .dwpsn  file "C:\Users\ZXC\Documents\mcu project\ti-project\clllc_nonpowerSUITE_F28004x\device\driver
    1283 00000289 761A          EDIS      ; [CPU_ALU] |859| 
    1284                      .dwpsn  file "../clllc_hal.c",line 777,column 9,is_stmt,isa 0
    1285 0000028a 9A04          MOVB      AL,#4                 ; [CPU_ALU] |777| 
    1286 0000028b 28A8          MOV       AH,#3584              ; [CPU_ALU] |777| 
         0000028c 0E00 
    1287              $C$DW$97        .dwtag  DW_TAG_TI_branch
    1288                      .dwattr $C$DW$97, DW_AT_low_pc(0x00)
    1289                      .dwattr $C$DW$97, DW_AT_name("XBAR_setEPWMMuxConfig")
    1290                      .dwattr $C$DW$97, DW_AT_TI_call
    1291              
    1292 0000028d 7640!         LCR       #||XBAR_setEPWMMuxConfig|| ; [CPU_ALU] |777| 
         0000028e 0000 
    1293                      ; call occurs [#||XBAR_setEPWMMuxConfig||] ; [] |777| 
    1294                      .dwpsn  file "C:\Users\ZXC\Documents\mcu project\ti-project\clllc_nonpowerSUITE_F28004x\device\driver
    1295 0000028f 7622          EALLOW    ; [CPU_ALU] |856| 
    1296                      .dwpsn  file "C:\Users\ZXC\Documents\mcu project\ti-project\clllc_nonpowerSUITE_F28004x\device\driver
    1297 00000290 BFA9          MOV32     ACC,*(0:0x7a24)       ; [CPU_FPU] |858| 
         00000291 7A24 
    1298 00000292 5080          ORB       AL,#0x80              ; [CPU_ALU] |858| 
    1299 00000293 BDA9          MOV32     *(0:0x7a24),ACC       ; [CPU_FPU] |858| 
         00000294 7A24 
    1300                      .dwpsn  file "C:\Users\ZXC\Documents\mcu project\ti-project\clllc_nonpowerSUITE_F28004x\device\driver
    1301 00000295 761A          EDIS      ; [CPU_ALU] |859| 
    1302                      .dwpsn  file "../clllc_hal.c",line 782,column 9,is_stmt,isa 0
    1303 00000296 9A07          MOVB      AL,#7                 ; [CPU_ALU] |782| 
    1304              $C$DW$98        .dwtag  DW_TAG_TI_branch
    1305                      .dwattr $C$DW$98, DW_AT_low_pc(0x00)
    1306                      .dwattr $C$DW$98, DW_AT_name("XBAR_clearInputFlag")
    1307                      .dwattr $C$DW$98, DW_AT_TI_call
    1308              
    1309 00000297 7640!         LCR       #||XBAR_clearInputFlag|| ; [CPU_ALU] |782| 
         00000298 0000 
    1310                      ; call occurs [#||XBAR_clearInputFlag||] ; [] |782| 
    1311                      .dwpsn  file "../clllc_hal.c",line 783,column 9,is_stmt,isa 0
    1312 00000299 9A06          MOVB      AL,#6                 ; [CPU_ALU] |783| 
    1313              $C$DW$99        .dwtag  DW_TAG_TI_branch
TMS320C2000 Assembler PC v22.6.0 Mon Sep  2 11:55:45 2024

Copyright (c) 1996-2018 Texas Instruments Incorporated
clllc_hal.asm                                                        PAGE   30

    1314                      .dwattr $C$DW$99, DW_AT_low_pc(0x00)
    1315                      .dwattr $C$DW$99, DW_AT_name("XBAR_clearInputFlag")
    1316                      .dwattr $C$DW$99, DW_AT_TI_call
    1317              
    1318 0000029a 7640!         LCR       #||XBAR_clearInputFlag|| ; [CPU_ALU] |783| 
         0000029b 0000 
    1319                      ; call occurs [#||XBAR_clearInputFlag||] ; [] |783| 
    1320                      .dwpsn  file "C:/Users/ZXC/Documents/mcu project/ti-project/clllc_nonpowerSUITE_F28004x/device/driver
    1321 0000029c 7622          EALLOW    ; [CPU_ALU] |5776| 
    1322                      .dwpsn  file "C:/Users/ZXC/Documents/mcu project/ti-project/clllc_nonpowerSUITE_F28004x/device/driver
    1323 0000029d F5A9          MOV       AL,*(0:0x42c7)        ; [CPU_ALU] |5777| 
         0000029e 42C7 
    1324 0000029f CCA9          AND       AL,AL,#0xffef         ; [CPU_ALU] |5777| 
         000002a0 FFEF 
    1325 000002a1 5020          ORB       AL,#0x20              ; [CPU_ALU] |5777| 
    1326 000002a2 F4A9          MOV       *(0:0x42c7),AL        ; [CPU_ALU] |5777| 
         000002a3 42C7 
    1327                      .dwpsn  file "C:/Users/ZXC/Documents/mcu project/ti-project/clllc_nonpowerSUITE_F28004x/device/driver
    1328 000002a4 761A          EDIS      ; [CPU_ALU] |5780| 
    1329                      .dwpsn  file "C:/Users/ZXC/Documents/mcu project/ti-project/clllc_nonpowerSUITE_F28004x/device/driver
    1330 000002a5 9B00          MOVB      AH,#0                 ; [CPU_ALU] |6031| 
    1331                      .dwpsn  file "C:/Users/ZXC/Documents/mcu project/ti-project/clllc_nonpowerSUITE_F28004x/device/driver
    1332 000002a6 9A19          MOVB      AL,#25                ; [CPU_ALU] |6058| 
    1333                      .dwpsn  file "C:/Users/ZXC/Documents/mcu project/ti-project/clllc_nonpowerSUITE_F28004x/device/driver
    1334 000002a7 F4A8          MOV       *(0:0x42c9),AH        ; [CPU_ALU] |6031| 
         000002a8 42C9 
    1335                      .dwpsn  file "C:/Users/ZXC/Documents/mcu project/ti-project/clllc_nonpowerSUITE_F28004x/device/driver
    1336 000002a9 F4A9          MOV       *(0:0x42cb),AL        ; [CPU_ALU] |6058| 
         000002aa 42CB 
    1337                      .dwpsn  file "C:/Users/ZXC/Documents/mcu project/ti-project/clllc_nonpowerSUITE_F28004x/device/driver
    1338 000002ab 7622          EALLOW    ; [CPU_ALU] |5659| 
    1339                      .dwpsn  file "C:/Users/ZXC/Documents/mcu project/ti-project/clllc_nonpowerSUITE_F28004x/device/driver
    1340 000002ac F5A9          MOV       AL,*(0:0x42c7)        ; [CPU_ALU] |5660| 
         000002ad 42C7 
    1341 000002ae 5004          ORB       AL,#0x04              ; [CPU_ALU] |5660| 
    1342 000002af F4A9          MOV       *(0:0x42c7),AL        ; [CPU_ALU] |5660| 
         000002b0 42C7 
    1343                      .dwpsn  file "../clllc_hal.c",line 853,column 9,is_stmt,isa 0
    1344 000002b1 76C0          MOVL      XAR7,#65535           ; [CPU_ALU] |853| 
         000002b2 FFFF 
    1345                      .dwpsn  file "../clllc_hal.c",line 854,column 9,is_stmt,isa 0
    1346 000002b3 7680          MOVL      XAR6,#65535           ; [CPU_ALU] |854| 
         000002b4 FFFF 
    1347                      .dwpsn  file "../clllc_hal.c",line 855,column 9,is_stmt,isa 0
    1348 000002b5 28A8          MOV       AH,#65535             ; [CPU_ALU] |855| 
         000002b6 FFFF 
    1349                      .dwpsn  file "C:/Users/ZXC/Documents/mcu project/ti-project/clllc_nonpowerSUITE_F28004x/device/driver
    1350 000002b7 F5A9          MOV       AL,*(0:0x42c0)        ; [CPU_ALU] |5628| 
         000002b8 42C0 
    1351 000002b9 CCA9          AND       AL,AL,#0xff0f         ; [CPU_ALU] |5628| 
         000002ba FF0F 
    1352 000002bb 5040          ORB       AL,#0x40              ; [CPU_ALU] |5628| 
    1353 000002bc F4A9          MOV       *(0:0x42c0),AL        ; [CPU_ALU] |5628| 
         000002bd 42C0 
    1354 000002be F5A9          MOV       AL,*(0:0x42c0)        ; [CPU_ALU] |5628| 
TMS320C2000 Assembler PC v22.6.0 Mon Sep  2 11:55:45 2024

Copyright (c) 1996-2018 Texas Instruments Incorporated
clllc_hal.asm                                                        PAGE   31

         000002bf 42C0 
    1355 000002c0 18A9          AND       AL,#0x0fff            ; [CPU_ALU] |5628| 
         000002c1 0FFF 
    1356 000002c2 1AA9          OR        AL,#0x6000            ; [CPU_ALU] |5628| 
         000002c3 6000 
    1357 000002c4 F4A9          MOV       *(0:0x42c0),AL        ; [CPU_ALU] |5628| 
         000002c5 42C0 
    1358 000002c6 F5A9          MOV       AL,*(0:0x43c0)        ; [CPU_ALU] |5628| 
         000002c7 43C0 
    1359 000002c8 CCA9          AND       AL,AL,#0xff0f         ; [CPU_ALU] |5628| 
         000002c9 FF0F 
    1360 000002ca 5060          ORB       AL,#0x60              ; [CPU_ALU] |5628| 
    1361 000002cb F4A9          MOV       *(0:0x43c0),AL        ; [CPU_ALU] |5628| 
         000002cc 43C0 
    1362 000002cd F5A9          MOV       AL,*(0:0x43c0)        ; [CPU_ALU] |5628| 
         000002ce 43C0 
    1363 000002cf 18A9          AND       AL,#0x0fff            ; [CPU_ALU] |5628| 
         000002d0 0FFF 
    1364 000002d1 1AA9          OR        AL,#0x4000            ; [CPU_ALU] |5628| 
         000002d2 4000 
    1365 000002d3 F4A9          MOV       *(0:0x43c0),AL        ; [CPU_ALU] |5628| 
         000002d4 43C0 
    1366                      .dwpsn  file "C:/Users/ZXC/Documents/mcu project/ti-project/clllc_nonpowerSUITE_F28004x/device/driver
    1367 000002d5 F5A9          MOV       AL,*(0:0x4282)        ; [CPU_ALU] |3998| 
         000002d6 4282 
    1368 000002d7 CCA9          AND       AL,AL,#0xffe7         ; [CPU_ALU] |3998| 
         000002d8 FFE7 
    1369 000002d9 5020          ORB       AL,#0x20              ; [CPU_ALU] |3998| 
    1370 000002da F4A9          MOV       *(0:0x4282),AL        ; [CPU_ALU] |3998| 
         000002db 4282 
    1371 000002dc F5A9          MOV       AL,*(0:0x4282)        ; [CPU_ALU] |3998| 
         000002dd 4282 
    1372 000002de 18A9          AND       AL,#0xf9ff            ; [CPU_ALU] |3998| 
         000002df F9FF 
    1373 000002e0 1AA9          OR        AL,#0x0800            ; [CPU_ALU] |3998| 
         000002e1 0800 
    1374 000002e2 F4A9          MOV       *(0:0x4282),AL        ; [CPU_ALU] |3998| 
         000002e3 4282 
    1375 000002e4 F5A9          MOV       AL,*(0:0x4382)        ; [CPU_ALU] |3998| 
         000002e5 4382 
    1376 000002e6 CCA9          AND       AL,AL,#0xffe7         ; [CPU_ALU] |3998| 
         000002e7 FFE7 
    1377 000002e8 5020          ORB       AL,#0x20              ; [CPU_ALU] |3998| 
    1378 000002e9 F4A9          MOV       *(0:0x4382),AL        ; [CPU_ALU] |3998| 
         000002ea 4382 
    1379 000002eb F5A9          MOV       AL,*(0:0x4382)        ; [CPU_ALU] |3998| 
         000002ec 4382 
    1380 000002ed 18A9          AND       AL,#0xf9ff            ; [CPU_ALU] |3998| 
         000002ee F9FF 
    1381 000002ef 1AA9          OR        AL,#0x0800            ; [CPU_ALU] |3998| 
         000002f0 0800 
    1382 000002f1 F4A9          MOV       *(0:0x4382),AL        ; [CPU_ALU] |3998| 
         000002f2 4382 
    1383                      .dwpsn  file "C:/Users/ZXC/Documents/mcu project/ti-project/clllc_nonpowerSUITE_F28004x/device/driver
    1384 000002f3 F5A9          MOV       AL,*(0:0x4285)        ; [CPU_ALU] |4029| 
TMS320C2000 Assembler PC v22.6.0 Mon Sep  2 11:55:45 2024

Copyright (c) 1996-2018 Texas Instruments Incorporated
clllc_hal.asm                                                        PAGE   32

         000002f4 4285 
    1385 000002f5 1AA9          OR        AL,#0x8000            ; [CPU_ALU] |4029| 
         000002f6 8000 
    1386 000002f7 F4A9          MOV       *(0:0x4285),AL        ; [CPU_ALU] |4029| 
         000002f8 4285 
    1387 000002f9 F5A9          MOV       AL,*(0:0x4385)        ; [CPU_ALU] |4029| 
         000002fa 4385 
    1388 000002fb 1AA9          OR        AL,#0x8000            ; [CPU_ALU] |4029| 
         000002fc 8000 
    1389 000002fd F4A9          MOV       *(0:0x4385),AL        ; [CPU_ALU] |4029| 
         000002fe 4385 
    1390                      .dwpsn  file "../clllc_hal.c",line 856,column 9,is_stmt,isa 0
    1391 000002ff 28A9          MOV       AL,#65535             ; [CPU_ALU] |856| 
         00000300 FFFF 
    1392                      .dwpsn  file "../clllc_hal.c",line 853,column 9,is_stmt,isa 0
    1393 00000301 F4A7          MOV       *(0:0x4286),AR7       ; [CPU_ALU] |853| 
         00000302 4286 
    1394                      .dwpsn  file "../clllc_hal.c",line 854,column 9,is_stmt,isa 0
    1395 00000303 F4A6          MOV       *(0:0x4287),AR6       ; [CPU_ALU] |854| 
         00000304 4287 
    1396                      .dwpsn  file "../clllc_hal.c",line 855,column 9,is_stmt,isa 0
    1397 00000305 F4A8          MOV       *(0:0x4386),AH        ; [CPU_ALU] |855| 
         00000306 4386 
    1398                      .dwpsn  file "../clllc_hal.c",line 856,column 9,is_stmt,isa 0
    1399 00000307 F4A9          MOV       *(0:0x4387),AL        ; [CPU_ALU] |856| 
         00000308 4387 
    1400                      .dwpsn  file "C:/Users/ZXC/Documents/mcu project/ti-project/clllc_nonpowerSUITE_F28004x/device/driver
    1401 00000309 F5A9          MOV       AL,*(0:0x4286)        ; [CPU_ALU] |4219| 
         0000030a 4286 
    1402 0000030b 18A9          AND       AL,#0xf1ff            ; [CPU_ALU] |4219| 
         0000030c F1FF 
    1403 0000030d 1AA9          OR        AL,#0x0400            ; [CPU_ALU] |4219| 
         0000030e 0400 
    1404 0000030f F4A9          MOV       *(0:0x4286),AL        ; [CPU_ALU] |4219| 
         00000310 4286 
    1405                      .dwpsn  file "C:/Users/ZXC/Documents/mcu project/ti-project/clllc_nonpowerSUITE_F28004x/device/driver
    1406 00000311 F5A9          MOV       AL,*(0:0x4285)        ; [CPU_ALU] |4223| 
         00000312 4285 
    1407 00000313 1AA9          OR        AL,#0x8000            ; [CPU_ALU] |4223| 
         00000314 8000 
    1408 00000315 F4A9          MOV       *(0:0x4285),AL        ; [CPU_ALU] |4223| 
         00000316 4285 
    1409                      .dwpsn  file "C:/Users/ZXC/Documents/mcu project/ti-project/clllc_nonpowerSUITE_F28004x/device/driver
    1410 00000317 F5A9          MOV       AL,*(0:0x4287)        ; [CPU_ALU] |4275| 
         00000318 4287 
    1411 00000319 CCA9          AND       AL,AL,#0xfe3f         ; [CPU_ALU] |4275| 
         0000031a FE3F 
    1412 0000031b 5080          ORB       AL,#0x80              ; [CPU_ALU] |4275| 
    1413 0000031c F4A9          MOV       *(0:0x4287),AL        ; [CPU_ALU] |4275| 
         0000031d 4287 
    1414                      .dwpsn  file "C:/Users/ZXC/Documents/mcu project/ti-project/clllc_nonpowerSUITE_F28004x/device/driver
    1415 0000031e F5A9          MOV       AL,*(0:0x4285)        ; [CPU_ALU] |4279| 
         0000031f 4285 
    1416 00000320 1AA9          OR        AL,#0x8000            ; [CPU_ALU] |4279| 
         00000321 8000 
TMS320C2000 Assembler PC v22.6.0 Mon Sep  2 11:55:45 2024

Copyright (c) 1996-2018 Texas Instruments Incorporated
clllc_hal.asm                                                        PAGE   33

    1417 00000322 F4A9          MOV       *(0:0x4285),AL        ; [CPU_ALU] |4279| 
         00000323 4285 
    1418                      .dwpsn  file "C:/Users/ZXC/Documents/mcu project/ti-project/clllc_nonpowerSUITE_F28004x/device/driver
    1419 00000324 F5A9          MOV       AL,*(0:0x4386)        ; [CPU_ALU] |4219| 
         00000325 4386 
    1420 00000326 CCA9          AND       AL,AL,#0xfe3f         ; [CPU_ALU] |4219| 
         00000327 FE3F 
    1421 00000328 5080          ORB       AL,#0x80              ; [CPU_ALU] |4219| 
    1422 00000329 F4A9          MOV       *(0:0x4386),AL        ; [CPU_ALU] |4219| 
         0000032a 4386 
    1423                      .dwpsn  file "C:/Users/ZXC/Documents/mcu project/ti-project/clllc_nonpowerSUITE_F28004x/device/driver
    1424 0000032b F5A9          MOV       AL,*(0:0x4385)        ; [CPU_ALU] |4223| 
         0000032c 4385 
    1425 0000032d 1AA9          OR        AL,#0x8000            ; [CPU_ALU] |4223| 
         0000032e 8000 
    1426 0000032f F4A9          MOV       *(0:0x4385),AL        ; [CPU_ALU] |4223| 
         00000330 4385 
    1427                      .dwpsn  file "C:/Users/ZXC/Documents/mcu project/ti-project/clllc_nonpowerSUITE_F28004x/device/driver
    1428 00000331 F5A9          MOV       AL,*(0:0x4387)        ; [CPU_ALU] |4275| 
         00000332 4387 
    1429 00000333 18A9          AND       AL,#0xf1ff            ; [CPU_ALU] |4275| 
         00000334 F1FF 
    1430 00000335 1AA9          OR        AL,#0x0400            ; [CPU_ALU] |4275| 
         00000336 0400 
    1431 00000337 F4A9          MOV       *(0:0x4387),AL        ; [CPU_ALU] |4275| 
         00000338 4387 
    1432                      .dwpsn  file "C:/Users/ZXC/Documents/mcu project/ti-project/clllc_nonpowerSUITE_F28004x/device/driver
    1433 00000339 F5A9          MOV       AL,*(0:0x4385)        ; [CPU_ALU] |4279| 
         0000033a 4385 
    1434 0000033b 1AA9          OR        AL,#0x8000            ; [CPU_ALU] |4279| 
         0000033c 8000 
    1435 0000033d F4A9          MOV       *(0:0x4385),AL        ; [CPU_ALU] |4279| 
         0000033e 4385 
    1436                      .dwpsn  file "C:/Users/ZXC/Documents/mcu project/ti-project/clllc_nonpowerSUITE_F28004x/device/driver
    1437 0000033f F5A9          MOV       AL,*(0:0x4297)        ; [CPU_ALU] |4499| 
         00000340 4297 
    1438 00000341 18A9          AND       AL,#0x3fff            ; [CPU_ALU] |4499| 
         00000342 3FFF 
    1439 00000343 1AA9          OR        AL,#0x8000            ; [CPU_ALU] |4499| 
         00000344 8000 
    1440 00000345 F4A9          MOV       *(0:0x4297),AL        ; [CPU_ALU] |4499| 
         00000346 4297 
    1441 00000347 F5A9          MOV       AL,*(0:0x4397)        ; [CPU_ALU] |4499| 
         00000348 4397 
    1442 00000349 18A9          AND       AL,#0x3fff            ; [CPU_ALU] |4499| 
         0000034a 3FFF 
    1443 0000034b 1AA9          OR        AL,#0x8000            ; [CPU_ALU] |4499| 
         0000034c 8000 
    1444 0000034d F4A9          MOV       *(0:0x4397),AL        ; [CPU_ALU] |4499| 
         0000034e 4397 
    1445 0000034f       ||$C$L5||:    
    1446                      .dwpsn  file "C:/Users/ZXC/Documents/mcu project/ti-project/clllc_nonpowerSUITE_F28004x/device/driver
    1447 0000034f 761A          EDIS      ; [CPU_ALU] |4502| 
    1448 00000350       ||$C$L6||:    
    1449 00000350 FE82          SUBB      SP,#2                 ; [CPU_ARAU] 
TMS320C2000 Assembler PC v22.6.0 Mon Sep  2 11:55:45 2024

Copyright (c) 1996-2018 Texas Instruments Incorporated
clllc_hal.asm                                                        PAGE   34

    1450                      .dwcfi  cfa_offset, -2
    1451              $C$DW$100       .dwtag  DW_TAG_TI_branch
    1452                      .dwattr $C$DW$100, DW_AT_low_pc(0x00)
    1453                      .dwattr $C$DW$100, DW_AT_TI_return
    1454              
    1455 00000351 0006          LRETR     ; [CPU_ALU] 
    1456                      ; return occurs ; [] 
    1457                      .dwattr $C$DW$83, DW_AT_TI_end_file("../clllc_hal.c")
    1458                      .dwattr $C$DW$83, DW_AT_TI_end_line(0x449)
    1459                      .dwattr $C$DW$83, DW_AT_TI_end_column(0x01)
    1460                      .dwendentry
    1461                      .dwendtag $C$DW$83
    1462              
    1463 00000352               .sect   ".text"
    1464                      .clink
    1465                      .global ||CLLLC_HAL_setupSCI||
    1466              
    1467              $C$DW$101       .dwtag  DW_TAG_subprogram
    1468                      .dwattr $C$DW$101, DW_AT_name("CLLLC_HAL_setupSCI")
    1469                      .dwattr $C$DW$101, DW_AT_low_pc(||CLLLC_HAL_setupSCI||)
    1470                      .dwattr $C$DW$101, DW_AT_high_pc(0x00)
    1471                      .dwattr $C$DW$101, DW_AT_linkage_name("CLLLC_HAL_setupSCI")
    1472                      .dwattr $C$DW$101, DW_AT_external
    1473                      .dwattr $C$DW$101, DW_AT_decl_file("../clllc_hal.c")
    1474                      .dwattr $C$DW$101, DW_AT_decl_line(0x4d5)
    1475                      .dwattr $C$DW$101, DW_AT_decl_column(0x06)
    1476                      .dwattr $C$DW$101, DW_AT_TI_max_frame_size(-8)
    1477                      .dwpsn  file "../clllc_hal.c",line 1238,column 1,is_stmt,address ||CLLLC_HAL_setupSCI||,isa 0
    1478              
    1479                      .dwfde $C$DW$CIE, ||CLLLC_HAL_setupSCI||
    1480              
    1481              ;***************************************************************
    1482              ;* FNAME: CLLLC_HAL_setupSCI            FR SIZE:   6           *
    1483              ;*                                                             *
    1484              ;* FUNCTION ENVIRONMENT                                        *
    1485              ;*                                                             *
    1486              ;* FUNCTION PROPERTIES                                         *
    1487              ;*                            6 Parameter,  0 Auto,  0 SOE     *
    1488              ;***************************************************************
    1489              
    1490 00000352       ||CLLLC_HAL_setupSCI||:
    1491                      .dwcfi  cfa_offset, -2
    1492                      .dwcfi  save_reg_to_mem, 26, 0
    1493 00000352 FE06          ADDB      SP,#6                 ; [CPU_ARAU] 
    1494                      .dwcfi  cfa_offset, -8
    1495                      .dwpsn  file "../clllc_hal.c",line 1242,column 5,is_stmt,isa 0
    1496 00000353 8F08          MOVL      XAR4,#530433          ; [CPU_ARAU] |1242| 
         00000354 1801 
    1497 00000355 A8A9          MOVL      ACC,XAR4              ; [CPU_ALU] |1242| 
    1498              $C$DW$102       .dwtag  DW_TAG_TI_branch
    1499                      .dwattr $C$DW$102, DW_AT_low_pc(0x00)
    1500                      .dwattr $C$DW$102, DW_AT_name("GPIO_setPinConfig")
    1501                      .dwattr $C$DW$102, DW_AT_TI_call
    1502              
    1503 00000356 7640!         LCR       #||GPIO_setPinConfig|| ; [CPU_ALU] |1242| 
TMS320C2000 Assembler PC v22.6.0 Mon Sep  2 11:55:45 2024

Copyright (c) 1996-2018 Texas Instruments Incorporated
clllc_hal.asm                                                        PAGE   35

         00000357 0000 
    1504                      ; call occurs [#||GPIO_setPinConfig||] ; [] |1242| 
    1505                      .dwpsn  file "../clllc_hal.c",line 1243,column 5,is_stmt,isa 0
    1506 00000358 8F08          MOVL      XAR4,#530945          ; [CPU_ARAU] |1243| 
         00000359 1A01 
    1507 0000035a A8A9          MOVL      ACC,XAR4              ; [CPU_ALU] |1243| 
    1508              $C$DW$103       .dwtag  DW_TAG_TI_branch
    1509                      .dwattr $C$DW$103, DW_AT_low_pc(0x00)
    1510                      .dwattr $C$DW$103, DW_AT_name("GPIO_setPinConfig")
    1511                      .dwattr $C$DW$103, DW_AT_TI_call
    1512              
    1513 0000035b 7640!         LCR       #||GPIO_setPinConfig|| ; [CPU_ALU] |1243| 
         0000035c 0000 
    1514                      ; call occurs [#||GPIO_setPinConfig||] ; [] |1243| 
    1515                      .dwpsn  file "../clllc_hal.c",line 1244,column 5,is_stmt,isa 0
    1516 0000035d D403          MOVB      XAR4,#3               ; [CPU_ALU] |1244| 
    1517 0000035e 021C          MOVB      ACC,#28               ; [CPU_ALU] |1244| 
    1518              $C$DW$104       .dwtag  DW_TAG_TI_branch
    1519                      .dwattr $C$DW$104, DW_AT_low_pc(0x00)
    1520                      .dwattr $C$DW$104, DW_AT_name("GPIO_setQualificationMode")
    1521                      .dwattr $C$DW$104, DW_AT_TI_call
    1522              
    1523 0000035f 7640!         LCR       #||GPIO_setQualificationMode|| ; [CPU_ALU] |1244| 
         00000360 0000 
    1524                      ; call occurs [#||GPIO_setQualificationMode||] ; [] |1244| 
    1525                      .dwpsn  file "../clllc_hal.c",line 1245,column 5,is_stmt,isa 0
    1526 00000361 D403          MOVB      XAR4,#3               ; [CPU_ALU] |1245| 
    1527 00000362 021D          MOVB      ACC,#29               ; [CPU_ALU] |1245| 
    1528              $C$DW$105       .dwtag  DW_TAG_TI_branch
    1529                      .dwattr $C$DW$105, DW_AT_low_pc(0x00)
    1530                      .dwattr $C$DW$105, DW_AT_name("GPIO_setQualificationMode")
    1531                      .dwattr $C$DW$105, DW_AT_TI_call
    1532              
    1533 00000363 7640!         LCR       #||GPIO_setQualificationMode|| ; [CPU_ALU] |1245| 
         00000364 0000 
    1534                      ; call occurs [#||GPIO_setQualificationMode||] ; [] |1245| 
    1535                      .dwpsn  file "../clllc_hal.c",line 1246,column 5,is_stmt,isa 0
    1536 00000365 761A          EDIS      ; [CPU_ALU] |1246| 
    1537                      .dwpsn  file "C:/Users/ZXC/Documents/mcu project/ti-project/clllc_nonpowerSUITE_F28004x/device/driver
    1538 00000366 F5A9          MOV       AL,*(0:0x7201)        ; [CPU_ALU] |1317| 
         00000367 7201 
    1539                      .dwpsn  file "../clllc_hal.c",line 1258,column 5,is_stmt,isa 0
    1540 00000368 28A8          MOV       AH,#762               ; [CPU_ALU] |1258| 
         00000369 02FA 
    1541                      .dwpsn  file "C:/Users/ZXC/Documents/mcu project/ti-project/clllc_nonpowerSUITE_F28004x/device/driver
    1542 0000036a 18A9          AND       AL,#0xffdf            ; [CPU_ALU] |1317| 
         0000036b FFDF 
    1543                      .dwpsn  file "../clllc_hal.c",line 1258,column 5,is_stmt,isa 0
    1544 0000036c 8F00          MOVL      XAR4,#57600           ; [CPU_ARAU] |1258| 
         0000036d E100 
    1545 0000036e BE07          MOVB      XAR6,#7               ; [CPU_ALU] |1258| 
    1546                      .dwpsn  file "C:/Users/ZXC/Documents/mcu project/ti-project/clllc_nonpowerSUITE_F28004x/device/driver
    1547 0000036f F4A9          MOV       *(0:0x7201),AL        ; [CPU_ALU] |1317| 
         00000370 7201 
    1548                      .dwpsn  file "C:/Users/ZXC/Documents/mcu project/ti-project/clllc_nonpowerSUITE_F28004x/device/driver
TMS320C2000 Assembler PC v22.6.0 Mon Sep  2 11:55:45 2024

Copyright (c) 1996-2018 Texas Instruments Incorporated
clllc_hal.asm                                                        PAGE   36

    1549 00000371 F5A9          MOV       AL,*(0:0x7201)        ; [CPU_ALU] |1318| 
         00000372 7201 
    1550 00000373 5020          ORB       AL,#0x20              ; [CPU_ALU] |1318| 
    1551 00000374 F4A9          MOV       *(0:0x7201),AL        ; [CPU_ALU] |1318| 
         00000375 7201 
    1552                      .dwpsn  file "../clllc_hal.c",line 1258,column 5,is_stmt,isa 0
    1553 00000376 28A9          MOV       AL,#61568             ; [CPU_ALU] |1258| 
         00000377 F080 
    1554 00000378 1E42          MOVL      *-SP[2],ACC           ; [CPU_ALU] |1258| 
    1555 00000379 A844          MOVL      *-SP[4],XAR4          ; [CPU_ALU] |1258| 
    1556 0000037a FF20          MOV       ACC,#29184            ; [CPU_ALU] |1258| 
         0000037b 7200 
    1557 0000037c C246          MOVL      *-SP[6],XAR6          ; [CPU_ALU] |1258| 
    1558              $C$DW$106       .dwtag  DW_TAG_TI_branch
    1559                      .dwattr $C$DW$106, DW_AT_low_pc(0x00)
    1560                      .dwattr $C$DW$106, DW_AT_name("SCI_setConfig")
    1561                      .dwattr $C$DW$106, DW_AT_TI_call
    1562              
    1563 0000037d 7640!         LCR       #||SCI_setConfig||    ; [CPU_ALU] |1258| 
         0000037e 0000 
    1564                      ; call occurs [#||SCI_setConfig||] ; [] |1258| 
    1565                      .dwpsn  file "C:/Users/ZXC/Documents/mcu project/ti-project/clllc_nonpowerSUITE_F28004x/device/driver
    1566 0000037f F5A9          MOV       AL,*(0:0x7200)        ; [CPU_ALU] |1370| 
         00000380 7200 
    1567 00000381 18A9          AND       AL,#0xffef            ; [CPU_ALU] |1370| 
         00000382 FFEF 
    1568 00000383 F4A9          MOV       *(0:0x7200),AL        ; [CPU_ALU] |1370| 
         00000384 7200 
    1569                      .dwpsn  file "C:/Users/ZXC/Documents/mcu project/ti-project/clllc_nonpowerSUITE_F28004x/device/driver
    1570 00000385 F5A9          MOV       AL,*(0:0x720a)        ; [CPU_ALU] |866| 
         00000386 720A 
    1571 00000387 18A9          AND       AL,#0x7fff            ; [CPU_ALU] |866| 
         00000388 7FFF 
    1572 00000389 F4A9          MOV       *(0:0x720a),AL        ; [CPU_ALU] |866| 
         0000038a 720A 
    1573                      .dwpsn  file "C:/Users/ZXC/Documents/mcu project/ti-project/clllc_nonpowerSUITE_F28004x/device/driver
    1574 0000038b F5A9          MOV       AL,*(0:0x720a)        ; [CPU_ALU] |867| 
         0000038c 720A 
    1575 0000038d 1AA9          OR        AL,#0x8000            ; [CPU_ALU] |867| 
         0000038e 8000 
    1576 0000038f F4A9          MOV       *(0:0x720a),AL        ; [CPU_ALU] |867| 
         00000390 720A 
    1577                      .dwpsn  file "C:/Users/ZXC/Documents/mcu project/ti-project/clllc_nonpowerSUITE_F28004x/device/driver
    1578 00000391 F5A9          MOV       AL,*(0:0x720b)        ; [CPU_ALU] |814| 
         00000392 720B 
    1579 00000393 18A9          AND       AL,#0xdfff            ; [CPU_ALU] |814| 
         00000394 DFFF 
    1580 00000395 F4A9          MOV       *(0:0x720b),AL        ; [CPU_ALU] |814| 
         00000396 720B 
    1581                      .dwpsn  file "C:/Users/ZXC/Documents/mcu project/ti-project/clllc_nonpowerSUITE_F28004x/device/driver
    1582 00000397 F5A9          MOV       AL,*(0:0x720b)        ; [CPU_ALU] |815| 
         00000398 720B 
    1583 00000399 1AA9          OR        AL,#0x2000            ; [CPU_ALU] |815| 
         0000039a 2000 
    1584 0000039b F4A9          MOV       *(0:0x720b),AL        ; [CPU_ALU] |815| 
TMS320C2000 Assembler PC v22.6.0 Mon Sep  2 11:55:45 2024

Copyright (c) 1996-2018 Texas Instruments Incorporated
clllc_hal.asm                                                        PAGE   37

         0000039c 720B 
    1585                      .dwpsn  file "C:/Users/ZXC/Documents/mcu project/ti-project/clllc_nonpowerSUITE_F28004x/device/driver
    1586 0000039d F5A9          MOV       AL,*(0:0x720a)        ; [CPU_ALU] |840| 
         0000039e 720A 
    1587 0000039f 18A9          AND       AL,#0xdfff            ; [CPU_ALU] |840| 
         000003a0 DFFF 
    1588 000003a1 F4A9          MOV       *(0:0x720a),AL        ; [CPU_ALU] |840| 
         000003a2 720A 
    1589                      .dwpsn  file "C:/Users/ZXC/Documents/mcu project/ti-project/clllc_nonpowerSUITE_F28004x/device/driver
    1590 000003a3 F5A6          MOV       AR6,*(0:0x720a)       ; [CPU_ALU] |841| 
         000003a4 720A 
    1591 000003a5 1AA6          OR        AR6,#0x2000           ; [CPU_ALU] |841| 
         000003a6 2000 
    1592                      .dwpsn  file "../clllc_hal.c",line 1271,column 5,is_stmt,isa 0
    1593 000003a7 0218          MOVB      ACC,#24               ; [CPU_ALU] |1271| 
    1594 000003a8 1E42          MOVL      *-SP[2],ACC           ; [CPU_ALU] |1271| 
    1595 000003a9 FF20          MOV       ACC,#29184            ; [CPU_ALU] |1271| 
         000003aa 7200 
    1596                      .dwpsn  file "C:/Users/ZXC/Documents/mcu project/ti-project/clllc_nonpowerSUITE_F28004x/device/driver
    1597 000003ab F4A6          MOV       *(0:0x720a),AR6       ; [CPU_ALU] |841| 
         000003ac 720A 
    1598                      .dwpsn  file "../clllc_hal.c",line 1271,column 5,is_stmt,isa 0
    1599              $C$DW$107       .dwtag  DW_TAG_TI_branch
    1600                      .dwattr $C$DW$107, DW_AT_low_pc(0x00)
    1601                      .dwattr $C$DW$107, DW_AT_name("SCI_clearInterruptStatus")
    1602                      .dwattr $C$DW$107, DW_AT_TI_call
    1603              
    1604 000003ad 7640!         LCR       #||SCI_clearInterruptStatus|| ; [CPU_ALU] |1271| 
         000003ae 0000 
    1605                      ; call occurs [#||SCI_clearInterruptStatus||] ; [] |1271| 
    1606                      .dwpsn  file "C:/Users/ZXC/Documents/mcu project/ti-project/clllc_nonpowerSUITE_F28004x/device/driver
    1607 000003af F5A9          MOV       AL,*(0:0x720a)        ; [CPU_ALU] |734| 
         000003b0 720A 
    1608                      .dwpsn  file "../clllc_hal.c",line 1276,column 5,is_stmt,isa 0
    1609 000003b1 BE06          MOVB      XAR6,#6               ; [CPU_ALU] |1276| 
    1610                      .dwpsn  file "C:/Users/ZXC/Documents/mcu project/ti-project/clllc_nonpowerSUITE_F28004x/device/driver
    1611 000003b2 1AA9          OR        AL,#0x8000            ; [CPU_ALU] |734| 
         000003b3 8000 
    1612 000003b4 F4A9          MOV       *(0:0x720a),AL        ; [CPU_ALU] |734| 
         000003b5 720A 
    1613                      .dwpsn  file "C:/Users/ZXC/Documents/mcu project/ti-project/clllc_nonpowerSUITE_F28004x/device/driver
    1614 000003b6 F5A9          MOV       AL,*(0:0x720a)        ; [CPU_ALU] |735| 
         000003b7 720A 
    1615 000003b8 1AA9          OR        AL,#0x6000            ; [CPU_ALU] |735| 
         000003b9 6000 
    1616                      .dwpsn  file "../clllc_hal.c",line 1276,column 5,is_stmt,isa 0
    1617 000003ba C242          MOVL      *-SP[2],XAR6          ; [CPU_FPU] |1276| 
    1618                      .dwpsn  file "C:/Users/ZXC/Documents/mcu project/ti-project/clllc_nonpowerSUITE_F28004x/device/driver
    1619 000003bb F4A9          MOV       *(0:0x720a),AL        ; [CPU_ALU] |735| 
         000003bc 720A 
    1620                      .dwpsn  file "C:/Users/ZXC/Documents/mcu project/ti-project/clllc_nonpowerSUITE_F28004x/device/driver
    1621 000003bd F5A9          MOV       AL,*(0:0x720b)        ; [CPU_ALU] |736| 
         000003be 720B 
    1622 000003bf 1AA9          OR        AL,#0x2000            ; [CPU_ALU] |736| 
         000003c0 2000 
TMS320C2000 Assembler PC v22.6.0 Mon Sep  2 11:55:45 2024

Copyright (c) 1996-2018 Texas Instruments Incorporated
clllc_hal.asm                                                        PAGE   38

    1623 000003c1 F4A9          MOV       *(0:0x720b),AL        ; [CPU_ALU] |736| 
         000003c2 720B 
    1624                      .dwpsn  file "C:/Users/ZXC/Documents/mcu project/ti-project/clllc_nonpowerSUITE_F28004x/device/driver
    1625 000003c3 F5A9          MOV       AL,*(0:0x7201)        ; [CPU_ALU] |523| 
         000003c4 7201 
    1626 000003c5 5023          ORB       AL,#0x23              ; [CPU_ALU] |523| 
    1627 000003c6 F4A9          MOV       *(0:0x7201),AL        ; [CPU_ALU] |523| 
         000003c7 7201 
    1628                      .dwpsn  file "C:/Users/ZXC/Documents/mcu project/ti-project/clllc_nonpowerSUITE_F28004x/device/driver
    1629 000003c8 F5A9          MOV       AL,*(0:0x7201)        ; [CPU_ALU] |1317| 
         000003c9 7201 
    1630 000003ca 18A9          AND       AL,#0xffdf            ; [CPU_ALU] |1317| 
         000003cb FFDF 
    1631 000003cc F4A9          MOV       *(0:0x7201),AL        ; [CPU_ALU] |1317| 
         000003cd 7201 
    1632                      .dwpsn  file "C:/Users/ZXC/Documents/mcu project/ti-project/clllc_nonpowerSUITE_F28004x/device/driver
    1633 000003ce F5A9          MOV       AL,*(0:0x7201)        ; [CPU_ALU] |1318| 
         000003cf 7201 
    1634 000003d0 5020          ORB       AL,#0x20              ; [CPU_ALU] |1318| 
    1635 000003d1 F4A9          MOV       *(0:0x7201),AL        ; [CPU_ALU] |1318| 
         000003d2 7201 
    1636                      .dwpsn  file "../clllc_hal.c",line 1276,column 5,is_stmt,isa 0
    1637 000003d3 FF20          MOV       ACC,#29184            ; [CPU_ALU] |1276| 
         000003d4 7200 
    1638              $C$DW$108       .dwtag  DW_TAG_TI_branch
    1639                      .dwattr $C$DW$108, DW_AT_low_pc(0x00)
    1640                      .dwattr $C$DW$108, DW_AT_name("SCI_enableInterrupt")
    1641                      .dwattr $C$DW$108, DW_AT_TI_call
    1642              
    1643 000003d5 7640!         LCR       #||SCI_enableInterrupt|| ; [CPU_ALU] |1276| 
         000003d6 0000 
    1644                      ; call occurs [#||SCI_enableInterrupt||] ; [] |1276| 
    1645                      .dwpsn  file "../clllc_hal.c",line 1281,column 5,is_stmt,isa 0
    1646 000003d7 0206          MOVB      ACC,#6                ; [CPU_ALU] |1281| 
    1647 000003d8 1E42          MOVL      *-SP[2],ACC           ; [CPU_ALU] |1281| 
    1648 000003d9 FF20          MOV       ACC,#29184            ; [CPU_ALU] |1281| 
         000003da 7200 
    1649              $C$DW$109       .dwtag  DW_TAG_TI_branch
    1650                      .dwattr $C$DW$109, DW_AT_low_pc(0x00)
    1651                      .dwattr $C$DW$109, DW_AT_name("SCI_clearInterruptStatus")
    1652                      .dwattr $C$DW$109, DW_AT_TI_call
    1653              
    1654 000003db 7640!         LCR       #||SCI_clearInterruptStatus|| ; [CPU_ALU] |1281| 
         000003dc 0000 
    1655                      ; call occurs [#||SCI_clearInterruptStatus||] ; [] |1281| 
    1656 000003dd FE86          SUBB      SP,#6                 ; [CPU_ARAU] 
    1657                      .dwcfi  cfa_offset, -2
    1658              $C$DW$110       .dwtag  DW_TAG_TI_branch
    1659                      .dwattr $C$DW$110, DW_AT_low_pc(0x00)
    1660                      .dwattr $C$DW$110, DW_AT_TI_return
    1661              
    1662 000003de 0006          LRETR     ; [CPU_ALU] 
    1663                      ; return occurs ; [] 
    1664                      .dwattr $C$DW$101, DW_AT_TI_end_file("../clllc_hal.c")
    1665                      .dwattr $C$DW$101, DW_AT_TI_end_line(0x503)
TMS320C2000 Assembler PC v22.6.0 Mon Sep  2 11:55:45 2024

Copyright (c) 1996-2018 Texas Instruments Incorporated
clllc_hal.asm                                                        PAGE   39

    1666                      .dwattr $C$DW$101, DW_AT_TI_end_column(0x01)
    1667                      .dwendentry
    1668                      .dwendtag $C$DW$101
    1669              
    1670 000003df               .sect   ".text"
    1671                      .clink
    1672                      .global ||CLLLC_HAL_setupProfilingGPIO||
    1673              
    1674              $C$DW$111       .dwtag  DW_TAG_subprogram
    1675                      .dwattr $C$DW$111, DW_AT_name("CLLLC_HAL_setupProfilingGPIO")
    1676                      .dwattr $C$DW$111, DW_AT_low_pc(||CLLLC_HAL_setupProfilingGPIO||)
    1677                      .dwattr $C$DW$111, DW_AT_high_pc(0x00)
    1678                      .dwattr $C$DW$111, DW_AT_linkage_name("CLLLC_HAL_setupProfilingGPIO")
    1679                      .dwattr $C$DW$111, DW_AT_external
    1680                      .dwattr $C$DW$111, DW_AT_decl_file("../clllc_hal.c")
    1681                      .dwattr $C$DW$111, DW_AT_decl_line(0x4be)
    1682                      .dwattr $C$DW$111, DW_AT_decl_column(0x06)
    1683                      .dwattr $C$DW$111, DW_AT_TI_max_frame_size(-2)
    1684                      .dwpsn  file "../clllc_hal.c",line 1215,column 1,is_stmt,address ||CLLLC_HAL_setupProfilingGPIO||,isa
    1685              
    1686                      .dwfde $C$DW$CIE, ||CLLLC_HAL_setupProfilingGPIO||
    1687              
    1688              ;***************************************************************
    1689              ;* FNAME: CLLLC_HAL_setupProfilingGPIO  FR SIZE:   0           *
    1690              ;*                                                             *
    1691              ;* FUNCTION ENVIRONMENT                                        *
    1692              ;*                                                             *
    1693              ;* FUNCTION PROPERTIES                                         *
    1694              ;*                            0 Parameter,  0 Auto,  0 SOE     *
    1695              ;***************************************************************
    1696              
    1697 000003df       ||CLLLC_HAL_setupProfilingGPIO||:
    1698                      .dwcfi  cfa_offset, -2
    1699                      .dwcfi  save_reg_to_mem, 26, 0
    1700                      .dwpsn  file "../clllc_hal.c",line 1216,column 5,is_stmt,isa 0
    1701 000003df 0228          MOVB      ACC,#40               ; [CPU_ALU] |1216| 
    1702 000003e0 D401          MOVB      XAR4,#1               ; [CPU_ALU] |1216| 
    1703              $C$DW$112       .dwtag  DW_TAG_TI_branch
    1704                      .dwattr $C$DW$112, DW_AT_low_pc(0x00)
    1705                      .dwattr $C$DW$112, DW_AT_name("GPIO_setDirectionMode")
    1706                      .dwattr $C$DW$112, DW_AT_TI_call
    1707              
    1708 000003e1 7640!         LCR       #||GPIO_setDirectionMode|| ; [CPU_ALU] |1216| 
         000003e2 0000 
    1709                      ; call occurs [#||GPIO_setDirectionMode||] ; [] |1216| 
    1710                      .dwpsn  file "../clllc_hal.c",line 1217,column 5,is_stmt,isa 0
    1711 000003e3 D401          MOVB      XAR4,#1               ; [CPU_ALU] |1217| 
    1712 000003e4 0239          MOVB      ACC,#57               ; [CPU_ALU] |1217| 
    1713              $C$DW$113       .dwtag  DW_TAG_TI_branch
    1714                      .dwattr $C$DW$113, DW_AT_low_pc(0x00)
    1715                      .dwattr $C$DW$113, DW_AT_name("GPIO_setDirectionMode")
    1716                      .dwattr $C$DW$113, DW_AT_TI_call
    1717              
    1718 000003e5 7640!         LCR       #||GPIO_setDirectionMode|| ; [CPU_ALU] |1217| 
         000003e6 0000 
TMS320C2000 Assembler PC v22.6.0 Mon Sep  2 11:55:45 2024

Copyright (c) 1996-2018 Texas Instruments Incorporated
clllc_hal.asm                                                        PAGE   40

    1719                      ; call occurs [#||GPIO_setDirectionMode||] ; [] |1217| 
    1720                      .dwpsn  file "../clllc_hal.c",line 1218,column 5,is_stmt,isa 0
    1721 000003e7 D401          MOVB      XAR4,#1               ; [CPU_ALU] |1218| 
    1722 000003e8 0210          MOVB      ACC,#16               ; [CPU_ALU] |1218| 
    1723              $C$DW$114       .dwtag  DW_TAG_TI_branch
    1724                      .dwattr $C$DW$114, DW_AT_low_pc(0x00)
    1725                      .dwattr $C$DW$114, DW_AT_name("GPIO_setDirectionMode")
    1726                      .dwattr $C$DW$114, DW_AT_TI_call
    1727              
    1728 000003e9 7640!         LCR       #||GPIO_setDirectionMode|| ; [CPU_ALU] |1218| 
         000003ea 0000 
    1729                      ; call occurs [#||GPIO_setDirectionMode||] ; [] |1218| 
    1730                      .dwpsn  file "../clllc_hal.c",line 1220,column 5,is_stmt,isa 0
    1731 000003eb D400          MOVB      XAR4,#0               ; [CPU_ALU] |1220| 
    1732 000003ec 0228          MOVB      ACC,#40               ; [CPU_ALU] |1220| 
    1733              $C$DW$115       .dwtag  DW_TAG_TI_branch
    1734                      .dwattr $C$DW$115, DW_AT_low_pc(0x00)
    1735                      .dwattr $C$DW$115, DW_AT_name("GPIO_setQualificationMode")
    1736                      .dwattr $C$DW$115, DW_AT_TI_call
    1737              
    1738 000003ed 7640!         LCR       #||GPIO_setQualificationMode|| ; [CPU_ALU] |1220| 
         000003ee 0000 
    1739                      ; call occurs [#||GPIO_setQualificationMode||] ; [] |1220| 
    1740                      .dwpsn  file "../clllc_hal.c",line 1221,column 5,is_stmt,isa 0
    1741 000003ef D400          MOVB      XAR4,#0               ; [CPU_ALU] |1221| 
    1742 000003f0 0239          MOVB      ACC,#57               ; [CPU_ALU] |1221| 
    1743              $C$DW$116       .dwtag  DW_TAG_TI_branch
    1744                      .dwattr $C$DW$116, DW_AT_low_pc(0x00)
    1745                      .dwattr $C$DW$116, DW_AT_name("GPIO_setQualificationMode")
    1746                      .dwattr $C$DW$116, DW_AT_TI_call
    1747              
    1748 000003f1 7640!         LCR       #||GPIO_setQualificationMode|| ; [CPU_ALU] |1221| 
         000003f2 0000 
    1749                      ; call occurs [#||GPIO_setQualificationMode||] ; [] |1221| 
    1750                      .dwpsn  file "../clllc_hal.c",line 1222,column 5,is_stmt,isa 0
    1751 000003f3 D400          MOVB      XAR4,#0               ; [CPU_ALU] |1222| 
    1752 000003f4 0210          MOVB      ACC,#16               ; [CPU_ALU] |1222| 
    1753              $C$DW$117       .dwtag  DW_TAG_TI_branch
    1754                      .dwattr $C$DW$117, DW_AT_low_pc(0x00)
    1755                      .dwattr $C$DW$117, DW_AT_name("GPIO_setQualificationMode")
    1756                      .dwattr $C$DW$117, DW_AT_TI_call
    1757              
    1758 000003f5 7640!         LCR       #||GPIO_setQualificationMode|| ; [CPU_ALU] |1222| 
         000003f6 0000 
    1759                      ; call occurs [#||GPIO_setQualificationMode||] ; [] |1222| 
    1760                      .dwpsn  file "../clllc_hal.c",line 1224,column 5,is_stmt,isa 0
    1761 000003f7 FF2C          MOV       ACC,#1121 << 12       ; [CPU_ALU] |1224| 
         000003f8 0461 
    1762              $C$DW$118       .dwtag  DW_TAG_TI_branch
    1763                      .dwattr $C$DW$118, DW_AT_low_pc(0x00)
    1764                      .dwattr $C$DW$118, DW_AT_name("GPIO_setPinConfig")
    1765                      .dwattr $C$DW$118, DW_AT_TI_call
    1766              
    1767 000003f9 7640!         LCR       #||GPIO_setPinConfig|| ; [CPU_ALU] |1224| 
         000003fa 0000 
TMS320C2000 Assembler PC v22.6.0 Mon Sep  2 11:55:45 2024

Copyright (c) 1996-2018 Texas Instruments Incorporated
clllc_hal.asm                                                        PAGE   41

    1768                      ; call occurs [#||GPIO_setPinConfig||] ; [] |1224| 
    1769                      .dwpsn  file "../clllc_hal.c",line 1225,column 5,is_stmt,isa 0
    1770 000003fb FF29          MOV       ACC,#9225 << 9        ; [CPU_ALU] |1225| 
         000003fc 2409 
    1771              $C$DW$119       .dwtag  DW_TAG_TI_branch
    1772                      .dwattr $C$DW$119, DW_AT_low_pc(0x00)
    1773                      .dwattr $C$DW$119, DW_AT_name("GPIO_setPinConfig")
    1774                      .dwattr $C$DW$119, DW_AT_TI_call
    1775              
    1776 000003fd 7640!         LCR       #||GPIO_setPinConfig|| ; [CPU_ALU] |1225| 
         000003fe 0000 
    1777                      ; call occurs [#||GPIO_setPinConfig||] ; [] |1225| 
    1778                      .dwpsn  file "../clllc_hal.c",line 1226,column 5,is_stmt,isa 0
    1779 000003ff 8F08          MOVL      XAR4,#524288          ; [CPU_ARAU] |1226| 
         00000400 0000 
    1780 00000401 A8A9          MOVL      ACC,XAR4              ; [CPU_ALU] |1226| 
    1781              $C$DW$120       .dwtag  DW_TAG_TI_branch
    1782                      .dwattr $C$DW$120, DW_AT_low_pc(0x00)
    1783                      .dwattr $C$DW$120, DW_AT_name("GPIO_setPinConfig")
    1784                      .dwattr $C$DW$120, DW_AT_TI_call
    1785              
    1786 00000402 7640!         LCR       #||GPIO_setPinConfig|| ; [CPU_ALU] |1226| 
         00000403 0000 
    1787                      ; call occurs [#||GPIO_setPinConfig||] ; [] |1226| 
    1788              $C$DW$121       .dwtag  DW_TAG_TI_branch
    1789                      .dwattr $C$DW$121, DW_AT_low_pc(0x00)
    1790                      .dwattr $C$DW$121, DW_AT_TI_return
    1791              
    1792 00000404 0006          LRETR     ; [CPU_ALU] 
    1793                      ; return occurs ; [] 
    1794                      .dwattr $C$DW$111, DW_AT_TI_end_file("../clllc_hal.c")
    1795                      .dwattr $C$DW$111, DW_AT_TI_end_line(0x4d2)
    1796                      .dwattr $C$DW$111, DW_AT_TI_end_column(0x01)
    1797                      .dwendentry
    1798                      .dwendtag $C$DW$111
    1799              
    1800 00000405               .sect   ".text"
    1801                      .clink
    1802                      .global ||CLLLC_HAL_setupPWMpins||
    1803              
    1804              $C$DW$122       .dwtag  DW_TAG_subprogram
    1805                      .dwattr $C$DW$122, DW_AT_name("CLLLC_HAL_setupPWMpins")
    1806                      .dwattr $C$DW$122, DW_AT_low_pc(||CLLLC_HAL_setupPWMpins||)
    1807                      .dwattr $C$DW$122, DW_AT_high_pc(0x00)
    1808                      .dwattr $C$DW$122, DW_AT_linkage_name("CLLLC_HAL_setupPWMpins")
    1809                      .dwattr $C$DW$122, DW_AT_external
    1810                      .dwattr $C$DW$122, DW_AT_decl_file("../clllc_hal.c")
    1811                      .dwattr $C$DW$122, DW_AT_decl_line(0x53e)
    1812                      .dwattr $C$DW$122, DW_AT_decl_column(0x06)
    1813                      .dwattr $C$DW$122, DW_AT_TI_max_frame_size(-6)
    1814                      .dwpsn  file "../clllc_hal.c",line 1343,column 1,is_stmt,address ||CLLLC_HAL_setupPWMpins||,isa 0
    1815              
    1816                      .dwfde $C$DW$CIE, ||CLLLC_HAL_setupPWMpins||
    1817              $C$DW$123       .dwtag  DW_TAG_formal_parameter
    1818                      .dwattr $C$DW$123, DW_AT_name("mode")
TMS320C2000 Assembler PC v22.6.0 Mon Sep  2 11:55:45 2024

Copyright (c) 1996-2018 Texas Instruments Incorporated
clllc_hal.asm                                                        PAGE   42

    1819                      .dwattr $C$DW$123, DW_AT_type(*$C$DW$T$163)
    1820                      .dwattr $C$DW$123, DW_AT_location[DW_OP_reg0]
    1821              
    1822              
    1823              ;***************************************************************
    1824              ;* FNAME: CLLLC_HAL_setupPWMpins        FR SIZE:   4           *
    1825              ;*                                                             *
    1826              ;* FUNCTION ENVIRONMENT                                        *
    1827              ;*                                                             *
    1828              ;* FUNCTION PROPERTIES                                         *
    1829              ;*                            2 Parameter,  0 Auto,  2 SOE     *
    1830              ;***************************************************************
    1831              
    1832              ||CLLLC_HAL_setupPWMpins||:
    1833              ;* AR1   assigned to mode
    1834              $C$DW$124       .dwtag  DW_TAG_variable
    1835                      .dwattr $C$DW$124, DW_AT_name("mode")
    1836                      .dwattr $C$DW$124, DW_AT_type(*$C$DW$T$237)
    1837                      .dwattr $C$DW$124, DW_AT_location[DW_OP_reg6]
    1838              
    1839                      .dwcfi  cfa_offset, -2
    1840                      .dwcfi  save_reg_to_mem, 26, 0
    1841 00000405 B2BD          MOVL      *SP++,XAR1            ; [CPU_ALU] 
    1842                      .dwcfi  save_reg_to_mem, 7, 2
    1843                      .dwcfi  cfa_offset, -4
    1844 00000406 FE02          ADDB      SP,#2                 ; [CPU_ARAU] 
    1845                      .dwcfi  cfa_offset, -6
    1846                      .dwpsn  file "../clllc_hal.c",line 1347,column 5,is_stmt,isa 0
    1847 00000407 5200          CMPB      AL,#0                 ; [CPU_ALU] |1347| 
    1848                      .dwpsn  file "../clllc_hal.c",line 1343,column 1,is_stmt,isa 0
    1849 00000408 59A9          MOVZ      AR1,AL                ; [CPU_FPU] |1343| 
    1850                      .dwpsn  file "../clllc_hal.c",line 1347,column 5,is_stmt,isa 0
    1851 00000409 6021          B         ||$C$L7||,NEQ         ; [CPU_ALU] |1347| 
    1852                      ; branchcc occurs ; [] |1347| 
    1853                      .dwpsn  file "C:/Users/ZXC/Documents/mcu project/ti-project/clllc_nonpowerSUITE_F28004x/device/driver
    1854 0000040a BE01          MOVB      XAR6,#1               ; [CPU_ALU] |462| 
    1855 0000040b 0202          MOVB      ACC,#2                ; [CPU_ALU] |462| 
    1856                      .dwpsn  file "../clllc_hal.c",line 1351,column 9,is_stmt,isa 0
    1857 0000040c 8F06          MOVL      XAR4,#393216          ; [CPU_ARAU] |1351| 
         0000040d 0000 
    1858                      .dwpsn  file "C:/Users/ZXC/Documents/mcu project/ti-project/clllc_nonpowerSUITE_F28004x/device/driver
    1859 0000040e BDA6          MOV32     *(0:0x7f04),XAR6      ; [CPU_FPU] |462| 
         0000040f 7F04 
    1860 00000410 BDA9          MOV32     *(0:0x7f04),ACC       ; [CPU_FPU] |462| 
         00000411 7F04 
    1861                      .dwpsn  file "../clllc_hal.c",line 1351,column 9,is_stmt,isa 0
    1862 00000412 A8A9          MOVL      ACC,XAR4              ; [CPU_ALU] |1351| 
    1863              $C$DW$125       .dwtag  DW_TAG_TI_branch
    1864                      .dwattr $C$DW$125, DW_AT_low_pc(0x00)
    1865                      .dwattr $C$DW$125, DW_AT_name("GPIO_setPinConfig")
    1866                      .dwattr $C$DW$125, DW_AT_TI_call
    1867              
    1868 00000413 7640!         LCR       #||GPIO_setPinConfig|| ; [CPU_ALU] |1351| 
         00000414 0000 
    1869                      ; call occurs [#||GPIO_setPinConfig||] ; [] |1351| 
TMS320C2000 Assembler PC v22.6.0 Mon Sep  2 11:55:45 2024

Copyright (c) 1996-2018 Texas Instruments Incorporated
clllc_hal.asm                                                        PAGE   43

    1870                      .dwpsn  file "../clllc_hal.c",line 1352,column 9,is_stmt,isa 0
    1871 00000415 8F06          MOVL      XAR4,#393728          ; [CPU_ARAU] |1352| 
         00000416 0200 
    1872 00000417 A8A9          MOVL      ACC,XAR4              ; [CPU_ALU] |1352| 
    1873              $C$DW$126       .dwtag  DW_TAG_TI_branch
    1874                      .dwattr $C$DW$126, DW_AT_low_pc(0x00)
    1875                      .dwattr $C$DW$126, DW_AT_name("GPIO_setPinConfig")
    1876                      .dwattr $C$DW$126, DW_AT_TI_call
    1877              
    1878 00000418 7640!         LCR       #||GPIO_setPinConfig|| ; [CPU_ALU] |1352| 
         00000419 0000 
    1879                      ; call occurs [#||GPIO_setPinConfig||] ; [] |1352| 
    1880                      .dwpsn  file "C:/Users/ZXC/Documents/mcu project/ti-project/clllc_nonpowerSUITE_F28004x/device/driver
    1881 0000041a BE04          MOVB      XAR6,#4               ; [CPU_ALU] |462| 
    1882 0000041b 0208          MOVB      ACC,#8                ; [CPU_ALU] |462| 
    1883                      .dwpsn  file "../clllc_hal.c",line 1356,column 9,is_stmt,isa 0
    1884 0000041c 8F06          MOVL      XAR4,#394240          ; [CPU_ARAU] |1356| 
         0000041d 0400 
    1885                      .dwpsn  file "C:/Users/ZXC/Documents/mcu project/ti-project/clllc_nonpowerSUITE_F28004x/device/driver
    1886 0000041e BDA6          MOV32     *(0:0x7f04),XAR6      ; [CPU_FPU] |462| 
         0000041f 7F04 
    1887 00000420 BDA9          MOV32     *(0:0x7f04),ACC       ; [CPU_FPU] |462| 
         00000421 7F04 
    1888                      .dwpsn  file "../clllc_hal.c",line 1356,column 9,is_stmt,isa 0
    1889 00000422 A8A9          MOVL      ACC,XAR4              ; [CPU_ALU] |1356| 
    1890              $C$DW$127       .dwtag  DW_TAG_TI_branch
    1891                      .dwattr $C$DW$127, DW_AT_low_pc(0x00)
    1892                      .dwattr $C$DW$127, DW_AT_name("GPIO_setPinConfig")
    1893                      .dwattr $C$DW$127, DW_AT_TI_call
    1894              
    1895 00000423 7640!         LCR       #||GPIO_setPinConfig|| ; [CPU_ALU] |1356| 
         00000424 0000 
    1896                      ; call occurs [#||GPIO_setPinConfig||] ; [] |1356| 
    1897                      .dwpsn  file "../clllc_hal.c",line 1357,column 9,is_stmt,isa 0
    1898 00000425 8F06          MOVL      XAR4,#394752          ; [CPU_ARAU] |1357| 
         00000426 0600 
    1899 00000427 A8A9          MOVL      ACC,XAR4              ; [CPU_ALU] |1357| 
    1900              $C$DW$128       .dwtag  DW_TAG_TI_branch
    1901                      .dwattr $C$DW$128, DW_AT_low_pc(0x00)
    1902                      .dwattr $C$DW$128, DW_AT_name("GPIO_setPinConfig")
    1903                      .dwattr $C$DW$128, DW_AT_TI_call
    1904              
    1905 00000428 7640!         LCR       #||GPIO_setPinConfig|| ; [CPU_ALU] |1357| 
         00000429 0000 
    1906                      ; call occurs [#||GPIO_setPinConfig||] ; [] |1357| 
    1907 0000042a       ||$C$L7||:    
    1908 0000042a 92A1          MOV       AL,AR1                ; [CPU_ALU] 
    1909                      .dwpsn  file "../clllc_hal.c",line 1363,column 5,is_stmt,isa 0
    1910 0000042b CCA9          AND       AL,AL,#0xfffe         ; [CPU_ALU] |1363| 
         0000042c FFFE 
    1911 0000042d 6021          B         ||$C$L8||,NEQ         ; [CPU_ALU] |1363| 
    1912                      ; branchcc occurs ; [] |1363| 
    1913                      .dwpsn  file "C:/Users/ZXC/Documents/mcu project/ti-project/clllc_nonpowerSUITE_F28004x/device/driver
    1914 0000042e BE10          MOVB      XAR6,#16              ; [CPU_ALU] |462| 
    1915 0000042f 0220          MOVB      ACC,#32               ; [CPU_ALU] |462| 
TMS320C2000 Assembler PC v22.6.0 Mon Sep  2 11:55:45 2024

Copyright (c) 1996-2018 Texas Instruments Incorporated
clllc_hal.asm                                                        PAGE   44

    1916                      .dwpsn  file "../clllc_hal.c",line 1367,column 9,is_stmt,isa 0
    1917 00000430 8F06          MOVL      XAR4,#395264          ; [CPU_ARAU] |1367| 
         00000431 0800 
    1918                      .dwpsn  file "C:/Users/ZXC/Documents/mcu project/ti-project/clllc_nonpowerSUITE_F28004x/device/driver
    1919 00000432 BDA6          MOV32     *(0:0x7f04),XAR6      ; [CPU_FPU] |462| 
         00000433 7F04 
    1920 00000434 BDA9          MOV32     *(0:0x7f04),ACC       ; [CPU_FPU] |462| 
         00000435 7F04 
    1921                      .dwpsn  file "../clllc_hal.c",line 1367,column 9,is_stmt,isa 0
    1922 00000436 A8A9          MOVL      ACC,XAR4              ; [CPU_ALU] |1367| 
    1923              $C$DW$129       .dwtag  DW_TAG_TI_branch
    1924                      .dwattr $C$DW$129, DW_AT_low_pc(0x00)
    1925                      .dwattr $C$DW$129, DW_AT_name("GPIO_setPinConfig")
    1926                      .dwattr $C$DW$129, DW_AT_TI_call
    1927              
    1928 00000437 7640!         LCR       #||GPIO_setPinConfig|| ; [CPU_ALU] |1367| 
         00000438 0000 
    1929                      ; call occurs [#||GPIO_setPinConfig||] ; [] |1367| 
    1930                      .dwpsn  file "../clllc_hal.c",line 1368,column 9,is_stmt,isa 0
    1931 00000439 8F06          MOVL      XAR4,#395776          ; [CPU_ARAU] |1368| 
         0000043a 0A00 
    1932 0000043b A8A9          MOVL      ACC,XAR4              ; [CPU_ALU] |1368| 
    1933              $C$DW$130       .dwtag  DW_TAG_TI_branch
    1934                      .dwattr $C$DW$130, DW_AT_low_pc(0x00)
    1935                      .dwattr $C$DW$130, DW_AT_name("GPIO_setPinConfig")
    1936                      .dwattr $C$DW$130, DW_AT_TI_call
    1937              
    1938 0000043c 7640!         LCR       #||GPIO_setPinConfig|| ; [CPU_ALU] |1368| 
         0000043d 0000 
    1939                      ; call occurs [#||GPIO_setPinConfig||] ; [] |1368| 
    1940                      .dwpsn  file "C:/Users/ZXC/Documents/mcu project/ti-project/clllc_nonpowerSUITE_F28004x/device/driver
    1941 0000043e BE40          MOVB      XAR6,#64              ; [CPU_ALU] |462| 
    1942 0000043f 0280          MOVB      ACC,#128              ; [CPU_ALU] |462| 
    1943                      .dwpsn  file "../clllc_hal.c",line 1372,column 9,is_stmt,isa 0
    1944 00000440 8F06          MOVL      XAR4,#396288          ; [CPU_ARAU] |1372| 
         00000441 0C00 
    1945                      .dwpsn  file "C:/Users/ZXC/Documents/mcu project/ti-project/clllc_nonpowerSUITE_F28004x/device/driver
    1946 00000442 BDA6          MOV32     *(0:0x7f04),XAR6      ; [CPU_FPU] |462| 
         00000443 7F04 
    1947 00000444 BDA9          MOV32     *(0:0x7f04),ACC       ; [CPU_FPU] |462| 
         00000445 7F04 
    1948                      .dwpsn  file "../clllc_hal.c",line 1372,column 9,is_stmt,isa 0
    1949 00000446 A8A9          MOVL      ACC,XAR4              ; [CPU_ALU] |1372| 
    1950              $C$DW$131       .dwtag  DW_TAG_TI_branch
    1951                      .dwattr $C$DW$131, DW_AT_low_pc(0x00)
    1952                      .dwattr $C$DW$131, DW_AT_name("GPIO_setPinConfig")
    1953                      .dwattr $C$DW$131, DW_AT_TI_call
    1954              
    1955 00000447 7640!         LCR       #||GPIO_setPinConfig|| ; [CPU_ALU] |1372| 
         00000448 0000 
    1956                      ; call occurs [#||GPIO_setPinConfig||] ; [] |1372| 
    1957                      .dwpsn  file "../clllc_hal.c",line 1373,column 9,is_stmt,isa 0
    1958 00000449 8F06          MOVL      XAR4,#396800          ; [CPU_ARAU] |1373| 
         0000044a 0E00 
    1959 0000044b A8A9          MOVL      ACC,XAR4              ; [CPU_ALU] |1373| 
TMS320C2000 Assembler PC v22.6.0 Mon Sep  2 11:55:45 2024

Copyright (c) 1996-2018 Texas Instruments Incorporated
clllc_hal.asm                                                        PAGE   45

    1960              $C$DW$132       .dwtag  DW_TAG_TI_branch
    1961                      .dwattr $C$DW$132, DW_AT_low_pc(0x00)
    1962                      .dwattr $C$DW$132, DW_AT_name("GPIO_setPinConfig")
    1963                      .dwattr $C$DW$132, DW_AT_TI_call
    1964              
    1965 0000044c 7640!         LCR       #||GPIO_setPinConfig|| ; [CPU_ALU] |1373| 
         0000044d 0000 
    1966                      ; call occurs [#||GPIO_setPinConfig||] ; [] |1373| 
    1967 0000044e       ||$C$L8||:    
    1968 0000044e 92A1          MOV       AL,AR1                ; [CPU_ALU] 
    1969                      .dwpsn  file "../clllc_hal.c",line 1378,column 5,is_stmt,isa 0
    1970 0000044f 5201          CMPB      AL,#1                 ; [CPU_ALU] |1378| 
    1971 00000450 6105          B         ||$C$L9||,EQ          ; [CPU_ALU] |1378| 
    1972                      ; branchcc occurs ; [] |1378| 
    1973 00000451 5202          CMPB      AL,#2                 ; [CPU_ALU] |1378| 
    1974 00000452 6103          B         ||$C$L9||,EQ          ; [CPU_ALU] |1378| 
    1975                      ; branchcc occurs ; [] |1378| 
    1976 00000453 5203          CMPB      AL,#3                 ; [CPU_ALU] |1378| 
    1977 00000454 6038          B         ||$C$L10||,NEQ        ; [CPU_ALU] |1378| 
    1978                      ; branchcc occurs ; [] |1378| 
    1979 00000455       ||$C$L9||:    
    1980                      .dwpsn  file "../clllc_hal.c",line 1380,column 9,is_stmt,isa 0
    1981 00000455 0200          MOVB      ACC,#0                ; [CPU_ALU] |1380| 
    1982 00000456 D401          MOVB      XAR4,#1               ; [CPU_ALU] |1380| 
    1983              $C$DW$133       .dwtag  DW_TAG_TI_branch
    1984                      .dwattr $C$DW$133, DW_AT_low_pc(0x00)
    1985                      .dwattr $C$DW$133, DW_AT_name("GPIO_setDirectionMode")
    1986                      .dwattr $C$DW$133, DW_AT_TI_call
    1987              
    1988 00000457 7640!         LCR       #||GPIO_setDirectionMode|| ; [CPU_ALU] |1380| 
         00000458 0000 
    1989                      ; call occurs [#||GPIO_setDirectionMode||] ; [] |1380| 
    1990                      .dwpsn  file "../clllc_hal.c",line 1381,column 9,is_stmt,isa 0
    1991 00000459 0200          MOVB      ACC,#0                ; [CPU_ALU] |1381| 
    1992 0000045a 1E42          MOVL      *-SP[2],ACC           ; [CPU_ALU] |1381| 
    1993              $C$DW$134       .dwtag  DW_TAG_TI_branch
    1994                      .dwattr $C$DW$134, DW_AT_low_pc(0x00)
    1995                      .dwattr $C$DW$134, DW_AT_name("GPIO_setPadConfig")
    1996                      .dwattr $C$DW$134, DW_AT_TI_call
    1997              
    1998 0000045b 7640!         LCR       #||GPIO_setPadConfig|| ; [CPU_ALU] |1381| 
         0000045c 0000 
    1999                      ; call occurs [#||GPIO_setPadConfig||] ; [] |1381| 
    2000                      .dwpsn  file "../clllc_hal.c",line 1382,column 9,is_stmt,isa 0
    2001 0000045d 8F06          MOVL      XAR4,#393217          ; [CPU_ARAU] |1382| 
         0000045e 0001 
    2002 0000045f A8A9          MOVL      ACC,XAR4              ; [CPU_ALU] |1382| 
    2003              $C$DW$135       .dwtag  DW_TAG_TI_branch
    2004                      .dwattr $C$DW$135, DW_AT_low_pc(0x00)
    2005                      .dwattr $C$DW$135, DW_AT_name("GPIO_setPinConfig")
    2006                      .dwattr $C$DW$135, DW_AT_TI_call
    2007              
    2008 00000460 7640!         LCR       #||GPIO_setPinConfig|| ; [CPU_ALU] |1382| 
         00000461 0000 
    2009                      ; call occurs [#||GPIO_setPinConfig||] ; [] |1382| 
TMS320C2000 Assembler PC v22.6.0 Mon Sep  2 11:55:45 2024

Copyright (c) 1996-2018 Texas Instruments Incorporated
clllc_hal.asm                                                        PAGE   46

    2010                      .dwpsn  file "../clllc_hal.c",line 1384,column 9,is_stmt,isa 0
    2011 00000462 D401          MOVB      XAR4,#1               ; [CPU_ALU] |1384| 
    2012 00000463 0201          MOVB      ACC,#1                ; [CPU_ALU] |1384| 
    2013              $C$DW$136       .dwtag  DW_TAG_TI_branch
    2014                      .dwattr $C$DW$136, DW_AT_low_pc(0x00)
    2015                      .dwattr $C$DW$136, DW_AT_name("GPIO_setDirectionMode")
    2016                      .dwattr $C$DW$136, DW_AT_TI_call
    2017              
    2018 00000464 7640!         LCR       #||GPIO_setDirectionMode|| ; [CPU_ALU] |1384| 
         00000465 0000 
    2019                      ; call occurs [#||GPIO_setDirectionMode||] ; [] |1384| 
    2020                      .dwpsn  file "../clllc_hal.c",line 1385,column 9,is_stmt,isa 0
    2021 00000466 0200          MOVB      ACC,#0                ; [CPU_ALU] |1385| 
    2022 00000467 1E42          MOVL      *-SP[2],ACC           ; [CPU_ALU] |1385| 
    2023 00000468 0201          MOVB      ACC,#1                ; [CPU_ALU] |1385| 
    2024              $C$DW$137       .dwtag  DW_TAG_TI_branch
    2025                      .dwattr $C$DW$137, DW_AT_low_pc(0x00)
    2026                      .dwattr $C$DW$137, DW_AT_name("GPIO_setPadConfig")
    2027                      .dwattr $C$DW$137, DW_AT_TI_call
    2028              
    2029 00000469 7640!         LCR       #||GPIO_setPadConfig|| ; [CPU_ALU] |1385| 
         0000046a 0000 
    2030                      ; call occurs [#||GPIO_setPadConfig||] ; [] |1385| 
    2031                      .dwpsn  file "../clllc_hal.c",line 1386,column 9,is_stmt,isa 0
    2032 0000046b 8F06          MOVL      XAR4,#393729          ; [CPU_ARAU] |1386| 
         0000046c 0201 
    2033 0000046d A8A9          MOVL      ACC,XAR4              ; [CPU_ALU] |1386| 
    2034              $C$DW$138       .dwtag  DW_TAG_TI_branch
    2035                      .dwattr $C$DW$138, DW_AT_low_pc(0x00)
    2036                      .dwattr $C$DW$138, DW_AT_name("GPIO_setPinConfig")
    2037                      .dwattr $C$DW$138, DW_AT_TI_call
    2038              
    2039 0000046e 7640!         LCR       #||GPIO_setPinConfig|| ; [CPU_ALU] |1386| 
         0000046f 0000 
    2040                      ; call occurs [#||GPIO_setPinConfig||] ; [] |1386| 
    2041                      .dwpsn  file "../clllc_hal.c",line 1388,column 9,is_stmt,isa 0
    2042 00000470 0202          MOVB      ACC,#2                ; [CPU_ALU] |1388| 
    2043 00000471 D401          MOVB      XAR4,#1               ; [CPU_ALU] |1388| 
    2044              $C$DW$139       .dwtag  DW_TAG_TI_branch
    2045                      .dwattr $C$DW$139, DW_AT_low_pc(0x00)
    2046                      .dwattr $C$DW$139, DW_AT_name("GPIO_setDirectionMode")
    2047                      .dwattr $C$DW$139, DW_AT_TI_call
    2048              
    2049 00000472 7640!         LCR       #||GPIO_setDirectionMode|| ; [CPU_ALU] |1388| 
         00000473 0000 
    2050                      ; call occurs [#||GPIO_setDirectionMode||] ; [] |1388| 
    2051                      .dwpsn  file "../clllc_hal.c",line 1389,column 9,is_stmt,isa 0
    2052 00000474 0200          MOVB      ACC,#0                ; [CPU_ALU] |1389| 
    2053 00000475 1E42          MOVL      *-SP[2],ACC           ; [CPU_ALU] |1389| 
    2054 00000476 0202          MOVB      ACC,#2                ; [CPU_ALU] |1389| 
    2055              $C$DW$140       .dwtag  DW_TAG_TI_branch
    2056                      .dwattr $C$DW$140, DW_AT_low_pc(0x00)
    2057                      .dwattr $C$DW$140, DW_AT_name("GPIO_setPadConfig")
    2058                      .dwattr $C$DW$140, DW_AT_TI_call
    2059              
TMS320C2000 Assembler PC v22.6.0 Mon Sep  2 11:55:45 2024

Copyright (c) 1996-2018 Texas Instruments Incorporated
clllc_hal.asm                                                        PAGE   47

    2060 00000477 7640!         LCR       #||GPIO_setPadConfig|| ; [CPU_ALU] |1389| 
         00000478 0000 
    2061                      ; call occurs [#||GPIO_setPadConfig||] ; [] |1389| 
    2062                      .dwpsn  file "../clllc_hal.c",line 1390,column 9,is_stmt,isa 0
    2063 00000479 8F06          MOVL      XAR4,#394241          ; [CPU_ARAU] |1390| 
         0000047a 0401 
    2064 0000047b A8A9          MOVL      ACC,XAR4              ; [CPU_ALU] |1390| 
    2065              $C$DW$141       .dwtag  DW_TAG_TI_branch
    2066                      .dwattr $C$DW$141, DW_AT_low_pc(0x00)
    2067                      .dwattr $C$DW$141, DW_AT_name("GPIO_setPinConfig")
    2068                      .dwattr $C$DW$141, DW_AT_TI_call
    2069              
    2070 0000047c 7640!         LCR       #||GPIO_setPinConfig|| ; [CPU_ALU] |1390| 
         0000047d 0000 
    2071                      ; call occurs [#||GPIO_setPinConfig||] ; [] |1390| 
    2072                      .dwpsn  file "../clllc_hal.c",line 1392,column 9,is_stmt,isa 0
    2073 0000047e D401          MOVB      XAR4,#1               ; [CPU_ALU] |1392| 
    2074 0000047f 0203          MOVB      ACC,#3                ; [CPU_ALU] |1392| 
    2075              $C$DW$142       .dwtag  DW_TAG_TI_branch
    2076                      .dwattr $C$DW$142, DW_AT_low_pc(0x00)
    2077                      .dwattr $C$DW$142, DW_AT_name("GPIO_setDirectionMode")
    2078                      .dwattr $C$DW$142, DW_AT_TI_call
    2079              
    2080 00000480 7640!         LCR       #||GPIO_setDirectionMode|| ; [CPU_ALU] |1392| 
         00000481 0000 
    2081                      ; call occurs [#||GPIO_setDirectionMode||] ; [] |1392| 
    2082                      .dwpsn  file "../clllc_hal.c",line 1393,column 9,is_stmt,isa 0
    2083 00000482 0200          MOVB      ACC,#0                ; [CPU_ALU] |1393| 
    2084 00000483 1E42          MOVL      *-SP[2],ACC           ; [CPU_ALU] |1393| 
    2085 00000484 0203          MOVB      ACC,#3                ; [CPU_ALU] |1393| 
    2086              $C$DW$143       .dwtag  DW_TAG_TI_branch
    2087                      .dwattr $C$DW$143, DW_AT_low_pc(0x00)
    2088                      .dwattr $C$DW$143, DW_AT_name("GPIO_setPadConfig")
    2089                      .dwattr $C$DW$143, DW_AT_TI_call
    2090              
    2091 00000485 7640!         LCR       #||GPIO_setPadConfig|| ; [CPU_ALU] |1393| 
         00000486 0000 
    2092                      ; call occurs [#||GPIO_setPadConfig||] ; [] |1393| 
    2093                      .dwpsn  file "../clllc_hal.c",line 1394,column 9,is_stmt,isa 0
    2094 00000487 8F06          MOVL      XAR4,#394753          ; [CPU_ARAU] |1394| 
         00000488 0601 
    2095 00000489 A8A9          MOVL      ACC,XAR4              ; [CPU_ALU] |1394| 
    2096              $C$DW$144       .dwtag  DW_TAG_TI_branch
    2097                      .dwattr $C$DW$144, DW_AT_low_pc(0x00)
    2098                      .dwattr $C$DW$144, DW_AT_name("GPIO_setPinConfig")
    2099                      .dwattr $C$DW$144, DW_AT_TI_call
    2100              
    2101 0000048a 7640!         LCR       #||GPIO_setPinConfig|| ; [CPU_ALU] |1394| 
         0000048b 0000 
    2102                      ; call occurs [#||GPIO_setPinConfig||] ; [] |1394| 
    2103 0000048c       ||$C$L10||:    
    2104 0000048c 92A1          MOV       AL,AR1                ; [CPU_ALU] 
    2105                      .dwpsn  file "../clllc_hal.c",line 1399,column 5,is_stmt,isa 0
    2106 0000048d 5202          CMPB      AL,#2                 ; [CPU_ALU] |1399| 
    2107 0000048e 6103          B         ||$C$L11||,EQ         ; [CPU_ALU] |1399| 
TMS320C2000 Assembler PC v22.6.0 Mon Sep  2 11:55:45 2024

Copyright (c) 1996-2018 Texas Instruments Incorporated
clllc_hal.asm                                                        PAGE   48

    2108                      ; branchcc occurs ; [] |1399| 
    2109 0000048f 5203          CMPB      AL,#3                 ; [CPU_ALU] |1399| 
    2110 00000490 6039          B         ||$C$L12||,NEQ        ; [CPU_ALU] |1399| 
    2111                      ; branchcc occurs ; [] |1399| 
    2112 00000491       ||$C$L11||:    
    2113                      .dwpsn  file "../clllc_hal.c",line 1402,column 9,is_stmt,isa 0
    2114 00000491 0205          MOVB      ACC,#5                ; [CPU_ALU] |1402| 
    2115 00000492 D401          MOVB      XAR4,#1               ; [CPU_ALU] |1402| 
    2116              $C$DW$145       .dwtag  DW_TAG_TI_branch
    2117                      .dwattr $C$DW$145, DW_AT_low_pc(0x00)
    2118                      .dwattr $C$DW$145, DW_AT_name("GPIO_setDirectionMode")
    2119                      .dwattr $C$DW$145, DW_AT_TI_call
    2120              
    2121 00000493 7640!         LCR       #||GPIO_setDirectionMode|| ; [CPU_ALU] |1402| 
         00000494 0000 
    2122                      ; call occurs [#||GPIO_setDirectionMode||] ; [] |1402| 
    2123                      .dwpsn  file "../clllc_hal.c",line 1403,column 9,is_stmt,isa 0
    2124 00000495 0200          MOVB      ACC,#0                ; [CPU_ALU] |1403| 
    2125 00000496 1E42          MOVL      *-SP[2],ACC           ; [CPU_ALU] |1403| 
    2126 00000497 0205          MOVB      ACC,#5                ; [CPU_ALU] |1403| 
    2127              $C$DW$146       .dwtag  DW_TAG_TI_branch
    2128                      .dwattr $C$DW$146, DW_AT_low_pc(0x00)
    2129                      .dwattr $C$DW$146, DW_AT_name("GPIO_setPadConfig")
    2130                      .dwattr $C$DW$146, DW_AT_TI_call
    2131              
    2132 00000498 7640!         LCR       #||GPIO_setPadConfig|| ; [CPU_ALU] |1403| 
         00000499 0000 
    2133                      ; call occurs [#||GPIO_setPadConfig||] ; [] |1403| 
    2134                      .dwpsn  file "../clllc_hal.c",line 1404,column 9,is_stmt,isa 0
    2135 0000049a 8F06          MOVL      XAR4,#395777          ; [CPU_ARAU] |1404| 
         0000049b 0A01 
    2136 0000049c A8A9          MOVL      ACC,XAR4              ; [CPU_ALU] |1404| 
    2137              $C$DW$147       .dwtag  DW_TAG_TI_branch
    2138                      .dwattr $C$DW$147, DW_AT_low_pc(0x00)
    2139                      .dwattr $C$DW$147, DW_AT_name("GPIO_setPinConfig")
    2140                      .dwattr $C$DW$147, DW_AT_TI_call
    2141              
    2142 0000049d 7640!         LCR       #||GPIO_setPinConfig|| ; [CPU_ALU] |1404| 
         0000049e 0000 
    2143                      ; call occurs [#||GPIO_setPinConfig||] ; [] |1404| 
    2144                      .dwpsn  file "../clllc_hal.c",line 1406,column 9,is_stmt,isa 0
    2145 0000049f D401          MOVB      XAR4,#1               ; [CPU_ALU] |1406| 
    2146 000004a0 0207          MOVB      ACC,#7                ; [CPU_ALU] |1406| 
    2147              $C$DW$148       .dwtag  DW_TAG_TI_branch
    2148                      .dwattr $C$DW$148, DW_AT_low_pc(0x00)
    2149                      .dwattr $C$DW$148, DW_AT_name("GPIO_setDirectionMode")
    2150                      .dwattr $C$DW$148, DW_AT_TI_call
    2151              
    2152 000004a1 7640!         LCR       #||GPIO_setDirectionMode|| ; [CPU_ALU] |1406| 
         000004a2 0000 
    2153                      ; call occurs [#||GPIO_setDirectionMode||] ; [] |1406| 
    2154                      .dwpsn  file "../clllc_hal.c",line 1407,column 9,is_stmt,isa 0
    2155 000004a3 0200          MOVB      ACC,#0                ; [CPU_ALU] |1407| 
    2156 000004a4 1E42          MOVL      *-SP[2],ACC           ; [CPU_ALU] |1407| 
    2157 000004a5 0207          MOVB      ACC,#7                ; [CPU_ALU] |1407| 
TMS320C2000 Assembler PC v22.6.0 Mon Sep  2 11:55:45 2024

Copyright (c) 1996-2018 Texas Instruments Incorporated
clllc_hal.asm                                                        PAGE   49

    2158              $C$DW$149       .dwtag  DW_TAG_TI_branch
    2159                      .dwattr $C$DW$149, DW_AT_low_pc(0x00)
    2160                      .dwattr $C$DW$149, DW_AT_name("GPIO_setPadConfig")
    2161                      .dwattr $C$DW$149, DW_AT_TI_call
    2162              
    2163 000004a6 7640!         LCR       #||GPIO_setPadConfig|| ; [CPU_ALU] |1407| 
         000004a7 0000 
    2164                      ; call occurs [#||GPIO_setPadConfig||] ; [] |1407| 
    2165                      .dwpsn  file "../clllc_hal.c",line 1408,column 9,is_stmt,isa 0
    2166 000004a8 8F06          MOVL      XAR4,#396801          ; [CPU_ARAU] |1408| 
         000004a9 0E01 
    2167 000004aa A8A9          MOVL      ACC,XAR4              ; [CPU_ALU] |1408| 
    2168              $C$DW$150       .dwtag  DW_TAG_TI_branch
    2169                      .dwattr $C$DW$150, DW_AT_low_pc(0x00)
    2170                      .dwattr $C$DW$150, DW_AT_name("GPIO_setPinConfig")
    2171                      .dwattr $C$DW$150, DW_AT_TI_call
    2172              
    2173 000004ab 7640!         LCR       #||GPIO_setPinConfig|| ; [CPU_ALU] |1408| 
         000004ac 0000 
    2174                      ; call occurs [#||GPIO_setPinConfig||] ; [] |1408| 
    2175                      .dwpsn  file "../clllc_hal.c",line 1410,column 9,is_stmt,isa 0
    2176 000004ad 0204          MOVB      ACC,#4                ; [CPU_ALU] |1410| 
    2177 000004ae D401          MOVB      XAR4,#1               ; [CPU_ALU] |1410| 
    2178              $C$DW$151       .dwtag  DW_TAG_TI_branch
    2179                      .dwattr $C$DW$151, DW_AT_low_pc(0x00)
    2180                      .dwattr $C$DW$151, DW_AT_name("GPIO_setDirectionMode")
    2181                      .dwattr $C$DW$151, DW_AT_TI_call
    2182              
    2183 000004af 7640!         LCR       #||GPIO_setDirectionMode|| ; [CPU_ALU] |1410| 
         000004b0 0000 
    2184                      ; call occurs [#||GPIO_setDirectionMode||] ; [] |1410| 
    2185                      .dwpsn  file "../clllc_hal.c",line 1411,column 9,is_stmt,isa 0
    2186 000004b1 0200          MOVB      ACC,#0                ; [CPU_ALU] |1411| 
    2187 000004b2 1E42          MOVL      *-SP[2],ACC           ; [CPU_ALU] |1411| 
    2188 000004b3 0204          MOVB      ACC,#4                ; [CPU_ALU] |1411| 
    2189              $C$DW$152       .dwtag  DW_TAG_TI_branch
    2190                      .dwattr $C$DW$152, DW_AT_low_pc(0x00)
    2191                      .dwattr $C$DW$152, DW_AT_name("GPIO_setPadConfig")
    2192                      .dwattr $C$DW$152, DW_AT_TI_call
    2193              
    2194 000004b4 7640!         LCR       #||GPIO_setPadConfig|| ; [CPU_ALU] |1411| 
         000004b5 0000 
    2195                      ; call occurs [#||GPIO_setPadConfig||] ; [] |1411| 
    2196                      .dwpsn  file "../clllc_hal.c",line 1412,column 9,is_stmt,isa 0
    2197 000004b6 8F06          MOVL      XAR4,#395265          ; [CPU_ARAU] |1412| 
         000004b7 0801 
    2198 000004b8 A8A9          MOVL      ACC,XAR4              ; [CPU_ALU] |1412| 
    2199              $C$DW$153       .dwtag  DW_TAG_TI_branch
    2200                      .dwattr $C$DW$153, DW_AT_low_pc(0x00)
    2201                      .dwattr $C$DW$153, DW_AT_name("GPIO_setPinConfig")
    2202                      .dwattr $C$DW$153, DW_AT_TI_call
    2203              
    2204 000004b9 7640!         LCR       #||GPIO_setPinConfig|| ; [CPU_ALU] |1412| 
         000004ba 0000 
    2205                      ; call occurs [#||GPIO_setPinConfig||] ; [] |1412| 
TMS320C2000 Assembler PC v22.6.0 Mon Sep  2 11:55:45 2024

Copyright (c) 1996-2018 Texas Instruments Incorporated
clllc_hal.asm                                                        PAGE   50

    2206                      .dwpsn  file "../clllc_hal.c",line 1414,column 9,is_stmt,isa 0
    2207 000004bb D401          MOVB      XAR4,#1               ; [CPU_ALU] |1414| 
    2208 000004bc 0206          MOVB      ACC,#6                ; [CPU_ALU] |1414| 
    2209              $C$DW$154       .dwtag  DW_TAG_TI_branch
    2210                      .dwattr $C$DW$154, DW_AT_low_pc(0x00)
    2211                      .dwattr $C$DW$154, DW_AT_name("GPIO_setDirectionMode")
    2212                      .dwattr $C$DW$154, DW_AT_TI_call
    2213              
    2214 000004bd 7640!         LCR       #||GPIO_setDirectionMode|| ; [CPU_ALU] |1414| 
         000004be 0000 
    2215                      ; call occurs [#||GPIO_setDirectionMode||] ; [] |1414| 
    2216                      .dwpsn  file "../clllc_hal.c",line 1415,column 9,is_stmt,isa 0
    2217 000004bf 0200          MOVB      ACC,#0                ; [CPU_ALU] |1415| 
    2218 000004c0 1E42          MOVL      *-SP[2],ACC           ; [CPU_ALU] |1415| 
    2219 000004c1 0206          MOVB      ACC,#6                ; [CPU_ALU] |1415| 
    2220              $C$DW$155       .dwtag  DW_TAG_TI_branch
    2221                      .dwattr $C$DW$155, DW_AT_low_pc(0x00)
    2222                      .dwattr $C$DW$155, DW_AT_name("GPIO_setPadConfig")
    2223                      .dwattr $C$DW$155, DW_AT_TI_call
    2224              
    2225 000004c2 7640!         LCR       #||GPIO_setPadConfig|| ; [CPU_ALU] |1415| 
         000004c3 0000 
    2226                      ; call occurs [#||GPIO_setPadConfig||] ; [] |1415| 
    2227                      .dwpsn  file "../clllc_hal.c",line 1416,column 9,is_stmt,isa 0
    2228 000004c4 8F06          MOVL      XAR4,#396289          ; [CPU_ARAU] |1416| 
         000004c5 0C01 
    2229 000004c6 A8A9          MOVL      ACC,XAR4              ; [CPU_ALU] |1416| 
    2230              $C$DW$156       .dwtag  DW_TAG_TI_branch
    2231                      .dwattr $C$DW$156, DW_AT_low_pc(0x00)
    2232                      .dwattr $C$DW$156, DW_AT_name("GPIO_setPinConfig")
    2233                      .dwattr $C$DW$156, DW_AT_TI_call
    2234              
    2235 000004c7 7640!         LCR       #||GPIO_setPinConfig|| ; [CPU_ALU] |1416| 
         000004c8 0000 
    2236                      ; call occurs [#||GPIO_setPinConfig||] ; [] |1416| 
    2237 000004c9       ||$C$L12||:    
    2238 000004c9 FE82          SUBB      SP,#2                 ; [CPU_ARAU] 
    2239                      .dwcfi  cfa_offset, -4
    2240 000004ca 8BBE          MOVL      XAR1,*--SP            ; [CPU_ALU] 
    2241                      .dwcfi  cfa_offset, -2
    2242                      .dwcfi  restore_reg, 7
    2243              $C$DW$157       .dwtag  DW_TAG_TI_branch
    2244                      .dwattr $C$DW$157, DW_AT_low_pc(0x00)
    2245                      .dwattr $C$DW$157, DW_AT_TI_return
    2246              
    2247 000004cb 0006          LRETR     ; [CPU_ALU] 
    2248                      ; return occurs ; [] 
    2249                      .dwattr $C$DW$122, DW_AT_TI_end_file("../clllc_hal.c")
    2250                      .dwattr $C$DW$122, DW_AT_TI_end_line(0x58a)
    2251                      .dwattr $C$DW$122, DW_AT_TI_end_column(0x01)
    2252                      .dwendentry
    2253                      .dwendtag $C$DW$122
    2254              
    2255 000004cc               .sect   ".text"
    2256                      .clink
TMS320C2000 Assembler PC v22.6.0 Mon Sep  2 11:55:45 2024

Copyright (c) 1996-2018 Texas Instruments Incorporated
clllc_hal.asm                                                        PAGE   51

    2257                      .global ||CLLLC_HAL_setupPWMinUpDownCountMode||
    2258              
    2259              $C$DW$158       .dwtag  DW_TAG_subprogram
    2260                      .dwattr $C$DW$158, DW_AT_name("CLLLC_HAL_setupPWMinUpDownCountMode")
    2261                      .dwattr $C$DW$158, DW_AT_low_pc(||CLLLC_HAL_setupPWMinUpDownCountMode||)
    2262                      .dwattr $C$DW$158, DW_AT_high_pc(0x00)
    2263                      .dwattr $C$DW$158, DW_AT_linkage_name("CLLLC_HAL_setupPWMinUpDownCountMode")
    2264                      .dwattr $C$DW$158, DW_AT_external
    2265                      .dwattr $C$DW$158, DW_AT_decl_file("../clllc_hal.c")
    2266                      .dwattr $C$DW$158, DW_AT_decl_line(0x71a)
    2267                      .dwattr $C$DW$158, DW_AT_decl_column(0x06)
    2268                      .dwattr $C$DW$158, DW_AT_TI_max_frame_size(-4)
    2269                      .dwpsn  file "../clllc_hal.c",line 1821,column 1,is_stmt,address ||CLLLC_HAL_setupPWMinUpDownCountMod
    2270              
    2271                      .dwfde $C$DW$CIE, ||CLLLC_HAL_setupPWMinUpDownCountMode||
    2272              $C$DW$159       .dwtag  DW_TAG_formal_parameter
    2273                      .dwattr $C$DW$159, DW_AT_name("base1")
    2274                      .dwattr $C$DW$159, DW_AT_type(*$C$DW$T$142)
    2275                      .dwattr $C$DW$159, DW_AT_location[DW_OP_reg0]
    2276              
    2277              $C$DW$160       .dwtag  DW_TAG_formal_parameter
    2278                      .dwattr $C$DW$160, DW_AT_name("pwmFreq_Hz")
    2279                      .dwattr $C$DW$160, DW_AT_type(*$C$DW$T$222)
    2280                      .dwattr $C$DW$160, DW_AT_location[DW_OP_regx 0x2b]
    2281              
    2282              $C$DW$161       .dwtag  DW_TAG_formal_parameter
    2283                      .dwattr $C$DW$161, DW_AT_name("pwmSysClkFreq_Hz")
    2284                      .dwattr $C$DW$161, DW_AT_type(*$C$DW$T$222)
    2285                      .dwattr $C$DW$161, DW_AT_location[DW_OP_regx 0x2f]
    2286              
    2287              
    2288              ;***************************************************************
    2289              ;* FNAME: CLLLC_HAL_setupPWMinUpDownCountMode FR SIZE:   2           *
    2290              ;*                                                             *
    2291              ;* FUNCTION ENVIRONMENT                                        *
    2292              ;*                                                             *
    2293              ;* FUNCTION PROPERTIES                                         *
    2294              ;*                            0 Parameter,  0 Auto,  2 SOE     *
    2295              ;***************************************************************
    2296              
    2297              ||CLLLC_HAL_setupPWMinUpDownCountMode||:
    2298              ;* AR5   assigned to $O$C1
    2299              ;* AR4   assigned to base1
    2300              $C$DW$162       .dwtag  DW_TAG_variable
    2301                      .dwattr $C$DW$162, DW_AT_name("base1")
    2302                      .dwattr $C$DW$162, DW_AT_type(*$C$DW$T$246)
    2303                      .dwattr $C$DW$162, DW_AT_location[DW_OP_reg12]
    2304              
    2305              ;* R0    assigned to pwmFreq_Hz
    2306              $C$DW$163       .dwtag  DW_TAG_variable
    2307                      .dwattr $C$DW$163, DW_AT_name("pwmFreq_Hz")
    2308                      .dwattr $C$DW$163, DW_AT_type(*$C$DW$T$248)
    2309                      .dwattr $C$DW$163, DW_AT_location[DW_OP_regx 0x2b]
    2310              
    2311              ;* R1    assigned to pwmSysClkFreq_Hz
TMS320C2000 Assembler PC v22.6.0 Mon Sep  2 11:55:45 2024

Copyright (c) 1996-2018 Texas Instruments Incorporated
clllc_hal.asm                                                        PAGE   52

    2312              $C$DW$164       .dwtag  DW_TAG_variable
    2313                      .dwattr $C$DW$164, DW_AT_name("pwmSysClkFreq_Hz")
    2314                      .dwattr $C$DW$164, DW_AT_type(*$C$DW$T$248)
    2315                      .dwattr $C$DW$164, DW_AT_location[DW_OP_regx 0x2f]
    2316              
    2317                      .dwcfi  cfa_offset, -2
    2318                      .dwcfi  save_reg_to_mem, 26, 0
    2319 000004cc B2BD          MOVL      *SP++,XAR1            ; [CPU_ALU] 
    2320                      .dwcfi  save_reg_to_mem, 7, 2
    2321                      .dwcfi  cfa_offset, -4
    2322                      .dwpsn  file "C:/Users/ZXC/Documents/mcu project/ti-project/clllc_nonpowerSUITE_F28004x/device/driver
    2323 000004cd E274          DIVF32    R0H,R1H,R0H           ; [CPU_FPU] |2185| 
         000004ce 0008 
    2324                      .dwpsn  file "../clllc_hal.c",line 1821,column 1,is_stmt,isa 0
    2325 000004cf 8AA9          MOVL      XAR4,ACC              ; [CPU_ALU] |1821| 
    2326 000004d0 83A9          MOVL      XAR5,ACC              ; [CPU_ALU] |1821| 
    2327 000004d1 2901          CLRC      SXM                   ; [CPU_ALU] 
    2328                      .dwpsn  file "C:/Users/ZXC/Documents/mcu project/ti-project/clllc_nonpowerSUITE_F28004x/device/driver
    2329 000004d2 D163          MOVB      XAR1,#99              ; [CPU_ALU] |2185| 
    2330 000004d3 E68A          F32TOUI32 R0H,R0H               ; [CPU_FPU] |2185| 
         000004d4 0000 
    2331                      .dwpsn  file "C:/Users/ZXC/Documents/mcu project/ti-project/clllc_nonpowerSUITE_F28004x/device/driver
    2332 000004d5 D060          MOVB      XAR0,#96              ; [CPU_ALU] |2151| 
    2333                      .dwpsn  file "C:/Users/ZXC/Documents/mcu project/ti-project/clllc_nonpowerSUITE_F28004x/device/driver
    2334 000004d6 1AC4          OR        *+XAR4[0],#0x0008     ; [CPU_ALU] |1769| 
         000004d7 0008 
    2335                      .dwpsn  file "C:/Users/ZXC/Documents/mcu project/ti-project/clllc_nonpowerSUITE_F28004x/device/driver
    2336 000004d8 BFA9          MOV32     ACC,R0H               ; [CPU_FPU] |2185| 
         000004d9 0F12 
    2337                      .dwpsn  file "C:/Users/ZXC/Documents/mcu project/ti-project/clllc_nonpowerSUITE_F28004x/device/driver
    2338 000004da DD08          ADDB      XAR5,#8               ; [CPU_ALU] |2340| 
    2339                      .dwpsn  file "C:/Users/ZXC/Documents/mcu project/ti-project/clllc_nonpowerSUITE_F28004x/device/driver
    2340 000004db FF40          SFR       ACC,1                 ; [CPU_ALU] |2185| 
    2341 000004dc 969C          MOV       *+XAR4[AR1],AL        ; [CPU_ALU] |2185| 
    2342                      .dwpsn  file "C:/Users/ZXC/Documents/mcu project/ti-project/clllc_nonpowerSUITE_F28004x/device/driver
    2343 000004dd 2BE4          MOV       *+XAR4[4],#0          ; [CPU_ALU] |1552| 
    2344                      .dwpsn  file "../clllc_hal.c",line 1855,column 5,is_stmt,isa 0
    2345 000004de D140          MOVB      XAR1,#64              ; [CPU_ALU] |1855| 
    2346                      .dwpsn  file "C:/Users/ZXC/Documents/mcu project/ti-project/clllc_nonpowerSUITE_F28004x/device/driver
    2347 000004df 0694          MOVL      ACC,*+XAR4[AR0]       ; [CPU_FPU] |2151| 
    2348 000004e0 D060          MOVB      XAR0,#96              ; [CPU_FPU] |2151| 
    2349 000004e1 9100          ANDB      AH,#0                 ; [CPU_ALU] |2151| 
    2350 000004e2 1E94          MOVL      *+XAR4[AR0],ACC       ; [CPU_FPU] |2151| 
    2351                      .dwpsn  file "C:/Users/ZXC/Documents/mcu project/ti-project/clllc_nonpowerSUITE_F28004x/device/driver
    2352 000004e3 D06B          MOVB      XAR0,#107             ; [CPU_FPU] |2445| 
    2353                      .dwpsn  file "C:/Users/ZXC/Documents/mcu project/ti-project/clllc_nonpowerSUITE_F28004x/device/driver
    2354 000004e4 CCC4          AND       AL,*+XAR4[0],#0xfffe  ; [CPU_FPU] |1852| 
         000004e5 FFFE 
    2355 000004e6 5002          ORB       AL,#0x02              ; [CPU_ALU] |1852| 
    2356 000004e7 96C4          MOV       *+XAR4[0],AL          ; [CPU_FPU] |1852| 
    2357                      .dwpsn  file "C:/Users/ZXC/Documents/mcu project/ti-project/clllc_nonpowerSUITE_F28004x/device/driver
    2358 000004e8 18C4          AND       *+XAR4[0],#0xe07f     ; [CPU_FPU] |1630| 
         000004e9 E07F 
    2359                      .dwpsn  file "C:/Users/ZXC/Documents/mcu project/ti-project/clllc_nonpowerSUITE_F28004x/device/driver
    2360 000004ea 18C4          AND       *+XAR4[0],#0xfffb     ; [CPU_FPU] |1821| 
TMS320C2000 Assembler PC v22.6.0 Mon Sep  2 11:55:45 2024

Copyright (c) 1996-2018 Texas Instruments Incorporated
clllc_hal.asm                                                        PAGE   53

         000004eb FFFB 
    2361                      .dwpsn  file "C:/Users/ZXC/Documents/mcu project/ti-project/clllc_nonpowerSUITE_F28004x/device/driver
    2362 000004ec CCC4          AND       AL,*+XAR4[0],#0xffdf  ; [CPU_FPU] |1709| 
         000004ed FFDF 
    2363 000004ee 5010          ORB       AL,#0x10              ; [CPU_ALU] |1709| 
    2364 000004ef 96C4          MOV       *+XAR4[0],AL          ; [CPU_FPU] |1709| 
    2365                      .dwpsn  file "C:/Users/ZXC/Documents/mcu project/ti-project/clllc_nonpowerSUITE_F28004x/device/driver
    2366 000004f0 2B94          MOV       *+XAR4[AR0],#0        ; [CPU_FPU] |2445| 
    2367                      .dwpsn  file "C:/Users/ZXC/Documents/mcu project/ti-project/clllc_nonpowerSUITE_F28004x/device/driver
    2368 000004f1 D040          MOVB      XAR0,#64              ; [CPU_FPU] |2806| 
    2369                      .dwpsn  file "C:/Users/ZXC/Documents/mcu project/ti-project/clllc_nonpowerSUITE_F28004x/device/driver
    2370 000004f2 18C5          AND       *+XAR5[0],#0xf3ec     ; [CPU_ALU] |2340| 
         000004f3 F3EC 
    2371                      .dwpsn  file "../clllc_hal.c",line 1855,column 5,is_stmt,isa 0
    2372 000004f4 2B9C          MOV       *+XAR4[AR1],#0        ; [CPU_ALU] |1855| 
    2373                      .dwpsn  file "C:/Users/ZXC/Documents/mcu project/ti-project/clllc_nonpowerSUITE_F28004x/device/driver
    2374 000004f5 D140          MOVB      XAR1,#64              ; [CPU_ALU] |2806| 
    2375 000004f6 CC94          AND       AL,*+XAR4[AR0],#0xffdf ; [CPU_ALU] |2806| 
         000004f7 FFDF 
    2376 000004f8 5010          ORB       AL,#0x10              ; [CPU_ALU] |2806| 
    2377 000004f9 D040          MOVB      XAR0,#64              ; [CPU_ALU] |2806| 
    2378 000004fa 969C          MOV       *+XAR4[AR1],AL        ; [CPU_ALU] |2806| 
    2379 000004fb CC94          AND       AL,*+XAR4[AR0],#0xfffe ; [CPU_ALU] |2806| 
         000004fc FFFE 
    2380 000004fd D040          MOVB      XAR0,#64              ; [CPU_ALU] |2806| 
    2381 000004fe 5002          ORB       AL,#0x02              ; [CPU_ALU] |2806| 
    2382 000004ff 9694          MOV       *+XAR4[AR0],AL        ; [CPU_ALU] |2806| 
    2383 00000500 8BBE          MOVL      XAR1,*--SP            ; [CPU_ALU] 
    2384                      .dwcfi  cfa_offset, -2
    2385                      .dwcfi  restore_reg, 7
    2386              $C$DW$165       .dwtag  DW_TAG_TI_branch
    2387                      .dwattr $C$DW$165, DW_AT_low_pc(0x00)
    2388                      .dwattr $C$DW$165, DW_AT_TI_return
    2389              
    2390 00000501 0006          LRETR     ; [CPU_ALU] 
    2391                      ; return occurs ; [] 
    2392                      .dwattr $C$DW$158, DW_AT_TI_end_file("../clllc_hal.c")
    2393                      .dwattr $C$DW$158, DW_AT_TI_end_line(0x747)
    2394                      .dwattr $C$DW$158, DW_AT_TI_end_column(0x01)
    2395                      .dwendentry
    2396                      .dwendtag $C$DW$158
    2397              
    2398 00000502               .sect   ".text"
    2399                      .clink
    2400                      .global ||CLLLC_HAL_setupHRPWMinUpDownCount2ChAsymmetricMode||
    2401              
    2402              $C$DW$166       .dwtag  DW_TAG_subprogram
    2403                      .dwattr $C$DW$166, DW_AT_name("CLLLC_HAL_setupHRPWMinUpDownCount2ChAsymmetricMode")
    2404                      .dwattr $C$DW$166, DW_AT_low_pc(||CLLLC_HAL_setupHRPWMinUpDownCount2ChAsymmetricMode||)
    2405                      .dwattr $C$DW$166, DW_AT_high_pc(0x00)
    2406                      .dwattr $C$DW$166, DW_AT_linkage_name("CLLLC_HAL_setupHRPWMinUpDownCount2ChAsymmetricMode")
    2407                      .dwattr $C$DW$166, DW_AT_external
    2408                      .dwattr $C$DW$166, DW_AT_decl_file("../clllc_hal.c")
    2409                      .dwattr $C$DW$166, DW_AT_decl_line(0x7e4)
    2410                      .dwattr $C$DW$166, DW_AT_decl_column(0x06)
TMS320C2000 Assembler PC v22.6.0 Mon Sep  2 11:55:45 2024

Copyright (c) 1996-2018 Texas Instruments Incorporated
clllc_hal.asm                                                        PAGE   54

    2411                      .dwattr $C$DW$166, DW_AT_TI_max_frame_size(-4)
    2412                      .dwpsn  file "../clllc_hal.c",line 2023,column 1,is_stmt,address ||CLLLC_HAL_setupHRPWMinUpDownCount2
    2413              
    2414                      .dwfde $C$DW$CIE, ||CLLLC_HAL_setupHRPWMinUpDownCount2ChAsymmetricMode||
    2415              $C$DW$167       .dwtag  DW_TAG_formal_parameter
    2416                      .dwattr $C$DW$167, DW_AT_name("base1")
    2417                      .dwattr $C$DW$167, DW_AT_type(*$C$DW$T$142)
    2418                      .dwattr $C$DW$167, DW_AT_location[DW_OP_reg0]
    2419              
    2420              $C$DW$168       .dwtag  DW_TAG_formal_parameter
    2421                      .dwattr $C$DW$168, DW_AT_name("pwmFreq_Hz")
    2422                      .dwattr $C$DW$168, DW_AT_type(*$C$DW$T$222)
    2423                      .dwattr $C$DW$168, DW_AT_location[DW_OP_regx 0x2b]
    2424              
    2425              $C$DW$169       .dwtag  DW_TAG_formal_parameter
    2426                      .dwattr $C$DW$169, DW_AT_name("pwmSysClkFreq_Hz")
    2427                      .dwattr $C$DW$169, DW_AT_type(*$C$DW$T$222)
    2428                      .dwattr $C$DW$169, DW_AT_location[DW_OP_regx 0x2f]
    2429              
    2430              
    2431              ;***************************************************************
    2432              ;* FNAME: CLLLC_HAL_setupHRPWMinUpDownCount2ChAsymmetricMode FR SIZE:   2           *
    2433              ;*                                                             *
    2434              ;* FUNCTION ENVIRONMENT                                        *
    2435              ;*                                                             *
    2436              ;* FUNCTION PROPERTIES                                         *
    2437              ;*                            0 Parameter,  0 Auto,  2 SOE     *
    2438              ;***************************************************************
    2439              
    2440              ||CLLLC_HAL_setupHRPWMinUpDownCount2ChAsymmetricMode||:
    2441              ;* AL    assigned to $O$C1
    2442              ;* AR5   assigned to $O$C2
    2443              ;* AR6   assigned to $O$C3
    2444              ;* AR4   assigned to base1
    2445              $C$DW$170       .dwtag  DW_TAG_variable
    2446                      .dwattr $C$DW$170, DW_AT_name("base1")
    2447                      .dwattr $C$DW$170, DW_AT_type(*$C$DW$T$246)
    2448                      .dwattr $C$DW$170, DW_AT_location[DW_OP_reg12]
    2449              
    2450              ;* R0    assigned to pwmFreq_Hz
    2451              $C$DW$171       .dwtag  DW_TAG_variable
    2452                      .dwattr $C$DW$171, DW_AT_name("pwmFreq_Hz")
    2453                      .dwattr $C$DW$171, DW_AT_type(*$C$DW$T$248)
    2454                      .dwattr $C$DW$171, DW_AT_location[DW_OP_regx 0x2b]
    2455              
    2456              ;* R1    assigned to pwmSysClkFreq_Hz
    2457              $C$DW$172       .dwtag  DW_TAG_variable
    2458                      .dwattr $C$DW$172, DW_AT_name("pwmSysClkFreq_Hz")
    2459                      .dwattr $C$DW$172, DW_AT_type(*$C$DW$T$248)
    2460                      .dwattr $C$DW$172, DW_AT_location[DW_OP_regx 0x2f]
    2461              
    2462                      .dwcfi  cfa_offset, -2
    2463                      .dwcfi  save_reg_to_mem, 26, 0
    2464                      .dwpsn  file "C:/Users/ZXC/Documents/mcu project/ti-project/clllc_nonpowerSUITE_F28004x/device/driver
    2465 00000502 E274          DIVF32    R0H,R1H,R0H           ; [CPU_FPU] |2185| 
TMS320C2000 Assembler PC v22.6.0 Mon Sep  2 11:55:45 2024

Copyright (c) 1996-2018 Texas Instruments Incorporated
clllc_hal.asm                                                        PAGE   55

         00000503 0008 
    2466 00000504 7700          NOP       ; [CPU_ALU] 
    2467 00000505 B2BD          MOVL      *SP++,XAR1            ; [CPU_ALU] 
    2468                      .dwcfi  save_reg_to_mem, 7, 2
    2469                      .dwcfi  cfa_offset, -4
    2470                      .dwpsn  file "../clllc_hal.c",line 2023,column 1,is_stmt,isa 0
    2471 00000506 8AA9          MOVL      XAR4,ACC              ; [CPU_ALU] |2023| 
    2472 00000507 83A9          MOVL      XAR5,ACC              ; [CPU_ALU] |2023| 
    2473                      .dwpsn  file "C:/Users/ZXC/Documents/mcu project/ti-project/clllc_nonpowerSUITE_F28004x/device/driver
    2474 00000508 E68A          F32TOUI32 R0H,R0H               ; [CPU_FPU] |2185| 
         00000509 0000 
    2475 0000050a 2901          CLRC      SXM                   ; [CPU_ALU] 
    2476 0000050b D163          MOVB      XAR1,#99              ; [CPU_ALU] |2185| 
    2477 0000050c BFA6          MOV32     XAR6,R0H              ; [CPU_FPU] |2185| 
         0000050d 0F12 
    2478                      .dwpsn  file "C:/Users/ZXC/Documents/mcu project/ti-project/clllc_nonpowerSUITE_F28004x/device/driver
    2479 0000050e 18C4          AND       *+XAR4[0],#0xfff7     ; [CPU_ALU] |1762| 
         0000050f FFF7 
    2480                      .dwpsn  file "C:/Users/ZXC/Documents/mcu project/ti-project/clllc_nonpowerSUITE_F28004x/device/driver
    2481 00000510 D060          MOVB      XAR0,#96              ; [CPU_ALU] |2151| 
    2482                      .dwpsn  file "C:/Users/ZXC/Documents/mcu project/ti-project/clllc_nonpowerSUITE_F28004x/device/driver
    2483 00000511 DD08          ADDB      XAR5,#8               ; [CPU_ALU] |2340| 
    2484                      .dwpsn  file "C:/Users/ZXC/Documents/mcu project/ti-project/clllc_nonpowerSUITE_F28004x/device/driver
    2485 00000512 06A6          MOVL      ACC,XAR6              ; [CPU_ALU] |2185| 
    2486 00000513 FF40          SFR       ACC,1                 ; [CPU_ALU] |2185| 
    2487 00000514 969C          MOV       *+XAR4[AR1],AL        ; [CPU_ALU] |2185| 
    2488                      .dwpsn  file "C:/Users/ZXC/Documents/mcu project/ti-project/clllc_nonpowerSUITE_F28004x/device/driver
    2489 00000515 2BE4          MOV       *+XAR4[4],#0          ; [CPU_ALU] |1552| 
    2490                      .dwpsn  file "C:/Users/ZXC/Documents/mcu project/ti-project/clllc_nonpowerSUITE_F28004x/device/driver
    2491 00000516 A394          MOVL      P,*+XAR4[AR0]         ; [CPU_FPU] |2151| 
    2492 00000517 D060          MOVB      XAR0,#96              ; [CPU_FPU] |2151| 
    2493 00000518 18AA          AND       PH,#0                 ; [CPU_ALU] |2151| 
         00000519 0000 
    2494 0000051a A994          MOVL      *+XAR4[AR0],P         ; [CPU_FPU] |2151| 
    2495                      .dwpsn  file "C:/Users/ZXC/Documents/mcu project/ti-project/clllc_nonpowerSUITE_F28004x/device/driver
    2496 0000051b D06B          MOVB      XAR0,#107             ; [CPU_FPU] |2445| 
    2497                      .dwpsn  file "C:/Users/ZXC/Documents/mcu project/ti-project/clllc_nonpowerSUITE_F28004x/device/driver
    2498 0000051c CCC4          AND       AL,*+XAR4[0],#0xfffe  ; [CPU_FPU] |1852| 
         0000051d FFFE 
    2499 0000051e 5002          ORB       AL,#0x02              ; [CPU_ALU] |1852| 
    2500 0000051f 96C4          MOV       *+XAR4[0],AL          ; [CPU_FPU] |1852| 
    2501                      .dwpsn  file "C:/Users/ZXC/Documents/mcu project/ti-project/clllc_nonpowerSUITE_F28004x/device/driver
    2502 00000520 06A6          MOVL      ACC,XAR6              ; [CPU_FPU] |2445| 
    2503 00000521 FF41          SFR       ACC,2                 ; [CPU_ALU] |2445| 
    2504                      .dwpsn  file "C:/Users/ZXC/Documents/mcu project/ti-project/clllc_nonpowerSUITE_F28004x/device/driver
    2505 00000522 18C4          AND       *+XAR4[0],#0xe07f     ; [CPU_FPU] |1630| 
         00000523 E07F 
    2506                      .dwpsn  file "C:/Users/ZXC/Documents/mcu project/ti-project/clllc_nonpowerSUITE_F28004x/device/driver
    2507 00000524 9694          MOV       *+XAR4[AR0],AL        ; [CPU_FPU] |2445| 
    2508 00000525 D06D          MOVB      XAR0,#109             ; [CPU_FPU] |2445| 
    2509                      .dwpsn  file "C:/Users/ZXC/Documents/mcu project/ti-project/clllc_nonpowerSUITE_F28004x/device/driver
    2510 00000526 CDC5          AND       AH,*+XAR5[0],#0xf3ee  ; [CPU_ALU] |2340| 
         00000527 F3EE 
    2511 00000528 5102          ORB       AH,#0x02              ; [CPU_ALU] |2340| 
    2512 00000529 97C5          MOV       *+XAR5[0],AH          ; [CPU_ALU] |2340| 
TMS320C2000 Assembler PC v22.6.0 Mon Sep  2 11:55:45 2024

Copyright (c) 1996-2018 Texas Instruments Incorporated
clllc_hal.asm                                                        PAGE   56

    2513                      .dwpsn  file "C:/Users/ZXC/Documents/mcu project/ti-project/clllc_nonpowerSUITE_F28004x/device/driver
    2514 0000052a 9694          MOV       *+XAR4[AR0],AL        ; [CPU_ALU] |2445| 
    2515                      .dwpsn  file "../clllc_hal.c",line 2054,column 5,is_stmt,isa 0
    2516 0000052b 7622          EALLOW    ; [CPU_ALU] |2054| 
    2517                      .dwpsn  file "../clllc_hal.c",line 2058,column 5,is_stmt,isa 0
    2518 0000052c D040          MOVB      XAR0,#64              ; [CPU_ALU] |2058| 
    2519                      .dwpsn  file "../clllc_hal.c",line 2059,column 5,is_stmt,isa 0
    2520 0000052d D142          MOVB      XAR1,#66              ; [CPU_ALU] |2059| 
    2521                      .dwpsn  file "../clllc_hal.c",line 2058,column 5,is_stmt,isa 0
    2522 0000052e 2B94          MOV       *+XAR4[AR0],#0        ; [CPU_ALU] |2058| 
    2523                      .dwpsn  file "../clllc_hal.c",line 2061,column 5,is_stmt,isa 0
    2524 0000052f D0C4          MOVB      XAR0,#196             ; [CPU_ALU] |2061| 
    2525                      .dwpsn  file "../clllc_hal.c",line 2059,column 5,is_stmt,isa 0
    2526 00000530 2B9C          MOV       *+XAR4[AR1],#0        ; [CPU_ALU] |2059| 
    2527                      .dwpsn  file "../clllc_hal.c",line 2061,column 5,is_stmt,isa 0
    2528 00000531 2B94          MOV       *+XAR4[AR0],#0        ; [CPU_ALU] |2061| 
    2529                      .dwpsn  file "../clllc_hal.c",line 2062,column 5,is_stmt,isa 0
    2530 00000532 761A          EDIS      ; [CPU_ALU] |2062| 
    2531                      .dwpsn  file "C:/Users/ZXC/Documents/mcu project/ti-project/clllc_nonpowerSUITE_F28004x/device/driver
    2532 00000533 D040          MOVB      XAR0,#64              ; [CPU_ALU] |2806| 
    2533 00000534 D140          MOVB      XAR1,#64              ; [CPU_ALU] |2806| 
    2534 00000535 CC94          AND       AL,*+XAR4[AR0],#0xfffe ; [CPU_ALU] |2806| 
         00000536 FFFE 
    2535 00000537 5002          ORB       AL,#0x02              ; [CPU_ALU] |2806| 
    2536 00000538 D040          MOVB      XAR0,#64              ; [CPU_ALU] |2806| 
    2537 00000539 969C          MOV       *+XAR4[AR1],AL        ; [CPU_ALU] |2806| 
    2538 0000053a D140          MOVB      XAR1,#64              ; [CPU_ALU] |2806| 
    2539 0000053b CC94          AND       AL,*+XAR4[AR0],#0xffdf ; [CPU_ALU] |2806| 
         0000053c FFDF 
    2540 0000053d 5010          ORB       AL,#0x10              ; [CPU_ALU] |2806| 
    2541 0000053e D042          MOVB      XAR0,#66              ; [CPU_ALU] |2806| 
    2542 0000053f 969C          MOV       *+XAR4[AR1],AL        ; [CPU_ALU] |2806| 
    2543 00000540 D142          MOVB      XAR1,#66              ; [CPU_ALU] |2806| 
    2544 00000541 CC94          AND       AL,*+XAR4[AR0],#0xfffb ; [CPU_ALU] |2806| 
         00000542 FFFB 
    2545 00000543 5008          ORB       AL,#0x08              ; [CPU_ALU] |2806| 
    2546 00000544 D042          MOVB      XAR0,#66              ; [CPU_ALU] |2806| 
    2547 00000545 969C          MOV       *+XAR4[AR1],AL        ; [CPU_ALU] |2806| 
    2548 00000546 CC94          AND       AL,*+XAR4[AR0],#0xf7ff ; [CPU_ALU] |2806| 
         00000547 F7FF 
    2549 00000548 D042          MOVB      XAR0,#66              ; [CPU_ALU] |2806| 
    2550 00000549 1AA9          OR        AL,#0x0400            ; [CPU_ALU] |2806| 
         0000054a 0400 
    2551 0000054b 9694          MOV       *+XAR4[AR0],AL        ; [CPU_ALU] |2806| 
    2552                      .dwpsn  file "C:/Users/ZXC/Documents/mcu project/ti-project/clllc_nonpowerSUITE_F28004x/device/driver
    2553 0000054c 7622          EALLOW    ; [CPU_ALU] |756| 
    2554                      .dwpsn  file "C:/Users/ZXC/Documents/mcu project/ti-project/clllc_nonpowerSUITE_F28004x/device/driver
    2555 0000054d 83A4          MOVL      XAR5,XAR4             ; [CPU_ALU] |948| 
    2556                      .dwpsn  file "C:/Users/ZXC/Documents/mcu project/ti-project/clllc_nonpowerSUITE_F28004x/device/driver
    2557 0000054e D020          MOVB      XAR0,#32              ; [CPU_ALU] |757| 
    2558                      .dwpsn  file "C:/Users/ZXC/Documents/mcu project/ti-project/clllc_nonpowerSUITE_F28004x/device/driver
    2559 0000054f D120          MOVB      XAR1,#32              ; [CPU_ALU] |800| 
    2560                      .dwpsn  file "C:/Users/ZXC/Documents/mcu project/ti-project/clllc_nonpowerSUITE_F28004x/device/driver
    2561 00000550 DD20          ADDB      XAR5,#32              ; [CPU_ALU] |948| 
    2562                      .dwpsn  file "C:/Users/ZXC/Documents/mcu project/ti-project/clllc_nonpowerSUITE_F28004x/device/driver
TMS320C2000 Assembler PC v22.6.0 Mon Sep  2 11:55:45 2024

Copyright (c) 1996-2018 Texas Instruments Incorporated
clllc_hal.asm                                                        PAGE   57

    2563 00000551 9294          MOV       AL,*+XAR4[AR0]        ; [CPU_ALU] |757| 
    2564 00000552 D020          MOVB      XAR0,#32              ; [CPU_ALU] |757| 
    2565 00000553 5003          ORB       AL,#0x03              ; [CPU_ALU] |757| 
    2566 00000554 9694          MOV       *+XAR4[AR0],AL        ; [CPU_ALU] |757| 
    2567                      .dwpsn  file "C:/Users/ZXC/Documents/mcu project/ti-project/clllc_nonpowerSUITE_F28004x/device/driver
    2568 00000555 D020          MOVB      XAR0,#32              ; [CPU_ALU] |843| 
    2569 00000556 CC94          AND       AL,*+XAR4[AR0],#0xfff7 ; [CPU_ALU] |843| 
         00000557 FFF7 
    2570 00000558 D020          MOVB      XAR0,#32              ; [CPU_ALU] |843| 
    2571 00000559 5010          ORB       AL,#0x10              ; [CPU_ALU] |843| 
    2572 0000055a 9694          MOV       *+XAR4[AR0],AL        ; [CPU_ALU] |843| 
    2573                      .dwpsn  file "C:/Users/ZXC/Documents/mcu project/ti-project/clllc_nonpowerSUITE_F28004x/device/driver
    2574 0000055b D020          MOVB      XAR0,#32              ; [CPU_ALU] |757| 
    2575 0000055c 9294          MOV       AL,*+XAR4[AR0]        ; [CPU_ALU] |757| 
    2576 0000055d D020          MOVB      XAR0,#32              ; [CPU_ALU] |757| 
    2577 0000055e 1AA9          OR        AL,#0x0300            ; [CPU_ALU] |757| 
         0000055f 0300 
    2578 00000560 9694          MOV       *+XAR4[AR0],AL        ; [CPU_ALU] |757| 
    2579                      .dwpsn  file "C:/Users/ZXC/Documents/mcu project/ti-project/clllc_nonpowerSUITE_F28004x/device/driver
    2580 00000561 D020          MOVB      XAR0,#32              ; [CPU_ALU] |843| 
    2581 00000562 CC94          AND       AL,*+XAR4[AR0],#0xf7ff ; [CPU_ALU] |843| 
         00000563 F7FF 
    2582 00000564 D020          MOVB      XAR0,#32              ; [CPU_ALU] |843| 
    2583 00000565 1AA9          OR        AL,#0x1000            ; [CPU_ALU] |843| 
         00000566 1000 
    2584 00000567 9694          MOV       *+XAR4[AR0],AL        ; [CPU_ALU] |843| 
    2585                      .dwpsn  file "C:/Users/ZXC/Documents/mcu project/ti-project/clllc_nonpowerSUITE_F28004x/device/driver
    2586 00000568 D020          MOVB      XAR0,#32              ; [CPU_ALU] |800| 
    2587 00000569 CC94          AND       AL,*+XAR4[AR0],#0xfffb ; [CPU_ALU] |800| 
         0000056a FFFB 
    2588 0000056b D020          MOVB      XAR0,#32              ; [CPU_ALU] |800| 
    2589 0000056c 969C          MOV       *+XAR4[AR1],AL        ; [CPU_FPU] |800| 
    2590 0000056d D120          MOVB      XAR1,#32              ; [CPU_FPU] |800| 
    2591 0000056e CC94          AND       AL,*+XAR4[AR0],#0xfbff ; [CPU_FPU] |800| 
         0000056f FBFF 
    2592 00000570 969C          MOV       *+XAR4[AR1],AL        ; [CPU_FPU] |800| 
    2593                      .dwpsn  file "C:/Users/ZXC/Documents/mcu project/ti-project/clllc_nonpowerSUITE_F28004x/device/driver
    2594 00000571 1AC5          OR        *+XAR5[0],#0x0040     ; [CPU_ALU] |948| 
         00000572 0040 
    2595                      .dwpsn  file "C:/Users/ZXC/Documents/mcu project/ti-project/clllc_nonpowerSUITE_F28004x/device/driver
    2596 00000573 83A4          MOVL      XAR5,XAR4             ; [CPU_ALU] |1058| 
    2597 00000574 DD2D          ADDB      XAR5,#45              ; [CPU_ALU] |1058| 
    2598                      .dwpsn  file "C:/Users/ZXC/Documents/mcu project/ti-project/clllc_nonpowerSUITE_F28004x/device/driver
    2599 00000575 DC2D          ADDB      XAR4,#45              ; [CPU_ALU] |1003| 
    2600                      .dwpsn  file "C:/Users/ZXC/Documents/mcu project/ti-project/clllc_nonpowerSUITE_F28004x/device/driver
    2601 00000576 1AC5          OR        *+XAR5[0],#0x0004     ; [CPU_FPU] |1058| 
         00000577 0004 
    2602                      .dwpsn  file "C:/Users/ZXC/Documents/mcu project/ti-project/clllc_nonpowerSUITE_F28004x/device/driver
    2603 00000578 1AC4          OR        *+XAR4[0],#0x0001     ; [CPU_ALU] |1003| 
         00000579 0001 
    2604                      .dwpsn  file "C:/Users/ZXC/Documents/mcu project/ti-project/clllc_nonpowerSUITE_F28004x/device/driver
    2605 0000057a 761A          EDIS      ; [CPU_ALU] |1004| 
    2606 0000057b 8BBE          MOVL      XAR1,*--SP            ; [CPU_ALU] 
    2607                      .dwcfi  cfa_offset, -2
    2608                      .dwcfi  restore_reg, 7
TMS320C2000 Assembler PC v22.6.0 Mon Sep  2 11:55:45 2024

Copyright (c) 1996-2018 Texas Instruments Incorporated
clllc_hal.asm                                                        PAGE   58

    2609              $C$DW$173       .dwtag  DW_TAG_TI_branch
    2610                      .dwattr $C$DW$173, DW_AT_low_pc(0x00)
    2611                      .dwattr $C$DW$173, DW_AT_TI_return
    2612              
    2613 0000057c 0006          LRETR     ; [CPU_ALU] 
    2614                      ; return occurs ; [] 
    2615                      .dwattr $C$DW$166, DW_AT_TI_end_file("../clllc_hal.c")
    2616                      .dwattr $C$DW$166, DW_AT_TI_end_line(0x848)
    2617                      .dwattr $C$DW$166, DW_AT_TI_end_column(0x01)
    2618                      .dwendentry
    2619                      .dwendtag $C$DW$166
    2620              
    2621 0000057d               .sect   ".text"
    2622                      .clink
    2623                      .global ||CLLLC_HAL_setupHRPWMinUpDownCountModeWithDeadBand||
    2624              
    2625              $C$DW$174       .dwtag  DW_TAG_subprogram
    2626                      .dwattr $C$DW$174, DW_AT_name("CLLLC_HAL_setupHRPWMinUpDownCountModeWithDeadBand")
    2627                      .dwattr $C$DW$174, DW_AT_low_pc(||CLLLC_HAL_setupHRPWMinUpDownCountModeWithDeadBand||)
    2628                      .dwattr $C$DW$174, DW_AT_high_pc(0x00)
    2629                      .dwattr $C$DW$174, DW_AT_linkage_name("CLLLC_HAL_setupHRPWMinUpDownCountModeWithDeadBand")
    2630                      .dwattr $C$DW$174, DW_AT_external
    2631                      .dwattr $C$DW$174, DW_AT_decl_file("../clllc_hal.c")
    2632                      .dwattr $C$DW$174, DW_AT_decl_line(0x75f)
    2633                      .dwattr $C$DW$174, DW_AT_decl_column(0x06)
    2634                      .dwattr $C$DW$174, DW_AT_TI_max_frame_size(-4)
    2635                      .dwpsn  file "../clllc_hal.c",line 1892,column 1,is_stmt,address ||CLLLC_HAL_setupHRPWMinUpDownCountM
    2636              
    2637                      .dwfde $C$DW$CIE, ||CLLLC_HAL_setupHRPWMinUpDownCountModeWithDeadBand||
    2638              $C$DW$175       .dwtag  DW_TAG_formal_parameter
    2639                      .dwattr $C$DW$175, DW_AT_name("base1")
    2640                      .dwattr $C$DW$175, DW_AT_type(*$C$DW$T$142)
    2641                      .dwattr $C$DW$175, DW_AT_location[DW_OP_reg0]
    2642              
    2643              $C$DW$176       .dwtag  DW_TAG_formal_parameter
    2644                      .dwattr $C$DW$176, DW_AT_name("pwmFreq_Hz")
    2645                      .dwattr $C$DW$176, DW_AT_type(*$C$DW$T$222)
    2646                      .dwattr $C$DW$176, DW_AT_location[DW_OP_regx 0x2b]
    2647              
    2648              $C$DW$177       .dwtag  DW_TAG_formal_parameter
    2649                      .dwattr $C$DW$177, DW_AT_name("pwmSysClkFreq_Hz")
    2650                      .dwattr $C$DW$177, DW_AT_type(*$C$DW$T$222)
    2651                      .dwattr $C$DW$177, DW_AT_location[DW_OP_regx 0x2f]
    2652              
    2653              $C$DW$178       .dwtag  DW_TAG_formal_parameter
    2654                      .dwattr $C$DW$178, DW_AT_name("red_ns")
    2655                      .dwattr $C$DW$178, DW_AT_type(*$C$DW$T$222)
    2656                      .dwattr $C$DW$178, DW_AT_location[DW_OP_regx 0x33]
    2657              
    2658              $C$DW$179       .dwtag  DW_TAG_formal_parameter
    2659                      .dwattr $C$DW$179, DW_AT_name("fed_ns")
    2660                      .dwattr $C$DW$179, DW_AT_type(*$C$DW$T$222)
    2661                      .dwattr $C$DW$179, DW_AT_location[DW_OP_regx 0x37]
    2662              
    2663              
TMS320C2000 Assembler PC v22.6.0 Mon Sep  2 11:55:45 2024

Copyright (c) 1996-2018 Texas Instruments Incorporated
clllc_hal.asm                                                        PAGE   59

    2664              ;***************************************************************
    2665              ;* FNAME: CLLLC_HAL_setupHRPWMinUpDownCountModeWithDeadBand FR SIZE:   2           *
    2666              ;*                                                             *
    2667              ;* FUNCTION ENVIRONMENT                                        *
    2668              ;*                                                             *
    2669              ;* FUNCTION PROPERTIES                                         *
    2670              ;*                            0 Parameter,  0 Auto,  2 SOE     *
    2671              ;***************************************************************
    2672              
    2673              ||CLLLC_HAL_setupHRPWMinUpDownCountModeWithDeadBand||:
    2674              ;* AL    assigned to $O$C1
    2675              ;* R0    assigned to $O$C2
    2676              ;* AR6   assigned to $O$C3
    2677              ;* AR7   assigned to $O$C4
    2678              ;* AR5   assigned to $O$C5
    2679              ;* AR6   assigned to $O$C6
    2680              ;* AR4   assigned to base1
    2681              $C$DW$180       .dwtag  DW_TAG_variable
    2682                      .dwattr $C$DW$180, DW_AT_name("base1")
    2683                      .dwattr $C$DW$180, DW_AT_type(*$C$DW$T$246)
    2684                      .dwattr $C$DW$180, DW_AT_location[DW_OP_reg12]
    2685              
    2686              ;* R0    assigned to pwmFreq_Hz
    2687              $C$DW$181       .dwtag  DW_TAG_variable
    2688                      .dwattr $C$DW$181, DW_AT_name("pwmFreq_Hz")
    2689                      .dwattr $C$DW$181, DW_AT_type(*$C$DW$T$248)
    2690                      .dwattr $C$DW$181, DW_AT_location[DW_OP_regx 0x2b]
    2691              
    2692              ;* R1    assigned to pwmSysClkFreq_Hz
    2693              $C$DW$182       .dwtag  DW_TAG_variable
    2694                      .dwattr $C$DW$182, DW_AT_name("pwmSysClkFreq_Hz")
    2695                      .dwattr $C$DW$182, DW_AT_type(*$C$DW$T$248)
    2696                      .dwattr $C$DW$182, DW_AT_location[DW_OP_regx 0x2f]
    2697              
    2698              ;* R2    assigned to red_ns
    2699              $C$DW$183       .dwtag  DW_TAG_variable
    2700                      .dwattr $C$DW$183, DW_AT_name("red_ns")
    2701                      .dwattr $C$DW$183, DW_AT_type(*$C$DW$T$248)
    2702                      .dwattr $C$DW$183, DW_AT_location[DW_OP_regx 0x33]
    2703              
    2704                      .dwcfi  cfa_offset, -2
    2705                      .dwcfi  save_reg_to_mem, 26, 0
    2706                      .dwpsn  file "../clllc_hal.c",line 1915,column 5,is_stmt,isa 0
    2707 0000057d E851          MPYF32    R3H,R1H,#18304        ; [CPU_FPU] |1915| 
         0000057e E00B 
    2708 0000057f B2BD          MOVL      *SP++,XAR1            ; [CPU_ALU] 
    2709                      .dwcfi  save_reg_to_mem, 7, 2
    2710                      .dwcfi  cfa_offset, -4
    2711                      .dwpsn  file "../clllc_hal.c",line 1892,column 1,is_stmt,isa 0
    2712 00000580 8AA9          MOVL      XAR4,ACC              ; [CPU_ALU] |1892| 
    2713                      .dwpsn  file "../clllc_hal.c",line 1915,column 5,is_stmt,isa 0
    2714 00000581 E274          DIVF32    R0H,R3H,R0H           ; [CPU_FPU] |1915| 
         00000582 0018 
    2715                      .dwpsn  file "../clllc_hal.c",line 1892,column 1,is_stmt,isa 0
    2716 00000583 83A9          MOVL      XAR5,ACC              ; [CPU_ALU] |1892| 
TMS320C2000 Assembler PC v22.6.0 Mon Sep  2 11:55:45 2024

Copyright (c) 1996-2018 Texas Instruments Incorporated
clllc_hal.asm                                                        PAGE   60

    2717 00000584 2901          CLRC      SXM                   ; [CPU_ALU] 
    2718                      .dwpsn  file "../clllc_hal.c",line 1915,column 5,is_stmt,isa 0
    2719 00000585 D162          MOVB      XAR1,#98              ; [CPU_ALU] |1915| 
    2720                      .dwpsn  file "C:/Users/ZXC/Documents/mcu project/ti-project/clllc_nonpowerSUITE_F28004x/device/driver
    2721 00000586 D060          MOVB      XAR0,#96              ; [CPU_ALU] |2151| 
    2722                      .dwpsn  file "../clllc_hal.c",line 1915,column 5,is_stmt,isa 0
    2723 00000587 E68A          F32TOUI32 R0H,R0H               ; [CPU_FPU] |1915| 
         00000588 0000 
    2724                      .dwpsn  file "C:/Users/ZXC/Documents/mcu project/ti-project/clllc_nonpowerSUITE_F28004x/device/driver
    2725 00000589 18C4          AND       *+XAR4[0],#0xfff7     ; [CPU_ALU] |1762| 
         0000058a FFF7 
    2726                      .dwpsn  file "C:/Users/ZXC/Documents/mcu project/ti-project/clllc_nonpowerSUITE_F28004x/device/driver
    2727 0000058b DD08          ADDB      XAR5,#8               ; [CPU_ALU] |2340| 
    2728                      .dwpsn  file "../clllc_hal.c",line 1915,column 5,is_stmt,isa 0
    2729 0000058c BFA9          MOV32     ACC,R0H               ; [CPU_FPU] |1915| 
         0000058d 0F12 
    2730 0000058e FF40          SFR       ACC,1                 ; [CPU_ALU] |1915| 
    2731 0000058f 18A9          AND       AL,#65280             ; [CPU_ALU] |1915| 
         00000590 FF00 
    2732 00000591 1EA6          MOVL      XAR6,ACC              ; [CPU_ALU] |1915| 
    2733 00000592 1E9C          MOVL      *+XAR4[AR1],ACC       ; [CPU_ALU] |1915| 
    2734                      .dwpsn  file "C:/Users/ZXC/Documents/mcu project/ti-project/clllc_nonpowerSUITE_F28004x/device/driver
    2735 00000593 2BE4          MOV       *+XAR4[4],#0          ; [CPU_ALU] |1552| 
    2736                      .dwpsn  file "C:/Users/ZXC/Documents/mcu project/ti-project/clllc_nonpowerSUITE_F28004x/device/driver
    2737 00000594 A394          MOVL      P,*+XAR4[AR0]         ; [CPU_FPU] |2151| 
    2738 00000595 D060          MOVB      XAR0,#96              ; [CPU_FPU] |2151| 
    2739 00000596 18AA          AND       PH,#0                 ; [CPU_ALU] |2151| 
         00000597 0000 
    2740 00000598 A994          MOVL      *+XAR4[AR0],P         ; [CPU_FPU] |2151| 
    2741                      .dwpsn  file "../clllc_hal.c",line 1926,column 5,is_stmt,isa 0
    2742 00000599 D06A          MOVB      XAR0,#106             ; [CPU_FPU] |1926| 
    2743                      .dwpsn  file "C:/Users/ZXC/Documents/mcu project/ti-project/clllc_nonpowerSUITE_F28004x/device/driver
    2744 0000059a CCC4          AND       AL,*+XAR4[0],#0xfffe  ; [CPU_FPU] |1852| 
         0000059b FFFE 
    2745 0000059c 5002          ORB       AL,#0x02              ; [CPU_ALU] |1852| 
    2746 0000059d 96C4          MOV       *+XAR4[0],AL          ; [CPU_FPU] |1852| 
    2747                      .dwpsn  file "../clllc_hal.c",line 1926,column 5,is_stmt,isa 0
    2748 0000059e 06A6          MOVL      ACC,XAR6              ; [CPU_FPU] |1926| 
    2749 0000059f FF40          SFR       ACC,1                 ; [CPU_ALU] |1926| 
    2750                      .dwpsn  file "C:/Users/ZXC/Documents/mcu project/ti-project/clllc_nonpowerSUITE_F28004x/device/driver
    2751 000005a0 C4A4          MOVL      XAR6,XAR4             ; [CPU_FPU] |2397| 
    2752                      .dwpsn  file "C:/Users/ZXC/Documents/mcu project/ti-project/clllc_nonpowerSUITE_F28004x/device/driver
    2753 000005a1 18C4          AND       *+XAR4[0],#0xe07f     ; [CPU_FPU] |1630| 
         000005a2 E07F 
    2754                      .dwpsn  file "../clllc_hal.c",line 1926,column 5,is_stmt,isa 0
    2755 000005a3 1EA7          MOVL      XAR7,ACC              ; [CPU_FPU] |1926| 
    2756 000005a4 1E94          MOVL      *+XAR4[AR0],ACC       ; [CPU_FPU] |1926| 
    2757                      .dwpsn  file "C:/Users/ZXC/Documents/mcu project/ti-project/clllc_nonpowerSUITE_F28004x/device/driver
    2758 000005a5 DE09          ADDB      XAR6,#9               ; [CPU_ALU] |2397| 
    2759                      .dwpsn  file "../clllc_hal.c",line 1940,column 5,is_stmt,isa 0
    2760 000005a6 D06C          MOVB      XAR0,#108             ; [CPU_FPU] |1940| 
    2761                      .dwpsn  file "C:/Users/ZXC/Documents/mcu project/ti-project/clllc_nonpowerSUITE_F28004x/device/driver
    2762 000005a7 CCC5          AND       AL,*+XAR5[0],#0xf3ee  ; [CPU_ALU] |2340| 
         000005a8 F3EE 
    2763 000005a9 5002          ORB       AL,#0x02              ; [CPU_ALU] |2340| 
TMS320C2000 Assembler PC v22.6.0 Mon Sep  2 11:55:45 2024

Copyright (c) 1996-2018 Texas Instruments Incorporated
clllc_hal.asm                                                        PAGE   61

    2764 000005aa 96C5          MOV       *+XAR5[0],AL          ; [CPU_FPU] |2340| 
    2765 000005ab CCC5          AND       AL,*+XAR5[0],#0xcfbb  ; [CPU_FPU] |2340| 
         000005ac CFBB 
    2766 000005ad 5008          ORB       AL,#0x08              ; [CPU_ALU] |2340| 
    2767 000005ae 96C5          MOV       *+XAR5[0],AL          ; [CPU_FPU] |2340| 
    2768                      .dwpsn  file "../clllc_hal.c",line 1940,column 5,is_stmt,isa 0
    2769 000005af C394          MOVL      *+XAR4[AR0],XAR7      ; [CPU_FPU] |1940| 
    2770                      .dwpsn  file "C:/Users/ZXC/Documents/mcu project/ti-project/clllc_nonpowerSUITE_F28004x/device/driver
    2771 000005b0 1AC6          OR        *+XAR6[0],#0x0010     ; [CPU_ALU] |2397| 
         000005b1 0010 
    2772                      .dwpsn  file "../clllc_hal.c",line 1944,column 5,is_stmt,isa 0
    2773 000005b2 7622          EALLOW    ; [CPU_ALU] |1944| 
    2774                      .dwpsn  file "../clllc_hal.c",line 1948,column 5,is_stmt,isa 0
    2775 000005b3 D040          MOVB      XAR0,#64              ; [CPU_ALU] |1948| 
    2776                      .dwpsn  file "../clllc_hal.c",line 1949,column 5,is_stmt,isa 0
    2777 000005b4 D142          MOVB      XAR1,#66              ; [CPU_ALU] |1949| 
    2778                      .dwpsn  file "../clllc_hal.c",line 1948,column 5,is_stmt,isa 0
    2779 000005b5 2B94          MOV       *+XAR4[AR0],#0        ; [CPU_ALU] |1948| 
    2780                      .dwpsn  file "../clllc_hal.c",line 1951,column 5,is_stmt,isa 0
    2781 000005b6 D0C4          MOVB      XAR0,#196             ; [CPU_ALU] |1951| 
    2782                      .dwpsn  file "../clllc_hal.c",line 1949,column 5,is_stmt,isa 0
    2783 000005b7 2B9C          MOV       *+XAR4[AR1],#0        ; [CPU_ALU] |1949| 
    2784                      .dwpsn  file "../clllc_hal.c",line 1951,column 5,is_stmt,isa 0
    2785 000005b8 2B94          MOV       *+XAR4[AR0],#0        ; [CPU_ALU] |1951| 
    2786                      .dwpsn  file "../clllc_hal.c",line 1952,column 5,is_stmt,isa 0
    2787 000005b9 761A          EDIS      ; [CPU_ALU] |1952| 
    2788                      .dwpsn  file "../clllc_hal.c",line 1986,column 5,is_stmt,isa 0
    2789 000005ba E851          MPYF32    R2H,R2H,#18304        ; [CPU_FPU] |1986| 
         000005bb E012 
    2790                      .dwpsn  file "C:/Users/ZXC/Documents/mcu project/ti-project/clllc_nonpowerSUITE_F28004x/device/driver
    2791 000005bc D040          MOVB      XAR0,#64              ; [CPU_ALU] |2806| 
    2792                      .dwpsn  file "../clllc_hal.c",line 1986,column 5,is_stmt,isa 0
    2793 000005bd E801          MOVIZ     R0H,#12425            ; [CPU_FPU] |1986| 
         000005be 8448 
    2794                      .dwpsn  file "C:/Users/ZXC/Documents/mcu project/ti-project/clllc_nonpowerSUITE_F28004x/device/driver
    2795 000005bf D140          MOVB      XAR1,#64              ; [CPU_ALU] |2806| 
    2796                      .dwpsn  file "../clllc_hal.c",line 1986,column 5,is_stmt,isa 0
    2797 000005c0 E80B          MOVXI     R0H,#28767            ; [CPU_FPU] |1986| 
         000005c1 82F8 
    2798 000005c2 E700          MPYF32    R0H,R0H,R2H           ; [CPU_FPU] |1986| 
         000005c3 0080 
    2799                      .dwpsn  file "C:/Users/ZXC/Documents/mcu project/ti-project/clllc_nonpowerSUITE_F28004x/device/driver
    2800 000005c4 83A4          MOVL      XAR5,XAR4             ; [CPU_ALU] |3407| 
    2801                      .dwpsn  file "../clllc_hal.c",line 1986,column 5,is_stmt,isa 0
    2802 000005c5 E700          MPYF32    R0H,R1H,R0H           ; [CPU_FPU] |1986| 
         000005c6 0008 
    2803                      .dwpsn  file "C:/Users/ZXC/Documents/mcu project/ti-project/clllc_nonpowerSUITE_F28004x/device/driver
    2804 000005c7 CC94          AND       AL,*+XAR4[AR0],#0xffef ; [CPU_ALU] |2806| 
         000005c8 FFEF 
    2805                      .dwpsn  file "../clllc_hal.c",line 1986,column 5,is_stmt,isa 0
    2806 000005c9 E710          ADDF32    R0H,R0H,R0H           ; [CPU_FPU] |1986| 
         000005ca 0000 
    2807                      .dwpsn  file "C:/Users/ZXC/Documents/mcu project/ti-project/clllc_nonpowerSUITE_F28004x/device/driver
    2808 000005cb 5020          ORB       AL,#0x20              ; [CPU_ALU] |2806| 
    2809 000005cc D040          MOVB      XAR0,#64              ; [CPU_ALU] |2806| 
TMS320C2000 Assembler PC v22.6.0 Mon Sep  2 11:55:45 2024

Copyright (c) 1996-2018 Texas Instruments Incorporated
clllc_hal.asm                                                        PAGE   62

    2810                      .dwpsn  file "C:/Users/ZXC/Documents/mcu project/ti-project/clllc_nonpowerSUITE_F28004x/device/driver
    2811 000005cd DD0C          ADDB      XAR5,#12              ; [CPU_ALU] |3407| 
    2812                      .dwpsn  file "C:/Users/ZXC/Documents/mcu project/ti-project/clllc_nonpowerSUITE_F28004x/device/driver
    2813 000005ce 969C          MOV       *+XAR4[AR1],AL        ; [CPU_FPU] |2806| 
    2814                      .dwpsn  file "../clllc_hal.c",line 1986,column 5,is_stmt,isa 0
    2815 000005cf E68A          F32TOUI32 R0H,R0H               ; [CPU_FPU] |1986| 
         000005d0 0000 
    2816                      .dwpsn  file "C:/Users/ZXC/Documents/mcu project/ti-project/clllc_nonpowerSUITE_F28004x/device/driver
    2817 000005d1 D140          MOVB      XAR1,#64              ; [CPU_FPU] |2806| 
    2818 000005d2 CC94          AND       AL,*+XAR4[AR0],#0xff7f ; [CPU_FPU] |2806| 
         000005d3 FF7F 
    2819 000005d4 5040          ORB       AL,#0x40              ; [CPU_ALU] |2806| 
    2820                      .dwpsn  file "C:/Users/ZXC/Documents/mcu project/ti-project/clllc_nonpowerSUITE_F28004x/device/driver
    2821 000005d5 D00C          MOVB      XAR0,#12              ; [CPU_FPU] |3511| 
    2822                      .dwpsn  file "C:/Users/ZXC/Documents/mcu project/ti-project/clllc_nonpowerSUITE_F28004x/device/driver
    2823 000005d6 969C          MOV       *+XAR4[AR1],AL        ; [CPU_FPU] |2806| 
    2824                      .dwpsn  file "C:/Users/ZXC/Documents/mcu project/ti-project/clllc_nonpowerSUITE_F28004x/device/driver
    2825 000005d7 D10C          MOVB      XAR1,#12              ; [CPU_FPU] |3511| 
    2826 000005d8 CC94          AND       AL,*+XAR4[AR0],#0xff3f ; [CPU_FPU] |3511| 
         000005d9 FF3F 
    2827 000005da 1AA9          OR        AL,#0x0400            ; [CPU_ALU] |3511| 
         000005db 0400 
    2828                      .dwpsn  file "C:/Users/ZXC/Documents/mcu project/ti-project/clllc_nonpowerSUITE_F28004x/device/driver
    2829 000005dc D00C          MOVB      XAR0,#12              ; [CPU_FPU] |3575| 
    2830                      .dwpsn  file "C:/Users/ZXC/Documents/mcu project/ti-project/clllc_nonpowerSUITE_F28004x/device/driver
    2831 000005dd 969C          MOV       *+XAR4[AR1],AL        ; [CPU_FPU] |3511| 
    2832                      .dwpsn  file "C:/Users/ZXC/Documents/mcu project/ti-project/clllc_nonpowerSUITE_F28004x/device/driver
    2833 000005de D10C          MOVB      XAR1,#12              ; [CPU_FPU] |3575| 
    2834 000005df CC94          AND       AL,*+XAR4[AR0],#0xfcff ; [CPU_FPU] |3575| 
         000005e0 FCFF 
    2835 000005e1 1AA9          OR        AL,#0x0800            ; [CPU_ALU] |3575| 
         000005e2 0800 
    2836                      .dwpsn  file "C:/Users/ZXC/Documents/mcu project/ti-project/clllc_nonpowerSUITE_F28004x/device/driver
    2837 000005e3 D00C          MOVB      XAR0,#12              ; [CPU_FPU] |3639| 
    2838                      .dwpsn  file "C:/Users/ZXC/Documents/mcu project/ti-project/clllc_nonpowerSUITE_F28004x/device/driver
    2839 000005e4 969C          MOV       *+XAR4[AR1],AL        ; [CPU_FPU] |3575| 
    2840                      .dwpsn  file "C:/Users/ZXC/Documents/mcu project/ti-project/clllc_nonpowerSUITE_F28004x/device/driver
    2841 000005e5 D10C          MOVB      XAR1,#12              ; [CPU_FPU] |3639| 
    2842 000005e6 9294          MOV       AL,*+XAR4[AR0]        ; [CPU_FPU] |3639| 
    2843 000005e7 1AA9          OR        AL,#0x8000            ; [CPU_ALU] |3639| 
         000005e8 8000 
    2844                      .dwpsn  file "C:/Users/ZXC/Documents/mcu project/ti-project/clllc_nonpowerSUITE_F28004x/device/driver
    2845 000005e9 D00C          MOVB      XAR0,#12              ; [CPU_FPU] |3275| 
    2846                      .dwpsn  file "C:/Users/ZXC/Documents/mcu project/ti-project/clllc_nonpowerSUITE_F28004x/device/driver
    2847 000005ea 969C          MOV       *+XAR4[AR1],AL        ; [CPU_FPU] |3639| 
    2848                      .dwpsn  file "C:/Users/ZXC/Documents/mcu project/ti-project/clllc_nonpowerSUITE_F28004x/device/driver
    2849 000005eb D10C          MOVB      XAR1,#12              ; [CPU_FPU] |3275| 
    2850 000005ec 9294          MOV       AL,*+XAR4[AR0]        ; [CPU_FPU] |3275| 
    2851 000005ed D00C          MOVB      XAR0,#12              ; [CPU_FPU] |3275| 
    2852 000005ee 5002          ORB       AL,#0x02              ; [CPU_ALU] |3275| 
    2853 000005ef 9694          MOV       *+XAR4[AR0],AL        ; [CPU_FPU] |3275| 
    2854 000005f0 D00C          MOVB      XAR0,#12              ; [CPU_FPU] |3275| 
    2855 000005f1 9294          MOV       AL,*+XAR4[AR0]        ; [CPU_FPU] |3275| 
    2856 000005f2 5001          ORB       AL,#0x01              ; [CPU_ALU] |3275| 
    2857                      .dwpsn  file "C:/Users/ZXC/Documents/mcu project/ti-project/clllc_nonpowerSUITE_F28004x/device/driver
TMS320C2000 Assembler PC v22.6.0 Mon Sep  2 11:55:45 2024

Copyright (c) 1996-2018 Texas Instruments Incorporated
clllc_hal.asm                                                        PAGE   63

    2858 000005f3 D00C          MOVB      XAR0,#12              ; [CPU_FPU] |3359| 
    2859                      .dwpsn  file "C:/Users/ZXC/Documents/mcu project/ti-project/clllc_nonpowerSUITE_F28004x/device/driver
    2860 000005f4 969C          MOV       *+XAR4[AR1],AL        ; [CPU_FPU] |3275| 
    2861                      .dwpsn  file "C:/Users/ZXC/Documents/mcu project/ti-project/clllc_nonpowerSUITE_F28004x/device/driver
    2862 000005f5 D10C          MOVB      XAR1,#12              ; [CPU_FPU] |3412| 
    2863                      .dwpsn  file "C:/Users/ZXC/Documents/mcu project/ti-project/clllc_nonpowerSUITE_F28004x/device/driver
    2864 000005f6 CC94          AND       AL,*+XAR4[AR0],#0xffef ; [CPU_FPU] |3359| 
         000005f7 FFEF 
    2865 000005f8 D00C          MOVB      XAR0,#12              ; [CPU_FPU] |3359| 
    2866 000005f9 9694          MOV       *+XAR4[AR0],AL        ; [CPU_FPU] |3359| 
    2867                      .dwpsn  file "C:/Users/ZXC/Documents/mcu project/ti-project/clllc_nonpowerSUITE_F28004x/device/driver
    2868 000005fa D00C          MOVB      XAR0,#12              ; [CPU_FPU] |3412| 
    2869                      .dwpsn  file "C:/Users/ZXC/Documents/mcu project/ti-project/clllc_nonpowerSUITE_F28004x/device/driver
    2870 000005fb 18C5          AND       *+XAR5[0],#0xbfff     ; [CPU_ALU] |3407| 
         000005fc BFFF 
    2871                      .dwpsn  file "C:/Users/ZXC/Documents/mcu project/ti-project/clllc_nonpowerSUITE_F28004x/device/driver
    2872 000005fd CC9C          AND       AL,*+XAR4[AR1],#0xffdf ; [CPU_ALU] |3412| 
         000005fe FFDF 
    2873                      .dwpsn  file "C:/Users/ZXC/Documents/mcu project/ti-project/clllc_nonpowerSUITE_F28004x/device/driver
    2874 000005ff D10C          MOVB      XAR1,#12              ; [CPU_ALU] |3324| 
    2875                      .dwpsn  file "C:/Users/ZXC/Documents/mcu project/ti-project/clllc_nonpowerSUITE_F28004x/device/driver
    2876 00000600 9694          MOV       *+XAR4[AR0],AL        ; [CPU_ALU] |3412| 
    2877                      .dwpsn  file "C:/Users/ZXC/Documents/mcu project/ti-project/clllc_nonpowerSUITE_F28004x/device/driver
    2878 00000601 D00C          MOVB      XAR0,#12              ; [CPU_ALU] |3324| 
    2879 00000602 9294          MOV       AL,*+XAR4[AR0]        ; [CPU_ALU] |3324| 
    2880 00000603 5008          ORB       AL,#0x08              ; [CPU_ALU] |3324| 
    2881 00000604 D00C          MOVB      XAR0,#12              ; [CPU_ALU] |3324| 
    2882 00000605 969C          MOV       *+XAR4[AR1],AL        ; [CPU_ALU] |3324| 
    2883 00000606 D10C          MOVB      XAR1,#12              ; [CPU_ALU] |3324| 
    2884 00000607 CC94          AND       AL,*+XAR4[AR0],#0xfffb ; [CPU_ALU] |3324| 
         00000608 FFFB 
    2885                      .dwpsn  file "../clllc_hal.c",line 1987,column 5,is_stmt,isa 0
    2886 00000609 D050          MOVB      XAR0,#80              ; [CPU_ALU] |1987| 
    2887                      .dwpsn  file "C:/Users/ZXC/Documents/mcu project/ti-project/clllc_nonpowerSUITE_F28004x/device/driver
    2888 0000060a 969C          MOV       *+XAR4[AR1],AL        ; [CPU_ALU] |3324| 
    2889                      .dwpsn  file "../clllc_hal.c",line 1986,column 5,is_stmt,isa 0
    2890 0000060b D152          MOVB      XAR1,#82              ; [CPU_ALU] |1986| 
    2891 0000060c BFA9          MOV32     ACC,R0H               ; [CPU_FPU] |1986| 
         0000060d 0F12 
    2892 0000060e 18A9          AND       AL,#65024             ; [CPU_ALU] |1986| 
         0000060f FE00 
    2893 00000610 1E9C          MOVL      *+XAR4[AR1],ACC       ; [CPU_ALU] |1986| 
    2894                      .dwpsn  file "../clllc_hal.c",line 1987,column 5,is_stmt,isa 0
    2895 00000611 1E94          MOVL      *+XAR4[AR0],ACC       ; [CPU_ALU] |1987| 
    2896                      .dwpsn  file "C:/Users/ZXC/Documents/mcu project/ti-project/clllc_nonpowerSUITE_F28004x/device/driver
    2897 00000612 7622          EALLOW    ; [CPU_ALU] |756| 
    2898                      .dwpsn  file "C:/Users/ZXC/Documents/mcu project/ti-project/clllc_nonpowerSUITE_F28004x/device/driver
    2899 00000613 83A4          MOVL      XAR5,XAR4             ; [CPU_ALU] |948| 
    2900                      .dwpsn  file "C:/Users/ZXC/Documents/mcu project/ti-project/clllc_nonpowerSUITE_F28004x/device/driver
    2901 00000614 D020          MOVB      XAR0,#32              ; [CPU_ALU] |757| 
    2902                      .dwpsn  file "C:/Users/ZXC/Documents/mcu project/ti-project/clllc_nonpowerSUITE_F28004x/device/driver
    2903 00000615 D120          MOVB      XAR1,#32              ; [CPU_ALU] |800| 
    2904                      .dwpsn  file "C:/Users/ZXC/Documents/mcu project/ti-project/clllc_nonpowerSUITE_F28004x/device/driver
    2905 00000616 DD20          ADDB      XAR5,#32              ; [CPU_ALU] |948| 
    2906                      .dwpsn  file "C:/Users/ZXC/Documents/mcu project/ti-project/clllc_nonpowerSUITE_F28004x/device/driver
TMS320C2000 Assembler PC v22.6.0 Mon Sep  2 11:55:45 2024

Copyright (c) 1996-2018 Texas Instruments Incorporated
clllc_hal.asm                                                        PAGE   64

    2907 00000617 9294          MOV       AL,*+XAR4[AR0]        ; [CPU_ALU] |757| 
    2908 00000618 D020          MOVB      XAR0,#32              ; [CPU_ALU] |757| 
    2909 00000619 5003          ORB       AL,#0x03              ; [CPU_ALU] |757| 
    2910 0000061a 9694          MOV       *+XAR4[AR0],AL        ; [CPU_ALU] |757| 
    2911                      .dwpsn  file "C:/Users/ZXC/Documents/mcu project/ti-project/clllc_nonpowerSUITE_F28004x/device/driver
    2912 0000061b D020          MOVB      XAR0,#32              ; [CPU_ALU] |843| 
    2913 0000061c CC94          AND       AL,*+XAR4[AR0],#0xfff7 ; [CPU_ALU] |843| 
         0000061d FFF7 
    2914 0000061e D020          MOVB      XAR0,#32              ; [CPU_ALU] |843| 
    2915 0000061f 5010          ORB       AL,#0x10              ; [CPU_ALU] |843| 
    2916 00000620 9694          MOV       *+XAR4[AR0],AL        ; [CPU_ALU] |843| 
    2917                      .dwpsn  file "C:/Users/ZXC/Documents/mcu project/ti-project/clllc_nonpowerSUITE_F28004x/device/driver
    2918 00000621 D020          MOVB      XAR0,#32              ; [CPU_ALU] |757| 
    2919 00000622 9294          MOV       AL,*+XAR4[AR0]        ; [CPU_ALU] |757| 
    2920 00000623 D020          MOVB      XAR0,#32              ; [CPU_ALU] |757| 
    2921 00000624 1AA9          OR        AL,#0x0300            ; [CPU_ALU] |757| 
         00000625 0300 
    2922 00000626 9694          MOV       *+XAR4[AR0],AL        ; [CPU_ALU] |757| 
    2923                      .dwpsn  file "C:/Users/ZXC/Documents/mcu project/ti-project/clllc_nonpowerSUITE_F28004x/device/driver
    2924 00000627 D020          MOVB      XAR0,#32              ; [CPU_ALU] |843| 
    2925 00000628 CC94          AND       AL,*+XAR4[AR0],#0xf7ff ; [CPU_ALU] |843| 
         00000629 F7FF 
    2926 0000062a D020          MOVB      XAR0,#32              ; [CPU_ALU] |843| 
    2927 0000062b 1AA9          OR        AL,#0x1000            ; [CPU_ALU] |843| 
         0000062c 1000 
    2928 0000062d 9694          MOV       *+XAR4[AR0],AL        ; [CPU_ALU] |843| 
    2929                      .dwpsn  file "C:/Users/ZXC/Documents/mcu project/ti-project/clllc_nonpowerSUITE_F28004x/device/driver
    2930 0000062e D020          MOVB      XAR0,#32              ; [CPU_ALU] |800| 
    2931 0000062f CC94          AND       AL,*+XAR4[AR0],#0xfffb ; [CPU_ALU] |800| 
         00000630 FFFB 
    2932 00000631 D020          MOVB      XAR0,#32              ; [CPU_ALU] |800| 
    2933 00000632 969C          MOV       *+XAR4[AR1],AL        ; [CPU_FPU] |800| 
    2934 00000633 D120          MOVB      XAR1,#32              ; [CPU_FPU] |800| 
    2935 00000634 CC94          AND       AL,*+XAR4[AR0],#0xfbff ; [CPU_FPU] |800| 
         00000635 FBFF 
    2936                      .dwpsn  file "C:/Users/ZXC/Documents/mcu project/ti-project/clllc_nonpowerSUITE_F28004x/device/driver
    2937 00000636 D027          MOVB      XAR0,#39              ; [CPU_FPU] |1558| 
    2938                      .dwpsn  file "C:/Users/ZXC/Documents/mcu project/ti-project/clllc_nonpowerSUITE_F28004x/device/driver
    2939 00000637 969C          MOV       *+XAR4[AR1],AL        ; [CPU_FPU] |800| 
    2940                      .dwpsn  file "C:/Users/ZXC/Documents/mcu project/ti-project/clllc_nonpowerSUITE_F28004x/device/driver
    2941 00000638 9294          MOV       AL,*+XAR4[AR0]        ; [CPU_FPU] |1558| 
    2942 00000639 D027          MOVB      XAR0,#39              ; [CPU_FPU] |1558| 
    2943 0000063a 5003          ORB       AL,#0x03              ; [CPU_ALU] |1558| 
    2944 0000063b 9694          MOV       *+XAR4[AR0],AL        ; [CPU_FPU] |1558| 
    2945                      .dwpsn  file "C:/Users/ZXC/Documents/mcu project/ti-project/clllc_nonpowerSUITE_F28004x/device/driver
    2946 0000063c 1AC5          OR        *+XAR5[0],#0x0040     ; [CPU_ALU] |948| 
         0000063d 0040 
    2947                      .dwpsn  file "C:/Users/ZXC/Documents/mcu project/ti-project/clllc_nonpowerSUITE_F28004x/device/driver
    2948 0000063e DC2D          ADDB      XAR4,#45              ; [CPU_ALU] |1003| 
    2949 0000063f 1AC4          OR        *+XAR4[0],#0x0001     ; [CPU_ALU] |1003| 
         00000640 0001 
    2950                      .dwpsn  file "C:/Users/ZXC/Documents/mcu project/ti-project/clllc_nonpowerSUITE_F28004x/device/driver
    2951 00000641 761A          EDIS      ; [CPU_ALU] |1004| 
    2952 00000642 8BBE          MOVL      XAR1,*--SP            ; [CPU_ALU] 
    2953                      .dwcfi  cfa_offset, -2
TMS320C2000 Assembler PC v22.6.0 Mon Sep  2 11:55:45 2024

Copyright (c) 1996-2018 Texas Instruments Incorporated
clllc_hal.asm                                                        PAGE   65

    2954                      .dwcfi  restore_reg, 7
    2955              $C$DW$184       .dwtag  DW_TAG_TI_branch
    2956                      .dwattr $C$DW$184, DW_AT_low_pc(0x00)
    2957                      .dwattr $C$DW$184, DW_AT_TI_return
    2958              
    2959 00000643 0006          LRETR     ; [CPU_ALU] 
    2960                      ; return occurs ; [] 
    2961                      .dwattr $C$DW$174, DW_AT_TI_end_file("../clllc_hal.c")
    2962                      .dwattr $C$DW$174, DW_AT_TI_end_line(0x7e2)
    2963                      .dwattr $C$DW$174, DW_AT_TI_end_column(0x01)
    2964                      .dwendentry
    2965                      .dwendtag $C$DW$174
    2966              
    2967 00000644               .sect   ".text"
    2968                      .clink
    2969                      .global ||CLLLC_HAL_setupPWM||
    2970              
    2971              $C$DW$185       .dwtag  DW_TAG_subprogram
    2972                      .dwattr $C$DW$185, DW_AT_name("CLLLC_HAL_setupPWM")
    2973                      .dwattr $C$DW$185, DW_AT_low_pc(||CLLLC_HAL_setupPWM||)
    2974                      .dwattr $C$DW$185, DW_AT_high_pc(0x00)
    2975                      .dwattr $C$DW$185, DW_AT_linkage_name("CLLLC_HAL_setupPWM")
    2976                      .dwattr $C$DW$185, DW_AT_external
    2977                      .dwattr $C$DW$185, DW_AT_decl_file("../clllc_hal.c")
    2978                      .dwattr $C$DW$185, DW_AT_decl_line(0x5c6)
    2979                      .dwattr $C$DW$185, DW_AT_decl_column(0x06)
    2980                      .dwattr $C$DW$185, DW_AT_TI_max_frame_size(-4)
    2981                      .dwpsn  file "../clllc_hal.c",line 1479,column 1,is_stmt,address ||CLLLC_HAL_setupPWM||,isa 0
    2982              
    2983                      .dwfde $C$DW$CIE, ||CLLLC_HAL_setupPWM||
    2984              $C$DW$186       .dwtag  DW_TAG_formal_parameter
    2985                      .dwattr $C$DW$186, DW_AT_name("powerFlowDir")
    2986                      .dwattr $C$DW$186, DW_AT_type(*$C$DW$T$163)
    2987                      .dwattr $C$DW$186, DW_AT_location[DW_OP_reg0]
    2988              
    2989              
    2990              ;***************************************************************
    2991              ;* FNAME: CLLLC_HAL_setupPWM            FR SIZE:   2           *
    2992              ;*                                                             *
    2993              ;* FUNCTION ENVIRONMENT                                        *
    2994              ;*                                                             *
    2995              ;* FUNCTION PROPERTIES                                         *
    2996              ;*                            0 Parameter,  0 Auto,  2 SOE     *
    2997              ;***************************************************************
    2998              
    2999              ||CLLLC_HAL_setupPWM||:
    3000              ;* AR1   assigned to powerFlowDir
    3001              $C$DW$187       .dwtag  DW_TAG_variable
    3002                      .dwattr $C$DW$187, DW_AT_name("powerFlowDir")
    3003                      .dwattr $C$DW$187, DW_AT_type(*$C$DW$T$237)
    3004                      .dwattr $C$DW$187, DW_AT_location[DW_OP_reg6]
    3005              
    3006              ;* AL    assigned to status
    3007              $C$DW$188       .dwtag  DW_TAG_variable
    3008                      .dwattr $C$DW$188, DW_AT_name("status")
TMS320C2000 Assembler PC v22.6.0 Mon Sep  2 11:55:45 2024

Copyright (c) 1996-2018 Texas Instruments Incorporated
clllc_hal.asm                                                        PAGE   66

    3009                      .dwattr $C$DW$188, DW_AT_type(*$C$DW$T$163)
    3010                      .dwattr $C$DW$188, DW_AT_location[DW_OP_reg0]
    3011              
    3012                      .dwcfi  cfa_offset, -2
    3013                      .dwcfi  save_reg_to_mem, 26, 0
    3014 00000644 B2BD          MOVL      *SP++,XAR1            ; [CPU_ALU] 
    3015                      .dwcfi  save_reg_to_mem, 7, 2
    3016                      .dwcfi  cfa_offset, -4
    3017 00000645 59A9          MOVZ      AR1,AL                ; [CPU_ALU] |1479| 
    3018 00000646       ||$C$L13||:    
    3019 00000646 FF69          SPM       #0                    ; [CPU_ALU] 
    3020                      .dwpsn  file "../clllc_hal.c",line 1492,column 8,is_stmt,isa 0
    3021              $C$DW$189       .dwtag  DW_TAG_TI_branch
    3022                      .dwattr $C$DW$189, DW_AT_low_pc(0x00)
    3023                      .dwattr $C$DW$189, DW_AT_name("SFO")
    3024                      .dwattr $C$DW$189, DW_AT_TI_call
    3025              
    3026 00000647 7640!         LCR       #||SFO||              ; [CPU_ALU] |1492| 
         00000648 0000 
    3027                      ; call occurs [#||SFO||] ; [] |1492| 
    3028 00000649 5202          CMPB      AL,#2                 ; [CPU_ALU] |1492| 
    3029 0000064a 6002          B         ||$C$L14||,NEQ        ; [CPU_ALU] |1492| 
    3030                      ; branchcc occurs ; [] |1492| 
    3031 0000064b 7625   ESTOP0
    3032 0000064c       ||$C$L14||:    
    3033                      .dwpsn  file "../clllc_hal.c",line 1490,column 11,is_stmt,isa 0
    3034 0000064c 5200          CMPB      AL,#0                 ; [CPU_ALU] |1490| 
    3035 0000064d 61F9          B         ||$C$L13||,EQ         ; [CPU_ALU] |1490| 
    3036                      ; branchcc occurs ; [] |1490| 
    3037 0000064e 92A1          MOV       AL,AR1                ; [CPU_ALU] 
    3038                      .dwpsn  file "../clllc_hal.c",line 1505,column 5,is_stmt,isa 0
    3039 0000064f 5201          CMPB      AL,#1                 ; [CPU_ALU] |1505| 
    3040 00000650 FFE1          B         ||$C$L15||,EQ         ; [CPU_ALU] |1505| 
         00000651 0099 
    3041                      ; branchcc occurs ; [] |1505| 
    3042                      .dwpsn  file "../clllc_hal.c",line 1617,column 9,is_stmt,isa 0
    3043 00000652 E802          MOVIZ     R0H,#18676            ; [CPU_FPU] |1617| 
         00000653 47A0 
    3044 00000654 E802          MOVIZ     R1H,#19646            ; [CPU_FPU] |1617| 
         00000655 65F1 
    3045 00000656 FF20          MOV       ACC,#16384            ; [CPU_ALU] |1617| 
         00000657 4000 
    3046 00000658 FF69          SPM       #0                    ; [CPU_ALU] 
    3047 00000659 E80C          MOVXI     R0H,#34816            ; [CPU_FPU] |1617| 
         0000065a 4000 
    3048 0000065b E80D          MOVXI     R1H,#48160            ; [CPU_FPU] |1617| 
         0000065c E101 
    3049              $C$DW$190       .dwtag  DW_TAG_TI_branch
    3050                      .dwattr $C$DW$190, DW_AT_low_pc(0x00)
    3051                      .dwattr $C$DW$190, DW_AT_name("CLLLC_HAL_setupHRPWMinUpDownCount2ChAsymmetricMode")
    3052                      .dwattr $C$DW$190, DW_AT_TI_call
    3053              
    3054 0000065d 7640!         LCR       #||CLLLC_HAL_setupHRPWMinUpDownCount2ChAsymmetricMode|| ; [CPU_ALU] |1617| 
         0000065e 0000 
    3055                      ; call occurs [#||CLLLC_HAL_setupHRPWMinUpDownCount2ChAsymmetricMode||] ; [] |1617| 
TMS320C2000 Assembler PC v22.6.0 Mon Sep  2 11:55:45 2024

Copyright (c) 1996-2018 Texas Instruments Incorporated
clllc_hal.asm                                                        PAGE   67

    3056                      .dwpsn  file "../clllc_hal.c",line 1621,column 9,is_stmt,isa 0
    3057 0000065f E802          MOVIZ     R0H,#18676            ; [CPU_FPU] |1621| 
         00000660 47A0 
    3058 00000661 E802          MOVIZ     R1H,#19646            ; [CPU_FPU] |1621| 
         00000662 65F1 
    3059 00000663 FF20          MOV       ACC,#16640            ; [CPU_ALU] |1621| 
         00000664 4100 
    3060 00000665 E80C          MOVXI     R0H,#34816            ; [CPU_FPU] |1621| 
         00000666 4000 
    3061 00000667 E80D          MOVXI     R1H,#48160            ; [CPU_FPU] |1621| 
         00000668 E101 
    3062              $C$DW$191       .dwtag  DW_TAG_TI_branch
    3063                      .dwattr $C$DW$191, DW_AT_low_pc(0x00)
    3064                      .dwattr $C$DW$191, DW_AT_name("CLLLC_HAL_setupHRPWMinUpDownCount2ChAsymmetricMode")
    3065                      .dwattr $C$DW$191, DW_AT_TI_call
    3066              
    3067 00000669 7640!         LCR       #||CLLLC_HAL_setupHRPWMinUpDownCount2ChAsymmetricMode|| ; [CPU_ALU] |1621| 
         0000066a 0000 
    3068                      ; call occurs [#||CLLLC_HAL_setupHRPWMinUpDownCount2ChAsymmetricMode||] ; [] |1621| 
    3069                      .dwpsn  file "../clllc_hal.c",line 1630,column 9,is_stmt,isa 0
    3070 0000066b E802          MOVIZ     R2H,#17100            ; [CPU_FPU] |1630| 
         0000066c 1662 
    3071 0000066d E80C          MOVXI     R2H,#39322            ; [CPU_FPU] |1630| 
         0000066e CCD2 
    3072 0000066f E802          MOVIZ     R0H,#18676            ; [CPU_FPU] |1630| 
         00000670 47A0 
    3073 00000671 E802          MOVIZ     R1H,#19646            ; [CPU_FPU] |1630| 
         00000672 65F1 
    3074 00000673 FF20          MOV       ACC,#16896            ; [CPU_ALU] |1630| 
         00000674 4200 
    3075 00000675 E80C          MOVXI     R0H,#34816            ; [CPU_FPU] |1630| 
         00000676 4000 
    3076 00000677 E80D          MOVXI     R1H,#48160            ; [CPU_FPU] |1630| 
         00000678 E101 
    3077              $C$DW$192       .dwtag  DW_TAG_TI_branch
    3078                      .dwattr $C$DW$192, DW_AT_low_pc(0x00)
    3079                      .dwattr $C$DW$192, DW_AT_name("CLLLC_HAL_setupHRPWMinUpDownCountModeWithDeadBand")
    3080                      .dwattr $C$DW$192, DW_AT_TI_call
    3081              
    3082 00000679 7640!         LCR       #||CLLLC_HAL_setupHRPWMinUpDownCountModeWithDeadBand|| ; [CPU_ALU] |1630| 
         0000067a 0000 
    3083                      ; call occurs [#||CLLLC_HAL_setupHRPWMinUpDownCountModeWithDeadBand||] ; [] |1630| 
    3084                      .dwpsn  file "../clllc_hal.c",line 1636,column 9,is_stmt,isa 0
    3085 0000067b E802          MOVIZ     R0H,#18676            ; [CPU_FPU] |1636| 
         0000067c 47A0 
    3086 0000067d E802          MOVIZ     R2H,#17100            ; [CPU_FPU] |1636| 
         0000067e 1662 
    3087 0000067f E802          MOVIZ     R1H,#19646            ; [CPU_FPU] |1636| 
         00000680 65F1 
    3088 00000681 FF20          MOV       ACC,#17152            ; [CPU_ALU] |1636| 
         00000682 4300 
    3089 00000683 E80C          MOVXI     R0H,#34816            ; [CPU_FPU] |1636| 
         00000684 4000 
    3090 00000685 E80C          MOVXI     R2H,#39322            ; [CPU_FPU] |1636| 
         00000686 CCD2 
TMS320C2000 Assembler PC v22.6.0 Mon Sep  2 11:55:45 2024

Copyright (c) 1996-2018 Texas Instruments Incorporated
clllc_hal.asm                                                        PAGE   68

    3091 00000687 E80D          MOVXI     R1H,#48160            ; [CPU_FPU] |1636| 
         00000688 E101 
    3092              $C$DW$193       .dwtag  DW_TAG_TI_branch
    3093                      .dwattr $C$DW$193, DW_AT_low_pc(0x00)
    3094                      .dwattr $C$DW$193, DW_AT_name("CLLLC_HAL_setupHRPWMinUpDownCountModeWithDeadBand")
    3095                      .dwattr $C$DW$193, DW_AT_TI_call
    3096              
    3097 00000689 7640!         LCR       #||CLLLC_HAL_setupHRPWMinUpDownCountModeWithDeadBand|| ; [CPU_ALU] |1636| 
         0000068a 0000 
    3098                      ; call occurs [#||CLLLC_HAL_setupHRPWMinUpDownCountModeWithDeadBand||] ; [] |1636| 
    3099                      .dwpsn  file "C:/Users/ZXC/Documents/mcu project/ti-project/clllc_nonpowerSUITE_F28004x/device/driver
    3100 0000068b F5A9          MOV       AL,*(0:0x4000)        ; [CPU_ALU] |1821| 
         0000068c 4000 
    3101 0000068d 18A9          AND       AL,#0xfffb            ; [CPU_ALU] |1821| 
         0000068e FFFB 
    3102 0000068f F4A9          MOV       *(0:0x4000),AL        ; [CPU_ALU] |1821| 
         00000690 4000 
    3103 00000691 F5A9          MOV       AL,*(0:0x4100)        ; [CPU_ALU] |1821| 
         00000692 4100 
    3104 00000693 18A9          AND       AL,#0xfffb            ; [CPU_ALU] |1821| 
         00000694 FFFB 
    3105 00000695 F4A9          MOV       *(0:0x4100),AL        ; [CPU_ALU] |1821| 
         00000696 4100 
    3106                      .dwpsn  file "C:/Users/ZXC/Documents/mcu project/ti-project/clllc_nonpowerSUITE_F28004x/device/driver
    3107 00000697 F5A9          MOV       AL,*(0:0x4000)        ; [CPU_ALU] |1709| 
         00000698 4000 
    3108 00000699 CCA9          AND       AL,AL,#0xffdf         ; [CPU_ALU] |1709| 
         0000069a FFDF 
    3109 0000069b 5010          ORB       AL,#0x10              ; [CPU_ALU] |1709| 
    3110 0000069c F4A9          MOV       *(0:0x4000),AL        ; [CPU_ALU] |1709| 
         0000069d 4000 
    3111 0000069e F5A9          MOV       AL,*(0:0x4100)        ; [CPU_ALU] |1709| 
         0000069f 4100 
    3112 000006a0 18A9          AND       AL,#0xffcf            ; [CPU_ALU] |1709| 
         000006a1 FFCF 
    3113 000006a2 F4A9          MOV       *(0:0x4100),AL        ; [CPU_ALU] |1709| 
         000006a3 4100 
    3114                      .dwpsn  file "C:/Users/ZXC/Documents/mcu project/ti-project/clllc_nonpowerSUITE_F28004x/device/driver
    3115 000006a4 F5A9          MOV       AL,*(0:0x4200)        ; [CPU_ALU] |1796| 
         000006a5 4200 
    3116 000006a6 5004          ORB       AL,#0x04              ; [CPU_ALU] |1796| 
    3117 000006a7 F4A9          MOV       *(0:0x4200),AL        ; [CPU_ALU] |1796| 
         000006a8 4200 
    3118                      .dwpsn  file "C:/Users/ZXC/Documents/mcu project/ti-project/clllc_nonpowerSUITE_F28004x/device/driver
    3119 000006a9 F5A9          MOV       AL,*(0:0x4200)        ; [CPU_ALU] |1709| 
         000006aa 4200 
    3120 000006ab 18A9          AND       AL,#0xffcf            ; [CPU_ALU] |1709| 
         000006ac FFCF 
    3121 000006ad F4A9          MOV       *(0:0x4200),AL        ; [CPU_ALU] |1709| 
         000006ae 4200 
    3122                      .dwpsn  file "C:/Users/ZXC/Documents/mcu project/ti-project/clllc_nonpowerSUITE_F28004x/device/driver
    3123 000006af BFA9          MOV32     ACC,*(0:0x4260)       ; [CPU_FPU] |2151| 
         000006b0 4260 
    3124 000006b1 9100          ANDB      AH,#0                 ; [CPU_ALU] |2151| 
    3125 000006b2 5102          OR        AH,#2                 ; [CPU_ALU] |2151| 
TMS320C2000 Assembler PC v22.6.0 Mon Sep  2 11:55:45 2024

Copyright (c) 1996-2018 Texas Instruments Incorporated
clllc_hal.asm                                                        PAGE   69

    3126 000006b3 BDA9          MOV32     *(0:0x4260),ACC       ; [CPU_FPU] |2151| 
         000006b4 4260 
    3127                      .dwpsn  file "C:/Users/ZXC/Documents/mcu project/ti-project/clllc_nonpowerSUITE_F28004x/device/driver
    3128 000006b5 F5A9          MOV       AL,*(0:0x4200)        ; [CPU_ALU] |1584| 
         000006b6 4200 
    3129 000006b7 1AA9          OR        AL,#0x2000            ; [CPU_ALU] |1584| 
         000006b8 2000 
    3130 000006b9 F4A9          MOV       *(0:0x4200),AL        ; [CPU_ALU] |1584| 
         000006ba 4200 
    3131                      .dwpsn  file "C:\Users\ZXC\Documents\mcu project\ti-project\clllc_nonpowerSUITE_F28004x\device\driver
    3132 000006bb 7622          EALLOW    ; [CPU_ALU] |2486| 
    3133                      .dwpsn  file "C:\Users\ZXC\Documents\mcu project\ti-project\clllc_nonpowerSUITE_F28004x\device\driver
    3134 000006bc BFA9          MOV32     ACC,*(0:0x7940)       ; [CPU_FPU] |2500| 
         000006bd 7940 
    3135 000006be 18A9          AND       AL,#65528             ; [CPU_ALU] |2500| 
         000006bf FFF8 
    3136 000006c0 BDA9          MOV32     *(0:0x7940),ACC       ; [CPU_FPU] |2500| 
         000006c1 7940 
    3137                      .dwpsn  file "C:\Users\ZXC\Documents\mcu project\ti-project\clllc_nonpowerSUITE_F28004x\device\driver
    3138 000006c2 761A          EDIS      ; [CPU_ALU] |2505| 
    3139                      .dwpsn  file "C:/Users/ZXC/Documents/mcu project/ti-project/clllc_nonpowerSUITE_F28004x/device/driver
    3140 000006c3 F5A9          MOV       AL,*(0:0x4300)        ; [CPU_ALU] |1796| 
         000006c4 4300 
    3141 000006c5 5004          ORB       AL,#0x04              ; [CPU_ALU] |1796| 
    3142 000006c6 F4A9          MOV       *(0:0x4300),AL        ; [CPU_ALU] |1796| 
         000006c7 4300 
    3143                      .dwpsn  file "C:/Users/ZXC/Documents/mcu project/ti-project/clllc_nonpowerSUITE_F28004x/device/driver
    3144 000006c8 F5A9          MOV       AL,*(0:0x4100)        ; [CPU_ALU] |1709| 
         000006c9 4100 
    3145 000006ca CCA9          AND       AL,AL,#0xffdf         ; [CPU_ALU] |1709| 
         000006cb FFDF 
    3146 000006cc 5010          ORB       AL,#0x10              ; [CPU_ALU] |1709| 
    3147 000006cd F4A9          MOV       *(0:0x4100),AL        ; [CPU_ALU] |1709| 
         000006ce 4100 
    3148                      .dwpsn  file "C:/Users/ZXC/Documents/mcu project/ti-project/clllc_nonpowerSUITE_F28004x/device/driver
    3149 000006cf BFA9          MOV32     ACC,*(0:0x4360)       ; [CPU_FPU] |2151| 
         000006d0 4360 
    3150 000006d1 9100          ANDB      AH,#0                 ; [CPU_ALU] |2151| 
    3151 000006d2 5102          OR        AH,#2                 ; [CPU_ALU] |2151| 
    3152 000006d3 BDA9          MOV32     *(0:0x4360),ACC       ; [CPU_FPU] |2151| 
         000006d4 4360 
    3153                      .dwpsn  file "C:/Users/ZXC/Documents/mcu project/ti-project/clllc_nonpowerSUITE_F28004x/device/driver
    3154 000006d5 F5A9          MOV       AL,*(0:0x4300)        ; [CPU_ALU] |1584| 
         000006d6 4300 
    3155 000006d7 1AA9          OR        AL,#0x2000            ; [CPU_ALU] |1584| 
         000006d8 2000 
    3156 000006d9 F4A9          MOV       *(0:0x4300),AL        ; [CPU_ALU] |1584| 
         000006da 4300 
    3157                      .dwpsn  file "../clllc_hal.c",line 1683,column 9,is_stmt,isa 0
    3158 000006db F5A9          MOV       AL,*(0:0x410c)        ; [CPU_ALU] |1683| 
         000006dc 410C 
    3159 000006dd 1AA9          OR        AL,#0x3000            ; [CPU_ALU] |1683| 
         000006de 3000 
    3160 000006df F4A9          MOV       *(0:0x410c),AL        ; [CPU_ALU] |1683| 
         000006e0 410C 
TMS320C2000 Assembler PC v22.6.0 Mon Sep  2 11:55:45 2024

Copyright (c) 1996-2018 Texas Instruments Incorporated
clllc_hal.asm                                                        PAGE   70

    3161                      .dwpsn  file "../clllc_hal.c",line 1687,column 9,is_stmt,isa 0
    3162 000006e1 F5A9          MOV       AL,*(0:0x420c)        ; [CPU_ALU] |1687| 
         000006e2 420C 
    3163 000006e3 1AA9          OR        AL,#0x3000            ; [CPU_ALU] |1687| 
         000006e4 3000 
    3164 000006e5 F4A9          MOV       *(0:0x430c),AL        ; [CPU_ALU] |1687| 
         000006e6 430C 
    3165                      .dwpsn  file "../clllc_hal.c",line 1714,column 9,is_stmt,isa 0
    3166 000006e7 FFEF          B         ||$C$L16||,UNC        ; [CPU_ALU] |1714| 
         000006e8 0097 
    3167                      ; branch occurs ; [] |1714| 
    3168 000006e9       ||$C$L15||:    
    3169                      .dwpsn  file "../clllc_hal.c",line 1510,column 9,is_stmt,isa 0
    3170 000006e9 E802          MOVIZ     R0H,#18676            ; [CPU_FPU] |1510| 
         000006ea 47A0 
    3171 000006eb E802          MOVIZ     R1H,#19646            ; [CPU_FPU] |1510| 
         000006ec 65F1 
    3172 000006ed E802          MOVIZ     R2H,#17100            ; [CPU_FPU] |1510| 
         000006ee 1662 
    3173 000006ef FF20          MOV       ACC,#16384            ; [CPU_ALU] |1510| 
         000006f0 4000 
    3174 000006f1 FF69          SPM       #0                    ; [CPU_ALU] 
    3175 000006f2 E80C          MOVXI     R0H,#34816            ; [CPU_FPU] |1510| 
         000006f3 4000 
    3176 000006f4 E80D          MOVXI     R1H,#48160            ; [CPU_FPU] |1510| 
         000006f5 E101 
    3177 000006f6 E80C          MOVXI     R2H,#39322            ; [CPU_FPU] |1510| 
         000006f7 CCD2 
    3178              $C$DW$194       .dwtag  DW_TAG_TI_branch
    3179                      .dwattr $C$DW$194, DW_AT_low_pc(0x00)
    3180                      .dwattr $C$DW$194, DW_AT_name("CLLLC_HAL_setupHRPWMinUpDownCountModeWithDeadBand")
    3181                      .dwattr $C$DW$194, DW_AT_TI_call
    3182              
    3183 000006f8 7640!         LCR       #||CLLLC_HAL_setupHRPWMinUpDownCountModeWithDeadBand|| ; [CPU_ALU] |1510| 
         000006f9 0000 
    3184                      ; call occurs [#||CLLLC_HAL_setupHRPWMinUpDownCountModeWithDeadBand||] ; [] |1510| 
    3185                      .dwpsn  file "../clllc_hal.c",line 1516,column 9,is_stmt,isa 0
    3186 000006fa E802          MOVIZ     R0H,#18676            ; [CPU_FPU] |1516| 
         000006fb 47A0 
    3187 000006fc E802          MOVIZ     R2H,#17100            ; [CPU_FPU] |1516| 
         000006fd 1662 
    3188 000006fe E802          MOVIZ     R1H,#19646            ; [CPU_FPU] |1516| 
         000006ff 65F1 
    3189 00000700 FF20          MOV       ACC,#16640            ; [CPU_ALU] |1516| 
         00000701 4100 
    3190 00000702 E80C          MOVXI     R0H,#34816            ; [CPU_FPU] |1516| 
         00000703 4000 
    3191 00000704 E80C          MOVXI     R2H,#39322            ; [CPU_FPU] |1516| 
         00000705 CCD2 
    3192 00000706 E80D          MOVXI     R1H,#48160            ; [CPU_FPU] |1516| 
         00000707 E101 
    3193              $C$DW$195       .dwtag  DW_TAG_TI_branch
    3194                      .dwattr $C$DW$195, DW_AT_low_pc(0x00)
    3195                      .dwattr $C$DW$195, DW_AT_name("CLLLC_HAL_setupHRPWMinUpDownCountModeWithDeadBand")
    3196                      .dwattr $C$DW$195, DW_AT_TI_call
TMS320C2000 Assembler PC v22.6.0 Mon Sep  2 11:55:45 2024

Copyright (c) 1996-2018 Texas Instruments Incorporated
clllc_hal.asm                                                        PAGE   71

    3197              
    3198 00000708 7640!         LCR       #||CLLLC_HAL_setupHRPWMinUpDownCountModeWithDeadBand|| ; [CPU_ALU] |1516| 
         00000709 0000 
    3199                      ; call occurs [#||CLLLC_HAL_setupHRPWMinUpDownCountModeWithDeadBand||] ; [] |1516| 
    3200                      .dwpsn  file "../clllc_hal.c",line 1526,column 9,is_stmt,isa 0
    3201 0000070a E802          MOVIZ     R0H,#18676            ; [CPU_FPU] |1526| 
         0000070b 47A0 
    3202 0000070c E802          MOVIZ     R1H,#19646            ; [CPU_FPU] |1526| 
         0000070d 65F1 
    3203 0000070e FF20          MOV       ACC,#16896            ; [CPU_ALU] |1526| 
         0000070f 4200 
    3204 00000710 E80C          MOVXI     R0H,#34816            ; [CPU_FPU] |1526| 
         00000711 4000 
    3205 00000712 E80D          MOVXI     R1H,#48160            ; [CPU_FPU] |1526| 
         00000713 E101 
    3206              $C$DW$196       .dwtag  DW_TAG_TI_branch
    3207                      .dwattr $C$DW$196, DW_AT_low_pc(0x00)
    3208                      .dwattr $C$DW$196, DW_AT_name("CLLLC_HAL_setupHRPWMinUpDownCount2ChAsymmetricMode")
    3209                      .dwattr $C$DW$196, DW_AT_TI_call
    3210              
    3211 00000714 7640!         LCR       #||CLLLC_HAL_setupHRPWMinUpDownCount2ChAsymmetricMode|| ; [CPU_ALU] |1526| 
         00000715 0000 
    3212                      ; call occurs [#||CLLLC_HAL_setupHRPWMinUpDownCount2ChAsymmetricMode||] ; [] |1526| 
    3213                      .dwpsn  file "../clllc_hal.c",line 1530,column 9,is_stmt,isa 0
    3214 00000716 E802          MOVIZ     R0H,#18676            ; [CPU_FPU] |1530| 
         00000717 47A0 
    3215 00000718 E802          MOVIZ     R1H,#19646            ; [CPU_FPU] |1530| 
         00000719 65F1 
    3216 0000071a FF20          MOV       ACC,#17152            ; [CPU_ALU] |1530| 
         0000071b 4300 
    3217 0000071c E80C          MOVXI     R0H,#34816            ; [CPU_FPU] |1530| 
         0000071d 4000 
    3218 0000071e E80D          MOVXI     R1H,#48160            ; [CPU_FPU] |1530| 
         0000071f E101 
    3219              $C$DW$197       .dwtag  DW_TAG_TI_branch
    3220                      .dwattr $C$DW$197, DW_AT_low_pc(0x00)
    3221                      .dwattr $C$DW$197, DW_AT_name("CLLLC_HAL_setupHRPWMinUpDownCount2ChAsymmetricMode")
    3222                      .dwattr $C$DW$197, DW_AT_TI_call
    3223              
    3224 00000720 7640!         LCR       #||CLLLC_HAL_setupHRPWMinUpDownCount2ChAsymmetricMode|| ; [CPU_ALU] |1530| 
         00000721 0000 
    3225                      ; call occurs [#||CLLLC_HAL_setupHRPWMinUpDownCount2ChAsymmetricMode||] ; [] |1530| 
    3226                      .dwpsn  file "C:/Users/ZXC/Documents/mcu project/ti-project/clllc_nonpowerSUITE_F28004x/device/driver
    3227 00000722 F5A9          MOV       AL,*(0:0x4000)        ; [CPU_ALU] |1821| 
         00000723 4000 
    3228 00000724 18A9          AND       AL,#0xfffb            ; [CPU_ALU] |1821| 
         00000725 FFFB 
    3229 00000726 F4A9          MOV       *(0:0x4000),AL        ; [CPU_ALU] |1821| 
         00000727 4000 
    3230 00000728 F5A9          MOV       AL,*(0:0x4100)        ; [CPU_ALU] |1821| 
         00000729 4100 
    3231 0000072a 18A9          AND       AL,#0xfffb            ; [CPU_ALU] |1821| 
         0000072b FFFB 
    3232 0000072c F4A9          MOV       *(0:0x4100),AL        ; [CPU_ALU] |1821| 
         0000072d 4100 
TMS320C2000 Assembler PC v22.6.0 Mon Sep  2 11:55:45 2024

Copyright (c) 1996-2018 Texas Instruments Incorporated
clllc_hal.asm                                                        PAGE   72

    3233                      .dwpsn  file "C:/Users/ZXC/Documents/mcu project/ti-project/clllc_nonpowerSUITE_F28004x/device/driver
    3234 0000072e F5A9          MOV       AL,*(0:0x4000)        ; [CPU_ALU] |1709| 
         0000072f 4000 
    3235 00000730 CCA9          AND       AL,AL,#0xffdf         ; [CPU_ALU] |1709| 
         00000731 FFDF 
    3236 00000732 5010          ORB       AL,#0x10              ; [CPU_ALU] |1709| 
    3237 00000733 F4A9          MOV       *(0:0x4000),AL        ; [CPU_ALU] |1709| 
         00000734 4000 
    3238 00000735 F5A9          MOV       AL,*(0:0x4100)        ; [CPU_ALU] |1709| 
         00000736 4100 
    3239 00000737 18A9          AND       AL,#0xffcf            ; [CPU_ALU] |1709| 
         00000738 FFCF 
    3240 00000739 F4A9          MOV       *(0:0x4100),AL        ; [CPU_ALU] |1709| 
         0000073a 4100 
    3241                      .dwpsn  file "C:/Users/ZXC/Documents/mcu project/ti-project/clllc_nonpowerSUITE_F28004x/device/driver
    3242 0000073b F5A9          MOV       AL,*(0:0x4200)        ; [CPU_ALU] |1796| 
         0000073c 4200 
    3243 0000073d 5004          ORB       AL,#0x04              ; [CPU_ALU] |1796| 
    3244 0000073e F4A9          MOV       *(0:0x4200),AL        ; [CPU_ALU] |1796| 
         0000073f 4200 
    3245                      .dwpsn  file "C:/Users/ZXC/Documents/mcu project/ti-project/clllc_nonpowerSUITE_F28004x/device/driver
    3246 00000740 F5A9          MOV       AL,*(0:0x4200)        ; [CPU_ALU] |1709| 
         00000741 4200 
    3247 00000742 18A9          AND       AL,#0xffcf            ; [CPU_ALU] |1709| 
         00000743 FFCF 
    3248 00000744 F4A9          MOV       *(0:0x4200),AL        ; [CPU_ALU] |1709| 
         00000745 4200 
    3249                      .dwpsn  file "C:/Users/ZXC/Documents/mcu project/ti-project/clllc_nonpowerSUITE_F28004x/device/driver
    3250 00000746 BFA9          MOV32     ACC,*(0:0x4260)       ; [CPU_FPU] |2151| 
         00000747 4260 
    3251 00000748 9100          ANDB      AH,#0                 ; [CPU_ALU] |2151| 
    3252 00000749 5102          OR        AH,#2                 ; [CPU_ALU] |2151| 
    3253 0000074a BDA9          MOV32     *(0:0x4260),ACC       ; [CPU_FPU] |2151| 
         0000074b 4260 
    3254                      .dwpsn  file "C:/Users/ZXC/Documents/mcu project/ti-project/clllc_nonpowerSUITE_F28004x/device/driver
    3255 0000074c F5A9          MOV       AL,*(0:0x4200)        ; [CPU_ALU] |1584| 
         0000074d 4200 
    3256 0000074e 1AA9          OR        AL,#0x2000            ; [CPU_ALU] |1584| 
         0000074f 2000 
    3257 00000750 F4A9          MOV       *(0:0x4200),AL        ; [CPU_ALU] |1584| 
         00000751 4200 
    3258                      .dwpsn  file "C:\Users\ZXC\Documents\mcu project\ti-project\clllc_nonpowerSUITE_F28004x\device\driver
    3259 00000752 7622          EALLOW    ; [CPU_ALU] |2486| 
    3260                      .dwpsn  file "C:\Users\ZXC\Documents\mcu project\ti-project\clllc_nonpowerSUITE_F28004x\device\driver
    3261 00000753 BFA9          MOV32     ACC,*(0:0x7940)       ; [CPU_FPU] |2500| 
         00000754 7940 
    3262 00000755 18A9          AND       AL,#65528             ; [CPU_ALU] |2500| 
         00000756 FFF8 
    3263 00000757 BDA9          MOV32     *(0:0x7940),ACC       ; [CPU_FPU] |2500| 
         00000758 7940 
    3264                      .dwpsn  file "C:\Users\ZXC\Documents\mcu project\ti-project\clllc_nonpowerSUITE_F28004x\device\driver
    3265 00000759 761A          EDIS      ; [CPU_ALU] |2505| 
    3266                      .dwpsn  file "C:/Users/ZXC/Documents/mcu project/ti-project/clllc_nonpowerSUITE_F28004x/device/driver
    3267 0000075a F5A9          MOV       AL,*(0:0x4300)        ; [CPU_ALU] |1796| 
         0000075b 4300 
TMS320C2000 Assembler PC v22.6.0 Mon Sep  2 11:55:45 2024

Copyright (c) 1996-2018 Texas Instruments Incorporated
clllc_hal.asm                                                        PAGE   73

    3268 0000075c 5004          ORB       AL,#0x04              ; [CPU_ALU] |1796| 
    3269 0000075d F4A9          MOV       *(0:0x4300),AL        ; [CPU_ALU] |1796| 
         0000075e 4300 
    3270                      .dwpsn  file "C:/Users/ZXC/Documents/mcu project/ti-project/clllc_nonpowerSUITE_F28004x/device/driver
    3271 0000075f F5A9          MOV       AL,*(0:0x4300)        ; [CPU_ALU] |1709| 
         00000760 4300 
    3272 00000761 CCA9          AND       AL,AL,#0xffdf         ; [CPU_ALU] |1709| 
         00000762 FFDF 
    3273 00000763 5010          ORB       AL,#0x10              ; [CPU_ALU] |1709| 
    3274 00000764 F4A9          MOV       *(0:0x4300),AL        ; [CPU_ALU] |1709| 
         00000765 4300 
    3275                      .dwpsn  file "C:/Users/ZXC/Documents/mcu project/ti-project/clllc_nonpowerSUITE_F28004x/device/driver
    3276 00000766 BFA9          MOV32     ACC,*(0:0x4360)       ; [CPU_FPU] |2151| 
         00000767 4360 
    3277 00000768 9100          ANDB      AH,#0                 ; [CPU_ALU] |2151| 
    3278 00000769 5102          OR        AH,#2                 ; [CPU_ALU] |2151| 
    3279 0000076a BDA9          MOV32     *(0:0x4360),ACC       ; [CPU_FPU] |2151| 
         0000076b 4360 
    3280                      .dwpsn  file "C:/Users/ZXC/Documents/mcu project/ti-project/clllc_nonpowerSUITE_F28004x/device/driver
    3281 0000076c F5A9          MOV       AL,*(0:0x4300)        ; [CPU_ALU] |1584| 
         0000076d 4300 
    3282 0000076e 1AA9          OR        AL,#0x2000            ; [CPU_ALU] |1584| 
         0000076f 2000 
    3283 00000770 F4A9          MOV       *(0:0x4300),AL        ; [CPU_ALU] |1584| 
         00000771 4300 
    3284                      .dwpsn  file "../clllc_hal.c",line 1577,column 9,is_stmt,isa 0
    3285 00000772 F5A9          MOV       AL,*(0:0x410c)        ; [CPU_ALU] |1577| 
         00000773 410C 
    3286 00000774 1AA9          OR        AL,#0x3000            ; [CPU_ALU] |1577| 
         00000775 3000 
    3287 00000776 F4A9          MOV       *(0:0x410c),AL        ; [CPU_ALU] |1577| 
         00000777 410C 
    3288                      .dwpsn  file "../clllc_hal.c",line 1581,column 9,is_stmt,isa 0
    3289 00000778 F5A9          MOV       AL,*(0:0x420c)        ; [CPU_ALU] |1581| 
         00000779 420C 
    3290 0000077a 1AA9          OR        AL,#0x3000            ; [CPU_ALU] |1581| 
         0000077b 3000 
    3291 0000077c F4A9          MOV       *(0:0x420c),AL        ; [CPU_ALU] |1581| 
         0000077d 420C 
    3292 0000077e       ||$C$L16||:    
    3293                      .dwpsn  file "C:/Users/ZXC/Documents/mcu project/ti-project/clllc_nonpowerSUITE_F28004x/device/driver
    3294 0000077e BFA9          MOV32     ACC,*(0:0x4138)       ; [CPU_FPU] |2265| 
         0000077f 4138 
    3295 00000780 18A9          AND       AL,#65520             ; [CPU_ALU] |2265| 
         00000781 FFF0 
    3296 00000782 BDA9          MOV32     *(0:0x4138),ACC       ; [CPU_FPU] |2265| 
         00000783 4138 
    3297 00000784 BFA9          MOV32     ACC,*(0:0x4238)       ; [CPU_FPU] |2265| 
         00000785 4238 
    3298 00000786 18A9          AND       AL,#65520             ; [CPU_ALU] |2265| 
         00000787 FFF0 
    3299 00000788 BDA9          MOV32     *(0:0x4238),ACC       ; [CPU_FPU] |2265| 
         00000789 4238 
    3300 0000078a BFA9          MOV32     ACC,*(0:0x4338)       ; [CPU_FPU] |2265| 
         0000078b 4338 
TMS320C2000 Assembler PC v22.6.0 Mon Sep  2 11:55:45 2024

Copyright (c) 1996-2018 Texas Instruments Incorporated
clllc_hal.asm                                                        PAGE   74

    3301 0000078c 18A9          AND       AL,#65520             ; [CPU_ALU] |2265| 
         0000078d FFF0 
    3302 0000078e BDA9          MOV32     *(0:0x4338),ACC       ; [CPU_FPU] |2265| 
         0000078f 4338 
    3303 00000790 BFA9          MOV32     ACC,*(0:0x4138)       ; [CPU_FPU] |2265| 
         00000791 4138 
    3304 00000792 18A9          AND       AL,#65295             ; [CPU_ALU] |2265| 
         00000793 FF0F 
    3305 00000794 BDA9          MOV32     *(0:0x4138),ACC       ; [CPU_FPU] |2265| 
         00000795 4138 
    3306 00000796 BFA9          MOV32     ACC,*(0:0x4138)       ; [CPU_FPU] |2265| 
         00000797 4138 
    3307 00000798 18A9          AND       AL,#61695             ; [CPU_ALU] |2265| 
         00000799 F0FF 
    3308 0000079a BDA9          MOV32     *(0:0x4138),ACC       ; [CPU_FPU] |2265| 
         0000079b 4138 
    3309 0000079c BFA9          MOV32     ACC,*(0:0x4338)       ; [CPU_FPU] |2265| 
         0000079d 4338 
    3310 0000079e 18A9          AND       AL,#65295             ; [CPU_ALU] |2265| 
         0000079f FF0F 
    3311 000007a0 5020          ORB       AL,#0x20              ; [CPU_ALU] |2265| 
    3312 000007a1 BDA9          MOV32     *(0:0x4338),ACC       ; [CPU_FPU] |2265| 
         000007a2 4338 
    3313 000007a3 BFA9          MOV32     ACC,*(0:0x4338)       ; [CPU_FPU] |2265| 
         000007a4 4338 
    3314 000007a5 18A9          AND       AL,#61695             ; [CPU_ALU] |2265| 
         000007a6 F0FF 
    3315 000007a7 1AA9          OR        AL,#512               ; [CPU_ALU] |2265| 
         000007a8 0200 
    3316 000007a9 BDA9          MOV32     *(0:0x4338),ACC       ; [CPU_FPU] |2265| 
         000007aa 4338 
    3317                      .dwpsn  file "C:/Users/ZXC/Documents/mcu project/ti-project/clllc_nonpowerSUITE_F28004x/device/driver
    3318 000007ab 7622          EALLOW    ; [CPU_ALU] |7325| 
    3319                      .dwpsn  file "C:/Users/ZXC/Documents/mcu project/ti-project/clllc_nonpowerSUITE_F28004x/device/driver
    3320 000007ac F5A9          MOV       AL,*(0:0x4074)        ; [CPU_ALU] |7326| 
         000007ad 4074 
    3321 000007ae 5001          ORB       AL,#0x01              ; [CPU_ALU] |7326| 
    3322 000007af F4A9          MOV       *(0:0x4074),AL        ; [CPU_ALU] |7326| 
         000007b0 4074 
    3323                      .dwpsn  file "C:/Users/ZXC/Documents/mcu project/ti-project/clllc_nonpowerSUITE_F28004x/device/driver
    3324 000007b1 761A          EDIS      ; [CPU_ALU] |7327| 
    3325 000007b2 8BBE          MOVL      XAR1,*--SP            ; [CPU_ALU] 
    3326                      .dwcfi  cfa_offset, -2
    3327                      .dwcfi  restore_reg, 7
    3328              $C$DW$198       .dwtag  DW_TAG_TI_branch
    3329                      .dwattr $C$DW$198, DW_AT_low_pc(0x00)
    3330                      .dwattr $C$DW$198, DW_AT_TI_return
    3331              
    3332 000007b3 0006          LRETR     ; [CPU_ALU] 
    3333                      ; return occurs ; [] 
    3334                      .dwattr $C$DW$185, DW_AT_TI_end_file("../clllc_hal.c")
    3335                      .dwattr $C$DW$185, DW_AT_TI_end_line(0x6bd)
    3336                      .dwattr $C$DW$185, DW_AT_TI_end_column(0x01)
    3337                      .dwendentry
    3338                      .dwendtag $C$DW$185
TMS320C2000 Assembler PC v22.6.0 Mon Sep  2 11:55:45 2024

Copyright (c) 1996-2018 Texas Instruments Incorporated
clllc_hal.asm                                                        PAGE   75

    3339              
    3340 000007b4               .sect   ".text"
    3341                      .clink
    3342                      .global ||CLLLC_HAL_setupLED1||
    3343              
    3344              $C$DW$199       .dwtag  DW_TAG_subprogram
    3345                      .dwattr $C$DW$199, DW_AT_name("CLLLC_HAL_setupLED1")
    3346                      .dwattr $C$DW$199, DW_AT_low_pc(||CLLLC_HAL_setupLED1||)
    3347                      .dwattr $C$DW$199, DW_AT_high_pc(0x00)
    3348                      .dwattr $C$DW$199, DW_AT_linkage_name("CLLLC_HAL_setupLED1")
    3349                      .dwattr $C$DW$199, DW_AT_external
    3350                      .dwattr $C$DW$199, DW_AT_decl_file("../clllc_hal.c")
    3351                      .dwattr $C$DW$199, DW_AT_decl_line(0x4a7)
    3352                      .dwattr $C$DW$199, DW_AT_decl_column(0x06)
    3353                      .dwattr $C$DW$199, DW_AT_TI_max_frame_size(-2)
    3354                      .dwpsn  file "../clllc_hal.c",line 1192,column 1,is_stmt,address ||CLLLC_HAL_setupLED1||,isa 0
    3355              
    3356                      .dwfde $C$DW$CIE, ||CLLLC_HAL_setupLED1||
    3357              
    3358              ;***************************************************************
    3359              ;* FNAME: CLLLC_HAL_setupLED1           FR SIZE:   0           *
    3360              ;*                                                             *
    3361              ;* FUNCTION ENVIRONMENT                                        *
    3362              ;*                                                             *
    3363              ;* FUNCTION PROPERTIES                                         *
    3364              ;*                            0 Parameter,  0 Auto,  0 SOE     *
    3365              ;***************************************************************
    3366              
    3367 000007b4       ||CLLLC_HAL_setupLED1||:
    3368                      .dwcfi  cfa_offset, -2
    3369                      .dwcfi  save_reg_to_mem, 26, 0
    3370                      .dwpsn  file "../clllc_hal.c",line 1193,column 5,is_stmt,isa 0
    3371 000007b4 0222          MOVB      ACC,#34               ; [CPU_ALU] |1193| 
    3372 000007b5 D401          MOVB      XAR4,#1               ; [CPU_ALU] |1193| 
    3373              $C$DW$200       .dwtag  DW_TAG_TI_branch
    3374                      .dwattr $C$DW$200, DW_AT_low_pc(0x00)
    3375                      .dwattr $C$DW$200, DW_AT_name("GPIO_setDirectionMode")
    3376                      .dwattr $C$DW$200, DW_AT_TI_call
    3377              
    3378 000007b6 7640!         LCR       #||GPIO_setDirectionMode|| ; [CPU_ALU] |1193| 
         000007b7 0000 
    3379                      ; call occurs [#||GPIO_setDirectionMode||] ; [] |1193| 
    3380                      .dwpsn  file "../clllc_hal.c",line 1194,column 5,is_stmt,isa 0
    3381 000007b8 D400          MOVB      XAR4,#0               ; [CPU_ALU] |1194| 
    3382 000007b9 0222          MOVB      ACC,#34               ; [CPU_ALU] |1194| 
    3383              $C$DW$201       .dwtag  DW_TAG_TI_branch
    3384                      .dwattr $C$DW$201, DW_AT_low_pc(0x00)
    3385                      .dwattr $C$DW$201, DW_AT_name("GPIO_setQualificationMode")
    3386                      .dwattr $C$DW$201, DW_AT_TI_call
    3387              
    3388 000007ba 7640!         LCR       #||GPIO_setQualificationMode|| ; [CPU_ALU] |1194| 
         000007bb 0000 
    3389                      ; call occurs [#||GPIO_setQualificationMode||] ; [] |1194| 
    3390                      .dwpsn  file "../clllc_hal.c",line 1195,column 5,is_stmt,isa 0
    3391 000007bc FF2A          MOV       ACC,#4481 << 10       ; [CPU_ALU] |1195| 
TMS320C2000 Assembler PC v22.6.0 Mon Sep  2 11:55:45 2024

Copyright (c) 1996-2018 Texas Instruments Incorporated
clllc_hal.asm                                                        PAGE   76

         000007bd 1181 
    3392              $C$DW$202       .dwtag  DW_TAG_TI_branch
    3393                      .dwattr $C$DW$202, DW_AT_low_pc(0x00)
    3394                      .dwattr $C$DW$202, DW_AT_name("GPIO_setPinConfig")
    3395                      .dwattr $C$DW$202, DW_AT_TI_call
    3396              
    3397 000007be 7640!         LCR       #||GPIO_setPinConfig|| ; [CPU_ALU] |1195| 
         000007bf 0000 
    3398                      ; call occurs [#||GPIO_setPinConfig||] ; [] |1195| 
    3399              $C$DW$203       .dwtag  DW_TAG_TI_branch
    3400                      .dwattr $C$DW$203, DW_AT_low_pc(0x00)
    3401                      .dwattr $C$DW$203, DW_AT_TI_return
    3402              
    3403 000007c0 0006          LRETR     ; [CPU_ALU] 
    3404                      ; return occurs ; [] 
    3405                      .dwattr $C$DW$199, DW_AT_TI_end_file("../clllc_hal.c")
    3406                      .dwattr $C$DW$199, DW_AT_TI_end_line(0x4ac)
    3407                      .dwattr $C$DW$199, DW_AT_TI_end_column(0x01)
    3408                      .dwendentry
    3409                      .dwendtag $C$DW$199
    3410              
    3411 000007c1               .sect   ".text"
    3412                      .clink
    3413                      .global ||CLLLC_HAL_setupIprimSensedSignalChain||
    3414              
    3415              $C$DW$204       .dwtag  DW_TAG_subprogram
    3416                      .dwattr $C$DW$204, DW_AT_name("CLLLC_HAL_setupIprimSensedSignalChain")
    3417                      .dwattr $C$DW$204, DW_AT_low_pc(||CLLLC_HAL_setupIprimSensedSignalChain||)
    3418                      .dwattr $C$DW$204, DW_AT_high_pc(0x00)
    3419                      .dwattr $C$DW$204, DW_AT_linkage_name("CLLLC_HAL_setupIprimSensedSignalChain")
    3420                      .dwattr $C$DW$204, DW_AT_external
    3421                      .dwattr $C$DW$204, DW_AT_decl_file("../clllc_hal.c")
    3422                      .dwattr $C$DW$204, DW_AT_decl_line(0x1a9)
    3423                      .dwattr $C$DW$204, DW_AT_decl_column(0x06)
    3424                      .dwattr $C$DW$204, DW_AT_TI_max_frame_size(-2)
    3425                      .dwpsn  file "../clllc_hal.c",line 426,column 1,is_stmt,address ||CLLLC_HAL_setupIprimSensedSignalCha
    3426              
    3427                      .dwfde $C$DW$CIE, ||CLLLC_HAL_setupIprimSensedSignalChain||
    3428              
    3429              ;***************************************************************
    3430              ;* FNAME: CLLLC_HAL_setupIprimSensedSignalChain FR SIZE:   0           *
    3431              ;*                                                             *
    3432              ;* FUNCTION ENVIRONMENT                                        *
    3433              ;*                                                             *
    3434              ;* FUNCTION PROPERTIES                                         *
    3435              ;*                            0 Parameter,  0 Auto,  0 SOE     *
    3436              ;***************************************************************
    3437              
    3438 000007c1       ||CLLLC_HAL_setupIprimSensedSignalChain||:
    3439                      .dwcfi  cfa_offset, -2
    3440                      .dwcfi  save_reg_to_mem, 26, 0
    3441                      .dwpsn  file "C:/Users/ZXC/Documents/mcu project/ti-project/clllc_nonpowerSUITE_F28004x/device/driver
    3442 000007c1 7622          EALLOW    ; [CPU_ALU] |208| 
    3443                      .dwpsn  file "C:/Users/ZXC/Documents/mcu project/ti-project/clllc_nonpowerSUITE_F28004x/device/driver
    3444 000007c2 F5A9          MOV       AL,*(0:0x5c01)        ; [CPU_ALU] |210| 
TMS320C2000 Assembler PC v22.6.0 Mon Sep  2 11:55:45 2024

Copyright (c) 1996-2018 Texas Instruments Incorporated
clllc_hal.asm                                                        PAGE   77

         000007c3 5C01 
    3445 000007c4 5001          ORB       AL,#0x01              ; [CPU_ALU] |210| 
    3446 000007c5 F4A9          MOV       *(0:0x5c01),AL        ; [CPU_ALU] |210| 
         000007c6 5C01 
    3447                      .dwpsn  file "C:/Users/ZXC/Documents/mcu project/ti-project/clllc_nonpowerSUITE_F28004x/device/driver
    3448 000007c7 F5A9          MOV       AL,*(0:0x5c01)        ; [CPU_ALU] |248| 
         000007c8 5C01 
    3449 000007c9 5002          ORB       AL,#0x02              ; [CPU_ALU] |248| 
    3450 000007ca F4A9          MOV       *(0:0x5c01),AL        ; [CPU_ALU] |248| 
         000007cb 5C01 
    3451                      .dwpsn  file "C:/Users/ZXC/Documents/mcu project/ti-project/clllc_nonpowerSUITE_F28004x/device/driver
    3452 000007cc F5A9          MOV       AL,*(0:0x5c04)        ; [CPU_ALU] |433| 
         000007cd 5C04 
    3453 000007ce 5001          ORB       AL,#0x01              ; [CPU_ALU] |433| 
    3454 000007cf F4A9          MOV       *(0:0x5c04),AL        ; [CPU_ALU] |433| 
         000007d0 5C04 
    3455                      .dwpsn  file "C:/Users/ZXC/Documents/mcu project/ti-project/clllc_nonpowerSUITE_F28004x/device/driver
    3456 000007d1 761A          EDIS      ; [CPU_ALU] |435| 
    3457                      .dwpsn  file "C:/Users/ZXC/Documents/mcu project/ti-project/clllc_nonpowerSUITE_F28004x/device/driver
    3458 000007d2 F5A9          MOV       AL,*(0:0x5c03)        ; [CPU_ALU] |376| 
         000007d3 5C03 
    3459 000007d4 18A9          AND       AL,#0xf000            ; [CPU_ALU] |376| 
         000007d5 F000 
    3460 000007d6 F4A9          MOV       *(0:0x5c03),AL        ; [CPU_ALU] |376| 
         000007d7 5C03 
    3461                      .dwpsn  file "../clllc_hal.c",line 447,column 5,is_stmt,isa 0
    3462 000007d8 02C6          MOVB      ACC,#198              ; [CPU_ALU] |447| 
    3463              $C$DW$205       .dwtag  DW_TAG_TI_branch
    3464                      .dwattr $C$DW$205, DW_AT_low_pc(0x00)
    3465                      .dwattr $C$DW$205, DW_AT_name("SysCtl_delay")
    3466                      .dwattr $C$DW$205, DW_AT_TI_call
    3467              
    3468 000007d9 7640!         LCR       #||SysCtl_delay||     ; [CPU_ALU] |447| 
         000007da 0000 
    3469                      ; call occurs [#||SysCtl_delay||] ; [] |447| 
    3470                      .dwpsn  file "C:/Users/ZXC/Documents/mcu project/ti-project/clllc_nonpowerSUITE_F28004x/device/driver
    3471 000007db F5A9          MOV       AL,*(0:0x5c03)        ; [CPU_ALU] |376| 
         000007dc 5C03 
    3472 000007dd 18A9          AND       AL,#0xf800            ; [CPU_ALU] |376| 
         000007de F800 
    3473 000007df 1AA9          OR        AL,#0x0800            ; [CPU_ALU] |376| 
         000007e0 0800 
    3474 000007e1 F4A9          MOV       *(0:0x5c03),AL        ; [CPU_ALU] |376| 
         000007e2 5C03 
    3475                      .dwpsn  file "C:/Users/ZXC/Documents/mcu project/ti-project/clllc_nonpowerSUITE_F28004x/device/driver
    3476 000007e3 7622          EALLOW    ; [CPU_ALU] |224| 
    3477                      .dwpsn  file "C:/Users/ZXC/Documents/mcu project/ti-project/clllc_nonpowerSUITE_F28004x/device/driver
    3478 000007e4 BFA9          MOV32     ACC,*(0:0x5b00)       ; [CPU_FPU] |225| 
         000007e5 5B00 
    3479 000007e6 18A9          AND       AL,#65407             ; [CPU_ALU] |225| 
         000007e7 FF7F 
    3480 000007e8 5060          ORB       AL,#0x60              ; [CPU_ALU] |225| 
    3481 000007e9 BDA9          MOV32     *(0:0x5b00),ACC       ; [CPU_FPU] |225| 
         000007ea 5B00 
    3482                      .dwpsn  file "C:/Users/ZXC/Documents/mcu project/ti-project/clllc_nonpowerSUITE_F28004x/device/driver
TMS320C2000 Assembler PC v22.6.0 Mon Sep  2 11:55:45 2024

Copyright (c) 1996-2018 Texas Instruments Incorporated
clllc_hal.asm                                                        PAGE   78

    3483 000007eb BFA9          MOV32     ACC,*(0:0x5b00)       ; [CPU_FPU] |258| 
         000007ec 5B00 
    3484 000007ed 18A9          AND       AL,#65505             ; [CPU_ALU] |258| 
         000007ee FFE1 
    3485 000007ef BDA9          MOV32     *(0:0x5b00),ACC       ; [CPU_FPU] |258| 
         000007f0 5B00 
    3486                      .dwpsn  file "C:/Users/ZXC/Documents/mcu project/ti-project/clllc_nonpowerSUITE_F28004x/device/driver
    3487 000007f1 BFA9          MOV32     ACC,*(0:0x5b00)       ; [CPU_FPU] |178| 
         000007f2 5B00 
    3488 000007f3 5001          ORB       AL,#0x01              ; [CPU_ALU] |178| 
    3489 000007f4 BDA9          MOV32     *(0:0x5b00),ACC       ; [CPU_FPU] |178| 
         000007f5 5B00 
    3490                      .dwpsn  file "C:/Users/ZXC/Documents/mcu project/ti-project/clllc_nonpowerSUITE_F28004x/device/driver
    3491 000007f6 761A          EDIS      ; [CPU_ALU] |179| 
    3492              $C$DW$206       .dwtag  DW_TAG_TI_branch
    3493                      .dwattr $C$DW$206, DW_AT_low_pc(0x00)
    3494                      .dwattr $C$DW$206, DW_AT_TI_return
    3495              
    3496 000007f7 0006          LRETR     ; [CPU_ALU] 
    3497                      ; return occurs ; [] 
    3498                      .dwattr $C$DW$204, DW_AT_TI_end_file("../clllc_hal.c")
    3499                      .dwattr $C$DW$204, DW_AT_TI_end_line(0x1d4)
    3500                      .dwattr $C$DW$204, DW_AT_TI_end_column(0x01)
    3501                      .dwendentry
    3502                      .dwendtag $C$DW$204
    3503              
    3504 000007f8               .sect   ".text"
    3505                      .clink
    3506                      .global ||CLLLC_HAL_setupECAPinPWMMode||
    3507              
    3508              $C$DW$207       .dwtag  DW_TAG_subprogram
    3509                      .dwattr $C$DW$207, DW_AT_name("CLLLC_HAL_setupECAPinPWMMode")
    3510                      .dwattr $C$DW$207, DW_AT_low_pc(||CLLLC_HAL_setupECAPinPWMMode||)
    3511                      .dwattr $C$DW$207, DW_AT_high_pc(0x00)
    3512                      .dwattr $C$DW$207, DW_AT_linkage_name("CLLLC_HAL_setupECAPinPWMMode")
    3513                      .dwattr $C$DW$207, DW_AT_external
    3514                      .dwattr $C$DW$207, DW_AT_decl_file("../clllc_hal.c")
    3515                      .dwattr $C$DW$207, DW_AT_decl_line(0x74a)
    3516                      .dwattr $C$DW$207, DW_AT_decl_column(0x06)
    3517                      .dwattr $C$DW$207, DW_AT_TI_max_frame_size(-4)
    3518                      .dwpsn  file "../clllc_hal.c",line 1869,column 1,is_stmt,address ||CLLLC_HAL_setupECAPinPWMMode||,isa
    3519              
    3520                      .dwfde $C$DW$CIE, ||CLLLC_HAL_setupECAPinPWMMode||
    3521              $C$DW$208       .dwtag  DW_TAG_formal_parameter
    3522                      .dwattr $C$DW$208, DW_AT_name("base1")
    3523                      .dwattr $C$DW$208, DW_AT_type(*$C$DW$T$142)
    3524                      .dwattr $C$DW$208, DW_AT_location[DW_OP_reg0]
    3525              
    3526              $C$DW$209       .dwtag  DW_TAG_formal_parameter
    3527                      .dwattr $C$DW$209, DW_AT_name("pwmFreq_Hz")
    3528                      .dwattr $C$DW$209, DW_AT_type(*$C$DW$T$222)
    3529                      .dwattr $C$DW$209, DW_AT_location[DW_OP_regx 0x2b]
    3530              
    3531              $C$DW$210       .dwtag  DW_TAG_formal_parameter
    3532                      .dwattr $C$DW$210, DW_AT_name("pwmSysClkFreq_Hz")
TMS320C2000 Assembler PC v22.6.0 Mon Sep  2 11:55:45 2024

Copyright (c) 1996-2018 Texas Instruments Incorporated
clllc_hal.asm                                                        PAGE   79

    3533                      .dwattr $C$DW$210, DW_AT_type(*$C$DW$T$222)
    3534                      .dwattr $C$DW$210, DW_AT_location[DW_OP_regx 0x2f]
    3535              
    3536              
    3537              ;***************************************************************
    3538              ;* FNAME: CLLLC_HAL_setupECAPinPWMMode  FR SIZE:   2           *
    3539              ;*                                                             *
    3540              ;* FUNCTION ENVIRONMENT                                        *
    3541              ;*                                                             *
    3542              ;* FUNCTION PROPERTIES                                         *
    3543              ;*                            0 Parameter,  0 Auto,  2 SOE     *
    3544              ;***************************************************************
    3545              
    3546              ||CLLLC_HAL_setupECAPinPWMMode||:
    3547              ;* AL    assigned to $O$C1
    3548              ;* AR6   assigned to $O$C2
    3549              ;* AR4   assigned to base1
    3550              $C$DW$211       .dwtag  DW_TAG_variable
    3551                      .dwattr $C$DW$211, DW_AT_name("base1")
    3552                      .dwattr $C$DW$211, DW_AT_type(*$C$DW$T$246)
    3553                      .dwattr $C$DW$211, DW_AT_location[DW_OP_reg12]
    3554              
    3555              ;* R0    assigned to pwmFreq_Hz
    3556              $C$DW$212       .dwtag  DW_TAG_variable
    3557                      .dwattr $C$DW$212, DW_AT_name("pwmFreq_Hz")
    3558                      .dwattr $C$DW$212, DW_AT_type(*$C$DW$T$248)
    3559                      .dwattr $C$DW$212, DW_AT_location[DW_OP_regx 0x2b]
    3560              
    3561              ;* R1    assigned to pwmSysClkFreq_Hz
    3562              $C$DW$213       .dwtag  DW_TAG_variable
    3563                      .dwattr $C$DW$213, DW_AT_name("pwmSysClkFreq_Hz")
    3564                      .dwattr $C$DW$213, DW_AT_type(*$C$DW$T$248)
    3565                      .dwattr $C$DW$213, DW_AT_location[DW_OP_regx 0x2f]
    3566              
    3567                      .dwcfi  cfa_offset, -2
    3568                      .dwcfi  save_reg_to_mem, 26, 0
    3569 000007f8 8AA9          MOVL      XAR4,ACC              ; [CPU_ALU] |1869| 
    3570 000007f9 B2BD          MOVL      *SP++,XAR1            ; [CPU_ALU] 
    3571                      .dwcfi  save_reg_to_mem, 7, 2
    3572                      .dwcfi  cfa_offset, -4
    3573                      .dwpsn  file "C:/Users/ZXC/Documents/mcu project/ti-project/clllc_nonpowerSUITE_F28004x/device/driver
    3574 000007fa 7622          EALLOW    ; [CPU_ALU] |810| 
    3575                      .dwpsn  file "C:/Users/ZXC/Documents/mcu project/ti-project/clllc_nonpowerSUITE_F28004x/device/driver
    3576 000007fb 83A4          MOVL      XAR5,XAR4             ; [CPU_ALU] |815| 
    3577 000007fc DD15          ADDB      XAR5,#21              ; [CPU_ALU] |815| 
    3578 000007fd 1AC5          OR        *+XAR5[0],#0x0200     ; [CPU_ALU] |815| 
         000007fe 0200 
    3579                      .dwpsn  file "C:/Users/ZXC/Documents/mcu project/ti-project/clllc_nonpowerSUITE_F28004x/device/driver
    3580 000007ff 761A          EDIS      ; [CPU_ALU] |816| 
    3581                      .dwpsn  file "C:/Users/ZXC/Documents/mcu project/ti-project/clllc_nonpowerSUITE_F28004x/device/driver
    3582 00000800 E274          DIVF32    R0H,R1H,R0H           ; [CPU_FPU] |1153| 
         00000801 0008 
    3583 00000802 7700          NOP       ; [CPU_ALU] 
    3584 00000803 7700          NOP       ; [CPU_ALU] 
    3585 00000804 7700          NOP       ; [CPU_ALU] 
TMS320C2000 Assembler PC v22.6.0 Mon Sep  2 11:55:45 2024

Copyright (c) 1996-2018 Texas Instruments Incorporated
clllc_hal.asm                                                        PAGE   80

    3586 00000805 7700          NOP       ; [CPU_ALU] 
    3587 00000806 E688          F32TOI32  R0H,R0H               ; [CPU_FPU] |1153| 
         00000807 0000 
    3588 00000808 7700          NOP       ; [CPU_ALU] 
    3589 00000809 3B01          SETC      SXM                   ; [CPU_ALU] 
    3590 0000080a BFA6          MOV32     XAR6,R0H              ; [CPU_FPU] |1153| 
         0000080b 0F12 
    3591                      .dwpsn  file "C:/Users/ZXC/Documents/mcu project/ti-project/clllc_nonpowerSUITE_F28004x/device/driver
    3592 0000080c D008          MOVB      XAR0,#8               ; [CPU_ALU] |1207| 
    3593                      .dwpsn  file "C:/Users/ZXC/Documents/mcu project/ti-project/clllc_nonpowerSUITE_F28004x/device/driver
    3594 0000080d D118          MOVB      XAR1,#24              ; [CPU_ALU] |704| 
    3595                      .dwpsn  file "C:/Users/ZXC/Documents/mcu project/ti-project/clllc_nonpowerSUITE_F28004x/device/driver
    3596 0000080e E203          MOV32     *+XAR4[4],R0H         ; [CPU_FPU] |1153| 
         0000080f 00E4 
    3597                      .dwpsn  file "C:/Users/ZXC/Documents/mcu project/ti-project/clllc_nonpowerSUITE_F28004x/device/driver
    3598 00000810 06A6          MOVL      ACC,XAR6              ; [CPU_ALU] |1181| 
    3599 00000811 FF40          SFR       ACC,1                 ; [CPU_ALU] |1181| 
    3600 00000812 1EF4          MOVL      *+XAR4[6],ACC         ; [CPU_ALU] |1181| 
    3601                      .dwpsn  file "C:/Users/ZXC/Documents/mcu project/ti-project/clllc_nonpowerSUITE_F28004x/device/driver
    3602 00000813 C294          MOVL      *+XAR4[AR0],XAR6      ; [CPU_ALU] |1207| 
    3603                      .dwpsn  file "C:/Users/ZXC/Documents/mcu project/ti-project/clllc_nonpowerSUITE_F28004x/device/driver
    3604 00000814 D00A          MOVB      XAR0,#10              ; [CPU_ALU] |1236| 
    3605 00000815 1E94          MOVL      *+XAR4[AR0],ACC       ; [CPU_ALU] |1236| 
    3606                      .dwpsn  file "C:/Users/ZXC/Documents/mcu project/ti-project/clllc_nonpowerSUITE_F28004x/device/driver
    3607 00000816 D018          MOVB      XAR0,#24              ; [CPU_ALU] |725| 
    3608                      .dwpsn  file "C:/Users/ZXC/Documents/mcu project/ti-project/clllc_nonpowerSUITE_F28004x/device/driver
    3609 00000817 56BF          MOVB      *+XAR4[AR1],#255,UNC  ; [CPU_ALU] |704| 
         00000818 FF9C 
    3610                      .dwpsn  file "C:/Users/ZXC/Documents/mcu project/ti-project/clllc_nonpowerSUITE_F28004x/device/driver
    3611 00000819 56BF          MOVB      *+XAR4[AR0],#1,UNC    ; [CPU_ALU] |725| 
         0000081a 0194 
    3612                      .dwpsn  file "C:/Users/ZXC/Documents/mcu project/ti-project/clllc_nonpowerSUITE_F28004x/device/driver
    3613 0000081b 7622          EALLOW    ; [CPU_ALU] |1095| 
    3614                      .dwpsn  file "C:/Users/ZXC/Documents/mcu project/ti-project/clllc_nonpowerSUITE_F28004x/device/driver
    3615 0000081c DC15          ADDB      XAR4,#21              ; [CPU_ALU] |1100| 
    3616 0000081d 1AC4          OR        *+XAR4[0],#0x0010     ; [CPU_ALU] |1100| 
         0000081e 0010 
    3617                      .dwpsn  file "C:/Users/ZXC/Documents/mcu project/ti-project/clllc_nonpowerSUITE_F28004x/device/driver
    3618 0000081f 761A          EDIS      ; [CPU_ALU] |1101| 
    3619 00000820 8BBE          MOVL      XAR1,*--SP            ; [CPU_ALU] 
    3620                      .dwcfi  cfa_offset, -2
    3621                      .dwcfi  restore_reg, 7
    3622              $C$DW$214       .dwtag  DW_TAG_TI_branch
    3623                      .dwattr $C$DW$214, DW_AT_low_pc(0x00)
    3624                      .dwattr $C$DW$214, DW_AT_TI_return
    3625              
    3626 00000821 0006          LRETR     ; [CPU_ALU] 
    3627                      ; return occurs ; [] 
    3628                      .dwattr $C$DW$207, DW_AT_TI_end_file("../clllc_hal.c")
    3629                      .dwattr $C$DW$207, DW_AT_TI_end_line(0x75c)
    3630                      .dwattr $C$DW$207, DW_AT_TI_end_column(0x01)
    3631                      .dwendentry
    3632                      .dwendtag $C$DW$207
    3633              
    3634 00000822               .sect   ".text"
TMS320C2000 Assembler PC v22.6.0 Mon Sep  2 11:55:45 2024

Copyright (c) 1996-2018 Texas Instruments Incorporated
clllc_hal.asm                                                        PAGE   81

    3635                      .clink
    3636                      .global ||CLLLC_HAL_setupDevice||
    3637              
    3638              $C$DW$215       .dwtag  DW_TAG_subprogram
    3639                      .dwattr $C$DW$215, DW_AT_name("CLLLC_HAL_setupDevice")
    3640                      .dwattr $C$DW$215, DW_AT_low_pc(||CLLLC_HAL_setupDevice||)
    3641                      .dwattr $C$DW$215, DW_AT_high_pc(0x00)
    3642                      .dwattr $C$DW$215, DW_AT_linkage_name("CLLLC_HAL_setupDevice")
    3643                      .dwattr $C$DW$215, DW_AT_external
    3644                      .dwattr $C$DW$215, DW_AT_decl_file("../clllc_hal.c")
    3645                      .dwattr $C$DW$215, DW_AT_decl_line(0x31)
    3646                      .dwattr $C$DW$215, DW_AT_decl_column(0x06)
    3647                      .dwattr $C$DW$215, DW_AT_TI_max_frame_size(-2)
    3648                      .dwpsn  file "../clllc_hal.c",line 50,column 1,is_stmt,address ||CLLLC_HAL_setupDevice||,isa 0
    3649              
    3650                      .dwfde $C$DW$CIE, ||CLLLC_HAL_setupDevice||
    3651              
    3652              ;***************************************************************
    3653              ;* FNAME: CLLLC_HAL_setupDevice         FR SIZE:   0           *
    3654              ;*                                                             *
    3655              ;* FUNCTION ENVIRONMENT                                        *
    3656              ;*                                                             *
    3657              ;* FUNCTION PROPERTIES                                         *
    3658              ;*                            0 Parameter,  0 Auto,  0 SOE     *
    3659              ;***************************************************************
    3660              
    3661              ||CLLLC_HAL_setupDevice||:
    3662              ;* AL    assigned to tcrValue
    3663              $C$DW$216       .dwtag  DW_TAG_variable
    3664                      .dwattr $C$DW$216, DW_AT_name("tcrValue")
    3665                      .dwattr $C$DW$216, DW_AT_type(*$C$DW$T$163)
    3666                      .dwattr $C$DW$216, DW_AT_location[DW_OP_reg0]
    3667              
    3668              ;* AL    assigned to tcrValue
    3669              $C$DW$217       .dwtag  DW_TAG_variable
    3670                      .dwattr $C$DW$217, DW_AT_name("tcrValue")
    3671                      .dwattr $C$DW$217, DW_AT_type(*$C$DW$T$163)
    3672                      .dwattr $C$DW$217, DW_AT_location[DW_OP_reg0]
    3673              
    3674              ;* AL    assigned to tcrValue
    3675              $C$DW$218       .dwtag  DW_TAG_variable
    3676                      .dwattr $C$DW$218, DW_AT_name("tcrValue")
    3677                      .dwattr $C$DW$218, DW_AT_type(*$C$DW$T$163)
    3678                      .dwattr $C$DW$218, DW_AT_location[DW_OP_reg0]
    3679              
    3680              ;* AL    assigned to tcrValue
    3681              $C$DW$219       .dwtag  DW_TAG_variable
    3682                      .dwattr $C$DW$219, DW_AT_name("tcrValue")
    3683                      .dwattr $C$DW$219, DW_AT_type(*$C$DW$T$163)
    3684                      .dwattr $C$DW$219, DW_AT_location[DW_OP_reg0]
    3685              
    3686              ;* AL    assigned to tcrValue
    3687              $C$DW$220       .dwtag  DW_TAG_variable
    3688                      .dwattr $C$DW$220, DW_AT_name("tcrValue")
    3689                      .dwattr $C$DW$220, DW_AT_type(*$C$DW$T$163)
TMS320C2000 Assembler PC v22.6.0 Mon Sep  2 11:55:45 2024

Copyright (c) 1996-2018 Texas Instruments Incorporated
clllc_hal.asm                                                        PAGE   82

    3690                      .dwattr $C$DW$220, DW_AT_location[DW_OP_reg0]
    3691              
    3692              ;* AL    assigned to tcrValue
    3693              $C$DW$221       .dwtag  DW_TAG_variable
    3694                      .dwattr $C$DW$221, DW_AT_name("tcrValue")
    3695                      .dwattr $C$DW$221, DW_AT_type(*$C$DW$T$163)
    3696                      .dwattr $C$DW$221, DW_AT_location[DW_OP_reg0]
    3697              
    3698                      .dwcfi  cfa_offset, -2
    3699                      .dwcfi  save_reg_to_mem, 26, 0
    3700                      .dwpsn  file "../clllc_hal.c",line 55,column 5,is_stmt,isa 0
    3701              $C$DW$222       .dwtag  DW_TAG_TI_branch
    3702                      .dwattr $C$DW$222, DW_AT_low_pc(0x00)
    3703                      .dwattr $C$DW$222, DW_AT_name("Device_init")
    3704                      .dwattr $C$DW$222, DW_AT_TI_call
    3705              
    3706 00000822 7640!         LCR       #||Device_init||      ; [CPU_ALU] |55| 
         00000823 0000 
    3707                      ; call occurs [#||Device_init||] ; [] |55| 
    3708                      .dwpsn  file "../clllc_hal.c",line 60,column 5,is_stmt,isa 0
    3709              $C$DW$223       .dwtag  DW_TAG_TI_branch
    3710                      .dwattr $C$DW$223, DW_AT_low_pc(0x00)
    3711                      .dwattr $C$DW$223, DW_AT_name("Device_initGPIO")
    3712                      .dwattr $C$DW$223, DW_AT_TI_call
    3713              
    3714 00000824 7640!         LCR       #||Device_initGPIO||  ; [CPU_ALU] |60| 
         00000825 0000 
    3715                      ; call occurs [#||Device_initGPIO||] ; [] |60| 
    3716                      .dwpsn  file "../clllc_hal.c",line 65,column 5,is_stmt,isa 0
    3717              $C$DW$224       .dwtag  DW_TAG_TI_branch
    3718                      .dwattr $C$DW$224, DW_AT_low_pc(0x00)
    3719                      .dwattr $C$DW$224, DW_AT_name("Interrupt_initModule")
    3720                      .dwattr $C$DW$224, DW_AT_TI_call
    3721              
    3722 00000826 7640!         LCR       #||Interrupt_initModule|| ; [CPU_ALU] |65| 
         00000827 0000 
    3723                      ; call occurs [#||Interrupt_initModule||] ; [] |65| 
    3724                      .dwpsn  file "../clllc_hal.c",line 71,column 5,is_stmt,isa 0
    3725              $C$DW$225       .dwtag  DW_TAG_TI_branch
    3726                      .dwattr $C$DW$225, DW_AT_low_pc(0x00)
    3727                      .dwattr $C$DW$225, DW_AT_name("Interrupt_initVectorTable")
    3728                      .dwattr $C$DW$225, DW_AT_TI_call
    3729              
    3730 00000828 7640!         LCR       #||Interrupt_initVectorTable|| ; [CPU_ALU] |71| 
         00000829 0000 
    3731                      ; call occurs [#||Interrupt_initVectorTable||] ; [] |71| 
    3732                      .dwpsn  file "C:/Users/ZXC/Documents/mcu project/ti-project/clllc_nonpowerSUITE_F28004x/device/driver
    3733 0000082a 8F0F          MOVL      XAR4,#1000000         ; [CPU_ARAU] |331| 
         0000082b 4240 
    3734 0000082c 28A9          MOV       AL,#38528             ; [CPU_ALU] |331| 
         0000082d 9680 
    3735 0000082e 9B98          MOV       AH,#152               ; [CPU_ALU] |331| 
    3736                      .dwpsn  file "C:/Users/ZXC/Documents/mcu project/ti-project/clllc_nonpowerSUITE_F28004x/device/driver
    3737 0000082f BE00          MOVB      XAR6,#0               ; [CPU_ALU] |375| 
    3738                      .dwpsn  file "C:/Users/ZXC/Documents/mcu project/ti-project/clllc_nonpowerSUITE_F28004x/device/driver
TMS320C2000 Assembler PC v22.6.0 Mon Sep  2 11:55:45 2024

Copyright (c) 1996-2018 Texas Instruments Incorporated
clllc_hal.asm                                                        PAGE   83

    3739 00000830 BDA4          MOV32     *(0:0x0c02),XAR4      ; [CPU_FPU] |331| 
         00000831 0C02 
    3740                      .dwpsn  file "C:/Users/ZXC/Documents/mcu project/ti-project/clllc_nonpowerSUITE_F28004x/device/driver
    3741 00000832 B600          MOVB      XAR7,#0               ; [CPU_ALU] |375| 
    3742                      .dwpsn  file "C:/Users/ZXC/Documents/mcu project/ti-project/clllc_nonpowerSUITE_F28004x/device/driver
    3743 00000833 BDA9          MOV32     *(0:0x0c0a),ACC       ; [CPU_FPU] |331| 
         00000834 0C0A 
    3744 00000835 8F00          MOVL      XAR4,#10000           ; [CPU_ARAU] |331| 
         00000836 2710 
    3745                      .dwpsn  file "C:/Users/ZXC/Documents/mcu project/ti-project/clllc_nonpowerSUITE_F28004x/device/driver
    3746 00000837 9A00          MOVB      AL,#0                 ; [CPU_ALU] |376| 
    3747                      .dwpsn  file "C:/Users/ZXC/Documents/mcu project/ti-project/clllc_nonpowerSUITE_F28004x/device/driver
    3748 00000838 9B00          MOVB      AH,#0                 ; [CPU_ALU] |375| 
    3749                      .dwpsn  file "C:/Users/ZXC/Documents/mcu project/ti-project/clllc_nonpowerSUITE_F28004x/device/driver
    3750 00000839 BDA4          MOV32     *(0:0x0c12),XAR4      ; [CPU_FPU] |331| 
         0000083a 0C12 
    3751                      .dwpsn  file "C:/Users/ZXC/Documents/mcu project/ti-project/clllc_nonpowerSUITE_F28004x/device/driver
    3752 0000083b F4A6          MOV       *(0:0x0c07),AR6       ; [CPU_ALU] |375| 
         0000083c 0C07 
    3753                      .dwpsn  file "C:/Users/ZXC/Documents/mcu project/ti-project/clllc_nonpowerSUITE_F28004x/device/driver
    3754 0000083d F4A9          MOV       *(0:0x0c06),AL        ; [CPU_ALU] |376| 
         0000083e 0C06 
    3755                      .dwpsn  file "../clllc_hal.c",line 116,column 5,is_stmt,isa 0
    3756 0000083f D400          MOVB      XAR4,#0               ; [CPU_ALU] |116| 
    3757                      .dwpsn  file "C:/Users/ZXC/Documents/mcu project/ti-project/clllc_nonpowerSUITE_F28004x/device/driver
    3758 00000840 F4A7          MOV       *(0:0x0c0f),AR7       ; [CPU_ALU] |375| 
         00000841 0C0F 
    3759                      .dwpsn  file "C:/Users/ZXC/Documents/mcu project/ti-project/clllc_nonpowerSUITE_F28004x/device/driver
    3760 00000842 F4A6          MOV       *(0:0x0c0e),AR6       ; [CPU_ALU] |376| 
         00000843 0C0E 
    3761                      .dwpsn  file "C:/Users/ZXC/Documents/mcu project/ti-project/clllc_nonpowerSUITE_F28004x/device/driver
    3762 00000844 F4A8          MOV       *(0:0x0c17),AH        ; [CPU_ALU] |375| 
         00000845 0C17 
    3763                      .dwpsn  file "C:/Users/ZXC/Documents/mcu project/ti-project/clllc_nonpowerSUITE_F28004x/device/driver
    3764 00000846 F4A9          MOV       *(0:0x0c16),AL        ; [CPU_ALU] |376| 
         00000847 0C16 
    3765                      .dwpsn  file "C:/Users/ZXC/Documents/mcu project/ti-project/clllc_nonpowerSUITE_F28004x/device/driver
    3766 00000848 F5A9          MOV       AL,*(0:0x0c04)        ; [CPU_ALU] |255| 
         00000849 0C04 
    3767 0000084a CCA9          AND       AL,AL,#0x7fff         ; [CPU_ALU] |255| 
         0000084b 7FFF 
    3768                      .dwpsn  file "C:/Users/ZXC/Documents/mcu project/ti-project/clllc_nonpowerSUITE_F28004x/device/driver
    3769 0000084c 5010          ORB       AL,#0x10              ; [CPU_ALU] |256| 
    3770 0000084d F4A9          MOV       *(0:0x0c04),AL        ; [CPU_ALU] |256| 
         0000084e 0C04 
    3771                      .dwpsn  file "C:/Users/ZXC/Documents/mcu project/ti-project/clllc_nonpowerSUITE_F28004x/device/driver
    3772 0000084f F5A9          MOV       AL,*(0:0x0c0c)        ; [CPU_ALU] |255| 
         00000850 0C0C 
    3773 00000851 CCA9          AND       AL,AL,#0x7fff         ; [CPU_ALU] |255| 
         00000852 7FFF 
    3774                      .dwpsn  file "C:/Users/ZXC/Documents/mcu project/ti-project/clllc_nonpowerSUITE_F28004x/device/driver
    3775 00000853 5010          ORB       AL,#0x10              ; [CPU_ALU] |256| 
    3776 00000854 F4A9          MOV       *(0:0x0c0c),AL        ; [CPU_ALU] |256| 
         00000855 0C0C 
    3777                      .dwpsn  file "C:/Users/ZXC/Documents/mcu project/ti-project/clllc_nonpowerSUITE_F28004x/device/driver
TMS320C2000 Assembler PC v22.6.0 Mon Sep  2 11:55:45 2024

Copyright (c) 1996-2018 Texas Instruments Incorporated
clllc_hal.asm                                                        PAGE   84

    3778 00000856 F5A9          MOV       AL,*(0:0x0c14)        ; [CPU_ALU] |255| 
         00000857 0C14 
    3779 00000858 CCA9          AND       AL,AL,#0x7fff         ; [CPU_ALU] |255| 
         00000859 7FFF 
    3780                      .dwpsn  file "C:/Users/ZXC/Documents/mcu project/ti-project/clllc_nonpowerSUITE_F28004x/device/driver
    3781 0000085a 5010          ORB       AL,#0x10              ; [CPU_ALU] |256| 
    3782 0000085b F4A9          MOV       *(0:0x0c14),AL        ; [CPU_ALU] |256| 
         0000085c 0C14 
    3783                      .dwpsn  file "../clllc_hal.c",line 116,column 5,is_stmt,isa 0
    3784 0000085d FF20          MOV       ACC,#3072             ; [CPU_ALU] |116| 
         0000085e 0C00 
    3785              $C$DW$226       .dwtag  DW_TAG_TI_branch
    3786                      .dwattr $C$DW$226, DW_AT_low_pc(0x00)
    3787                      .dwattr $C$DW$226, DW_AT_name("CPUTimer_setEmulationMode")
    3788                      .dwattr $C$DW$226, DW_AT_TI_call
    3789              
    3790 0000085f 7640!         LCR       #||CPUTimer_setEmulationMode|| ; [CPU_ALU] |116| 
         00000860 0000 
    3791                      ; call occurs [#||CPUTimer_setEmulationMode||] ; [] |116| 
    3792                      .dwpsn  file "../clllc_hal.c",line 118,column 5,is_stmt,isa 0
    3793 00000861 D400          MOVB      XAR4,#0               ; [CPU_ALU] |118| 
    3794 00000862 FF20          MOV       ACC,#3080             ; [CPU_ALU] |118| 
         00000863 0C08 
    3795              $C$DW$227       .dwtag  DW_TAG_TI_branch
    3796                      .dwattr $C$DW$227, DW_AT_low_pc(0x00)
    3797                      .dwattr $C$DW$227, DW_AT_name("CPUTimer_setEmulationMode")
    3798                      .dwattr $C$DW$227, DW_AT_TI_call
    3799              
    3800 00000864 7640!         LCR       #||CPUTimer_setEmulationMode|| ; [CPU_ALU] |118| 
         00000865 0000 
    3801                      ; call occurs [#||CPUTimer_setEmulationMode||] ; [] |118| 
    3802                      .dwpsn  file "../clllc_hal.c",line 120,column 5,is_stmt,isa 0
    3803 00000866 D400          MOVB      XAR4,#0               ; [CPU_ALU] |120| 
    3804 00000867 FF20          MOV       ACC,#3088             ; [CPU_ALU] |120| 
         00000868 0C10 
    3805              $C$DW$228       .dwtag  DW_TAG_TI_branch
    3806                      .dwattr $C$DW$228, DW_AT_low_pc(0x00)
    3807                      .dwattr $C$DW$228, DW_AT_name("CPUTimer_setEmulationMode")
    3808                      .dwattr $C$DW$228, DW_AT_TI_call
    3809              
    3810 00000869 7640!         LCR       #||CPUTimer_setEmulationMode|| ; [CPU_ALU] |120| 
         0000086a 0000 
    3811                      ; call occurs [#||CPUTimer_setEmulationMode||] ; [] |120| 
    3812                      .dwpsn  file "C:/Users/ZXC/Documents/mcu project/ti-project/clllc_nonpowerSUITE_F28004x/device/driver
    3813 0000086b F5A9          MOV       AL,*(0:0x0c04)        ; [CPU_ALU] |303| 
         0000086c 0C04 
    3814 0000086d CCA9          AND       AL,AL,#0x7fff         ; [CPU_ALU] |303| 
         0000086e 7FFF 
    3815                      .dwpsn  file "C:/Users/ZXC/Documents/mcu project/ti-project/clllc_nonpowerSUITE_F28004x/device/driver
    3816 0000086f 5020          ORB       AL,#0x20              ; [CPU_ALU] |304| 
    3817 00000870 F4A9          MOV       *(0:0x0c04),AL        ; [CPU_ALU] |304| 
         00000871 0C04 
    3818                      .dwpsn  file "C:/Users/ZXC/Documents/mcu project/ti-project/clllc_nonpowerSUITE_F28004x/device/driver
    3819 00000872 F5A9          MOV       AL,*(0:0x0c04)        ; [CPU_ALU] |309| 
         00000873 0C04 
TMS320C2000 Assembler PC v22.6.0 Mon Sep  2 11:55:45 2024

Copyright (c) 1996-2018 Texas Instruments Incorporated
clllc_hal.asm                                                        PAGE   85

    3820 00000874 18A9          AND       AL,#0xffef            ; [CPU_ALU] |309| 
         00000875 FFEF 
    3821 00000876 F4A9          MOV       *(0:0x0c04),AL        ; [CPU_ALU] |309| 
         00000877 0C04 
    3822                      .dwpsn  file "C:/Users/ZXC/Documents/mcu project/ti-project/clllc_nonpowerSUITE_F28004x/device/driver
    3823 00000878 F5A9          MOV       AL,*(0:0x0c0c)        ; [CPU_ALU] |303| 
         00000879 0C0C 
    3824 0000087a CCA9          AND       AL,AL,#0x7fff         ; [CPU_ALU] |303| 
         0000087b 7FFF 
    3825                      .dwpsn  file "C:/Users/ZXC/Documents/mcu project/ti-project/clllc_nonpowerSUITE_F28004x/device/driver
    3826 0000087c 5020          ORB       AL,#0x20              ; [CPU_ALU] |304| 
    3827 0000087d F4A9          MOV       *(0:0x0c0c),AL        ; [CPU_ALU] |304| 
         0000087e 0C0C 
    3828                      .dwpsn  file "C:/Users/ZXC/Documents/mcu project/ti-project/clllc_nonpowerSUITE_F28004x/device/driver
    3829 0000087f F5A9          MOV       AL,*(0:0x0c0c)        ; [CPU_ALU] |309| 
         00000880 0C0C 
    3830 00000881 18A9          AND       AL,#0xffef            ; [CPU_ALU] |309| 
         00000882 FFEF 
    3831 00000883 F4A9          MOV       *(0:0x0c0c),AL        ; [CPU_ALU] |309| 
         00000884 0C0C 
    3832                      .dwpsn  file "C:/Users/ZXC/Documents/mcu project/ti-project/clllc_nonpowerSUITE_F28004x/device/driver
    3833 00000885 F5A9          MOV       AL,*(0:0x0c14)        ; [CPU_ALU] |303| 
         00000886 0C14 
    3834 00000887 CCA9          AND       AL,AL,#0x7fff         ; [CPU_ALU] |303| 
         00000888 7FFF 
    3835                      .dwpsn  file "C:/Users/ZXC/Documents/mcu project/ti-project/clllc_nonpowerSUITE_F28004x/device/driver
    3836 00000889 5020          ORB       AL,#0x20              ; [CPU_ALU] |304| 
    3837 0000088a F4A9          MOV       *(0:0x0c14),AL        ; [CPU_ALU] |304| 
         0000088b 0C14 
    3838                      .dwpsn  file "C:/Users/ZXC/Documents/mcu project/ti-project/clllc_nonpowerSUITE_F28004x/device/driver
    3839 0000088c F5A9          MOV       AL,*(0:0x0c14)        ; [CPU_ALU] |309| 
         0000088d 0C14 
    3840 0000088e 18A9          AND       AL,#0xffef            ; [CPU_ALU] |309| 
         0000088f FFEF 
    3841 00000890 F4A9          MOV       *(0:0x0c14),AL        ; [CPU_ALU] |309| 
         00000891 0C14 
    3842              $C$DW$229       .dwtag  DW_TAG_TI_branch
    3843                      .dwattr $C$DW$229, DW_AT_low_pc(0x00)
    3844                      .dwattr $C$DW$229, DW_AT_TI_return
    3845              
    3846 00000892 0006          LRETR     ; [CPU_ALU] 
    3847                      ; return occurs ; [] 
    3848                      .dwattr $C$DW$215, DW_AT_TI_end_file("../clllc_hal.c")
    3849                      .dwattr $C$DW$215, DW_AT_TI_end_line(0x7f)
    3850                      .dwattr $C$DW$215, DW_AT_TI_end_column(0x01)
    3851                      .dwendentry
    3852                      .dwendtag $C$DW$215
    3853              
    3854 00000893               .sect   ".text"
    3855                      .clink
    3856                      .global ||CLLLC_HAL_setupCMPSSHighLowLimit||
    3857              
    3858              $C$DW$230       .dwtag  DW_TAG_subprogram
    3859                      .dwattr $C$DW$230, DW_AT_name("CLLLC_HAL_setupCMPSSHighLowLimit")
    3860                      .dwattr $C$DW$230, DW_AT_low_pc(||CLLLC_HAL_setupCMPSSHighLowLimit||)
TMS320C2000 Assembler PC v22.6.0 Mon Sep  2 11:55:45 2024

Copyright (c) 1996-2018 Texas Instruments Incorporated
clllc_hal.asm                                                        PAGE   86

    3861                      .dwattr $C$DW$230, DW_AT_high_pc(0x00)
    3862                      .dwattr $C$DW$230, DW_AT_linkage_name("CLLLC_HAL_setupCMPSSHighLowLimit")
    3863                      .dwattr $C$DW$230, DW_AT_external
    3864                      .dwattr $C$DW$230, DW_AT_decl_file("../clllc_hal.c")
    3865                      .dwattr $C$DW$230, DW_AT_decl_line(0x6bf)
    3866                      .dwattr $C$DW$230, DW_AT_decl_column(0x06)
    3867                      .dwattr $C$DW$230, DW_AT_TI_max_frame_size(-12)
    3868                      .dwpsn  file "../clllc_hal.c",line 1734,column 1,is_stmt,address ||CLLLC_HAL_setupCMPSSHighLowLimit||
    3869              
    3870                      .dwfde $C$DW$CIE, ||CLLLC_HAL_setupCMPSSHighLowLimit||
    3871              $C$DW$231       .dwtag  DW_TAG_formal_parameter
    3872                      .dwattr $C$DW$231, DW_AT_name("base1")
    3873                      .dwattr $C$DW$231, DW_AT_type(*$C$DW$T$142)
    3874                      .dwattr $C$DW$231, DW_AT_location[DW_OP_reg0]
    3875              
    3876              $C$DW$232       .dwtag  DW_TAG_formal_parameter
    3877                      .dwattr $C$DW$232, DW_AT_name("currentLimit")
    3878                      .dwattr $C$DW$232, DW_AT_type(*$C$DW$T$222)
    3879                      .dwattr $C$DW$232, DW_AT_location[DW_OP_regx 0x2b]
    3880              
    3881              $C$DW$233       .dwtag  DW_TAG_formal_parameter
    3882                      .dwattr $C$DW$233, DW_AT_name("currentMaxSense")
    3883                      .dwattr $C$DW$233, DW_AT_type(*$C$DW$T$222)
    3884                      .dwattr $C$DW$233, DW_AT_location[DW_OP_regx 0x2f]
    3885              
    3886              $C$DW$234       .dwtag  DW_TAG_formal_parameter
    3887                      .dwattr $C$DW$234, DW_AT_name("hysteresis")
    3888                      .dwattr $C$DW$234, DW_AT_type(*$C$DW$T$163)
    3889                      .dwattr $C$DW$234, DW_AT_location[DW_OP_reg12]
    3890              
    3891              $C$DW$235       .dwtag  DW_TAG_formal_parameter
    3892                      .dwattr $C$DW$235, DW_AT_name("filterClkPrescalar")
    3893                      .dwattr $C$DW$235, DW_AT_type(*$C$DW$T$163)
    3894                      .dwattr $C$DW$235, DW_AT_location[DW_OP_reg14]
    3895              
    3896              $C$DW$236       .dwtag  DW_TAG_formal_parameter
    3897                      .dwattr $C$DW$236, DW_AT_name("filterSampleWindow")
    3898                      .dwattr $C$DW$236, DW_AT_type(*$C$DW$T$163)
    3899                      .dwattr $C$DW$236, DW_AT_location[DW_OP_breg20 -13]
    3900              
    3901              $C$DW$237       .dwtag  DW_TAG_formal_parameter
    3902                      .dwattr $C$DW$237, DW_AT_name("filterThreshold")
    3903                      .dwattr $C$DW$237, DW_AT_type(*$C$DW$T$163)
    3904                      .dwattr $C$DW$237, DW_AT_location[DW_OP_breg20 -14]
    3905              
    3906              
    3907              ;***************************************************************
    3908              ;* FNAME: CLLLC_HAL_setupCMPSSHighLowLimit FR SIZE:  10           *
    3909              ;*                                                             *
    3910              ;* FUNCTION ENVIRONMENT                                        *
    3911              ;*                                                             *
    3912              ;* FUNCTION PROPERTIES                                         *
    3913              ;*                            1 Parameter,  2 Auto,  6 SOE     *
    3914              ;***************************************************************
    3915              
TMS320C2000 Assembler PC v22.6.0 Mon Sep  2 11:55:45 2024

Copyright (c) 1996-2018 Texas Instruments Incorporated
clllc_hal.asm                                                        PAGE   87

    3916              ||CLLLC_HAL_setupCMPSSHighLowLimit||:
    3917              ;* AR6   assigned to $O$C1
    3918              ;* AR1   assigned to base1
    3919              $C$DW$238       .dwtag  DW_TAG_variable
    3920                      .dwattr $C$DW$238, DW_AT_name("base1")
    3921                      .dwattr $C$DW$238, DW_AT_type(*$C$DW$T$246)
    3922                      .dwattr $C$DW$238, DW_AT_location[DW_OP_reg6]
    3923              
    3924              ;* R0    assigned to currentLimit
    3925              $C$DW$239       .dwtag  DW_TAG_variable
    3926                      .dwattr $C$DW$239, DW_AT_name("currentLimit")
    3927                      .dwattr $C$DW$239, DW_AT_type(*$C$DW$T$248)
    3928                      .dwattr $C$DW$239, DW_AT_location[DW_OP_regx 0x2b]
    3929              
    3930              ;* R1    assigned to currentMaxSense
    3931              $C$DW$240       .dwtag  DW_TAG_variable
    3932                      .dwattr $C$DW$240, DW_AT_name("currentMaxSense")
    3933                      .dwattr $C$DW$240, DW_AT_type(*$C$DW$T$248)
    3934                      .dwattr $C$DW$240, DW_AT_location[DW_OP_regx 0x2f]
    3935              
    3936              $C$DW$241       .dwtag  DW_TAG_variable
    3937                      .dwattr $C$DW$241, DW_AT_name("hysteresis")
    3938                      .dwattr $C$DW$241, DW_AT_type(*$C$DW$T$237)
    3939                      .dwattr $C$DW$241, DW_AT_location[DW_OP_breg20 -2]
    3940              
    3941              $C$DW$242       .dwtag  DW_TAG_variable
    3942                      .dwattr $C$DW$242, DW_AT_name("filterClkPrescalar")
    3943                      .dwattr $C$DW$242, DW_AT_type(*$C$DW$T$237)
    3944                      .dwattr $C$DW$242, DW_AT_location[DW_OP_breg20 -3]
    3945              
    3946              ;* AR2   assigned to filterSampleWindow
    3947              $C$DW$243       .dwtag  DW_TAG_variable
    3948                      .dwattr $C$DW$243, DW_AT_name("filterSampleWindow")
    3949                      .dwattr $C$DW$243, DW_AT_type(*$C$DW$T$237)
    3950                      .dwattr $C$DW$243, DW_AT_location[DW_OP_reg8]
    3951              
    3952              ;* AR3   assigned to filterThreshold
    3953              $C$DW$244       .dwtag  DW_TAG_variable
    3954                      .dwattr $C$DW$244, DW_AT_name("filterThreshold")
    3955                      .dwattr $C$DW$244, DW_AT_type(*$C$DW$T$237)
    3956                      .dwattr $C$DW$244, DW_AT_location[DW_OP_reg10]
    3957              
    3958                      .dwcfi  cfa_offset, -2
    3959                      .dwcfi  save_reg_to_mem, 26, 0
    3960 00000893 B2BD          MOVL      *SP++,XAR1            ; [CPU_ALU] 
    3961                      .dwcfi  save_reg_to_mem, 7, 2
    3962                      .dwcfi  cfa_offset, -4
    3963 00000894 AABD          MOVL      *SP++,XAR2            ; [CPU_ALU] 
    3964                      .dwcfi  save_reg_to_mem, 9, 4
    3965                      .dwcfi  cfa_offset, -6
    3966 00000895 A2BD          MOVL      *SP++,XAR3            ; [CPU_ALU] 
    3967                      .dwcfi  save_reg_to_mem, 11, 6
    3968                      .dwcfi  cfa_offset, -8
    3969 00000896 FE04          ADDB      SP,#4                 ; [CPU_ARAU] 
    3970                      .dwcfi  cfa_offset, -12
TMS320C2000 Assembler PC v22.6.0 Mon Sep  2 11:55:45 2024

Copyright (c) 1996-2018 Texas Instruments Incorporated
clllc_hal.asm                                                        PAGE   88

    3971 00000897 8BA9          MOVL      XAR1,ACC              ; [CPU_ALU] |1734| 
    3972 00000898 7D43          MOV       *-SP[3],AR5           ; [CPU_ALU] |1734| 
    3973 00000899 7C42          MOV       *-SP[2],AR4           ; [CPU_ALU] |1734| 
    3974 0000089a 5B4E          MOVZ      AR3,*-SP[14]          ; [CPU_ALU] |1734| 
    3975 0000089b 5A4D          MOVZ      AR2,*-SP[13]          ; [CPU_ALU] |1734| 
    3976                      .dwpsn  file "C:/Users/ZXC/Documents/mcu project/ti-project/clllc_nonpowerSUITE_F28004x/device/driver
    3977 0000089c 7622          EALLOW    ; [CPU_ALU] |256| 
    3978                      .dwpsn  file "C:/Users/ZXC/Documents/mcu project/ti-project/clllc_nonpowerSUITE_F28004x/device/driver
    3979 0000089d 1AC1          OR        *+XAR1[0],#0x8000     ; [CPU_ALU] |258| 
         0000089e 8000 
    3980                      .dwpsn  file "C:/Users/ZXC/Documents/mcu project/ti-project/clllc_nonpowerSUITE_F28004x/device/driver
    3981 0000089f 18E1          AND       *+XAR1[4],#0xff5e     ; [CPU_ALU] |560| 
         000008a0 FF5E 
    3982                      .dwpsn  file "C:/Users/ZXC/Documents/mcu project/ti-project/clllc_nonpowerSUITE_F28004x/device/driver
    3983 000008a1 761A          EDIS      ; [CPU_ALU] |564| 
    3984                      .dwpsn  file "C:/Users/ZXC/Documents/mcu project/ti-project/clllc_nonpowerSUITE_F28004x/device/driver
    3985 000008a2 E851          MPYF32    R0H,R0H,#17664        ; [CPU_FPU] |594| 
         000008a3 4000 
    3986 000008a4 7700          NOP       ; [CPU_ALU] 
    3987 000008a5 7700          NOP       ; [CPU_ALU] 
    3988 000008a6 E274          DIVF32    R0H,R0H,R1H           ; [CPU_FPU] |594| 
         000008a7 0040 
    3989 000008a8 7700          NOP       ; [CPU_ALU] 
    3990 000008a9 7700          NOP       ; [CPU_ALU] 
    3991 000008aa 7700          NOP       ; [CPU_ALU] 
    3992 000008ab 7700          NOP       ; [CPU_ALU] 
    3993 000008ac E68C          F32TOI16  R0H,R0H               ; [CPU_FPU] |594| 
         000008ad 0000 
    3994 000008ae 7700          NOP       ; [CPU_ALU] 
    3995 000008af 7700          NOP       ; [CPU_ALU] 
    3996 000008b0 BFA6          MOV32     XAR6,R0H              ; [CPU_FPU] |594| 
         000008b1 0F12 
    3997 000008b2 28A8          MOV       AH,#2048              ; [CPU_ALU] |594| 
         000008b3 0800 
    3998                      .dwpsn  file "C:/Users/ZXC/Documents/mcu project/ti-project/clllc_nonpowerSUITE_F28004x/device/driver
    3999 000008b4 28A9          MOV       AL,#2048              ; [CPU_ALU] |624| 
         000008b5 0800 
    4000 000008b6 D012          MOVB      XAR0,#18              ; [CPU_ALU] |624| 
    4001                      .dwpsn  file "C:/Users/ZXC/Documents/mcu project/ti-project/clllc_nonpowerSUITE_F28004x/device/driver
    4002 000008b7 95A6          ADD       AH,AR6                ; [CPU_ALU] |594| 
    4003                      .dwpsn  file "C:/Users/ZXC/Documents/mcu project/ti-project/clllc_nonpowerSUITE_F28004x/device/driver
    4004 000008b8 9EA6          SUB       AL,AR6                ; [CPU_ALU] |624| 
    4005                      .dwpsn  file "C:/Users/ZXC/Documents/mcu project/ti-project/clllc_nonpowerSUITE_F28004x/device/driver
    4006 000008b9 97F1          MOV       *+XAR1[6],AH          ; [CPU_ALU] |594| 
    4007                      .dwpsn  file "C:/Users/ZXC/Documents/mcu project/ti-project/clllc_nonpowerSUITE_F28004x/device/driver
    4008 000008ba 9691          MOV       *+XAR1[AR0],AL        ; [CPU_ALU] |624| 
    4009                      .dwpsn  file "C:/Users/ZXC/Documents/mcu project/ti-project/clllc_nonpowerSUITE_F28004x/device/driver
    4010 000008bb 7622          EALLOW    ; [CPU_ALU] |330| 
    4011                      .dwpsn  file "C:/Users/ZXC/Documents/mcu project/ti-project/clllc_nonpowerSUITE_F28004x/device/driver
    4012 000008bc 18C1          AND       *+XAR1[0],#0xffbc     ; [CPU_ALU] |332| 
         000008bd FFBC 
    4013                      .dwpsn  file "C:/Users/ZXC/Documents/mcu project/ti-project/clllc_nonpowerSUITE_F28004x/device/driver
    4014 000008be CCC1          AND       AL,*+XAR1[0],#0xbeff  ; [CPU_ALU] |378| 
         000008bf BEFF 
    4015 000008c0 1AA9          OR        AL,#0x0200            ; [CPU_ALU] |378| 
TMS320C2000 Assembler PC v22.6.0 Mon Sep  2 11:55:45 2024

Copyright (c) 1996-2018 Texas Instruments Incorporated
clllc_hal.asm                                                        PAGE   89

         000008c1 0200 
    4016 000008c2 96C1          MOV       *+XAR1[0],AL          ; [CPU_ALU] |378| 
    4017                      .dwpsn  file "C:/Users/ZXC/Documents/mcu project/ti-project/clllc_nonpowerSUITE_F28004x/device/driver
    4018 000008c3 761A          EDIS      ; [CPU_ALU] |381| 
    4019                      .dwpsn  file "../clllc_hal.c",line 1775,column 5,is_stmt,isa 0
    4020 000008c4 5CA5          MOVZ      AR4,AR5               ; [CPU_ALU] |1775| 
    4021 000008c5 5DA2          MOVZ      AR5,AR2               ; [CPU_ALU] |1775| 
    4022 000008c6 B2A9          MOVL      ACC,XAR1              ; [CPU_ALU] |1775| 
    4023 000008c7 7B41          MOV       *-SP[1],AR3           ; [CPU_ALU] |1775| 
    4024              $C$DW$245       .dwtag  DW_TAG_TI_branch
    4025                      .dwattr $C$DW$245, DW_AT_low_pc(0x00)
    4026                      .dwattr $C$DW$245, DW_AT_name("CMPSS_configFilterHigh")
    4027                      .dwattr $C$DW$245, DW_AT_TI_call
    4028              
    4029 000008c8 7640!         LCR       #||CMPSS_configFilterHigh|| ; [CPU_ALU] |1775| 
         000008c9 0000 
    4030                      ; call occurs [#||CMPSS_configFilterHigh||] ; [] |1775| 
    4031                      .dwpsn  file "../clllc_hal.c",line 1779,column 5,is_stmt,isa 0
    4032 000008ca 7B41          MOV       *-SP[1],AR3           ; [CPU_ALU] |1779| 
    4033 000008cb 5DA2          MOVZ      AR5,AR2               ; [CPU_ALU] |1779| 
    4034 000008cc B2A9          MOVL      ACC,XAR1              ; [CPU_ALU] |1779| 
    4035 000008cd 5C43          MOVZ      AR4,*-SP[3]           ; [CPU_ALU] |1779| 
    4036              $C$DW$246       .dwtag  DW_TAG_TI_branch
    4037                      .dwattr $C$DW$246, DW_AT_low_pc(0x00)
    4038                      .dwattr $C$DW$246, DW_AT_name("CMPSS_configFilterLow")
    4039                      .dwattr $C$DW$246, DW_AT_TI_call
    4040              
    4041 000008ce 7640!         LCR       #||CMPSS_configFilterLow|| ; [CPU_ALU] |1779| 
         000008cf 0000 
    4042                      ; call occurs [#||CMPSS_configFilterLow||] ; [] |1779| 
    4043                      .dwpsn  file "C:/Users/ZXC/Documents/mcu project/ti-project/clllc_nonpowerSUITE_F28004x/device/driver
    4044 000008d0 7622          EALLOW    ; [CPU_ALU] |653| 
    4045                      .dwpsn  file "C:/Users/ZXC/Documents/mcu project/ti-project/clllc_nonpowerSUITE_F28004x/device/driver
    4046 000008d1 8AA1          MOVL      XAR4,XAR1             ; [CPU_ALU] |655| 
    4047 000008d2 DC18          ADDB      XAR4,#24              ; [CPU_ALU] |655| 
    4048 000008d3 1AC4          OR        *+XAR4[0],#0x8000     ; [CPU_ALU] |655| 
         000008d4 8000 
    4049                      .dwpsn  file "C:/Users/ZXC/Documents/mcu project/ti-project/clllc_nonpowerSUITE_F28004x/device/driver
    4050 000008d5 8AA1          MOVL      XAR4,XAR1             ; [CPU_ALU] |688| 
    4051 000008d6 DC16          ADDB      XAR4,#22              ; [CPU_ALU] |688| 
    4052 000008d7 1AC4          OR        *+XAR4[0],#0x8000     ; [CPU_ALU] |688| 
         000008d8 8000 
    4053                      .dwpsn  file "C:/Users/ZXC/Documents/mcu project/ti-project/clllc_nonpowerSUITE_F28004x/device/driver
    4054 000008d9 CCC1          AND       AL,*+XAR1[0],#0xffc3  ; [CPU_ALU] |425| 
         000008da FFC3 
    4055 000008db 5008          ORB       AL,#0x08              ; [CPU_ALU] |425| 
    4056 000008dc 96C1          MOV       *+XAR1[0],AL          ; [CPU_ALU] |425| 
    4057                      .dwpsn  file "C:/Users/ZXC/Documents/mcu project/ti-project/clllc_nonpowerSUITE_F28004x/device/driver
    4058 000008dd CCC1          AND       AL,*+XAR1[0],#0xc3ff  ; [CPU_ALU] |474| 
         000008de C3FF 
    4059 000008df 1AA9          OR        AL,#0x0800            ; [CPU_ALU] |474| 
         000008e0 0800 
    4060 000008e1 96C1          MOV       *+XAR1[0],AL          ; [CPU_ALU] |474| 
    4061                      .dwpsn  file "C:/Users/ZXC/Documents/mcu project/ti-project/clllc_nonpowerSUITE_F28004x/device/driver
    4062 000008e2 9242          MOV       AL,*-SP[2]            ; [CPU_ALU] |1029| 
TMS320C2000 Assembler PC v22.6.0 Mon Sep  2 11:55:45 2024

Copyright (c) 1996-2018 Texas Instruments Incorporated
clllc_hal.asm                                                        PAGE   90

    4063                      .dwpsn  file "C:/Users/ZXC/Documents/mcu project/ti-project/clllc_nonpowerSUITE_F28004x/device/driver
    4064 000008e3 96C9          MOV       *+XAR1[1],AL          ; [CPU_ALU] |1031| 
    4065                      .dwpsn  file "C:/Users/ZXC/Documents/mcu project/ti-project/clllc_nonpowerSUITE_F28004x/device/driver
    4066 000008e4 1AD9          OR        *+XAR1[3],#0x0002     ; [CPU_ALU] |772| 
         000008e5 0002 
    4067                      .dwpsn  file "C:/Users/ZXC/Documents/mcu project/ti-project/clllc_nonpowerSUITE_F28004x/device/driver
    4068 000008e6 1AD9          OR        *+XAR1[3],#0x0200     ; [CPU_ALU] |802| 
         000008e7 0200 
    4069                      .dwpsn  file "C:/Users/ZXC/Documents/mcu project/ti-project/clllc_nonpowerSUITE_F28004x/device/driver
    4070 000008e8 761A          EDIS      ; [CPU_ALU] |804| 
    4071 000008e9 FE84          SUBB      SP,#4                 ; [CPU_ARAU] 
    4072                      .dwcfi  cfa_offset, -8
    4073 000008ea 82BE          MOVL      XAR3,*--SP            ; [CPU_ALU] 
    4074                      .dwcfi  cfa_offset, -6
    4075                      .dwcfi  restore_reg, 11
    4076 000008eb 86BE          MOVL      XAR2,*--SP            ; [CPU_ALU] 
    4077                      .dwcfi  cfa_offset, -4
    4078                      .dwcfi  restore_reg, 9
    4079 000008ec 8BBE          MOVL      XAR1,*--SP            ; [CPU_ALU] 
    4080                      .dwcfi  cfa_offset, -2
    4081                      .dwcfi  restore_reg, 7
    4082              $C$DW$247       .dwtag  DW_TAG_TI_branch
    4083                      .dwattr $C$DW$247, DW_AT_low_pc(0x00)
    4084                      .dwattr $C$DW$247, DW_AT_TI_return
    4085              
    4086 000008ed 0006          LRETR     ; [CPU_ALU] 
    4087                      ; return occurs ; [] 
    4088                      .dwattr $C$DW$230, DW_AT_TI_end_file("../clllc_hal.c")
    4089                      .dwattr $C$DW$230, DW_AT_TI_end_line(0x70e)
    4090                      .dwattr $C$DW$230, DW_AT_TI_end_column(0x01)
    4091                      .dwendentry
    4092                      .dwendtag $C$DW$230
    4093              
    4094 000008ee               .sect   ".text"
    4095                      .clink
    4096                      .global ||CLLLC_HAL_setupCLA||
    4097              
    4098              $C$DW$248       .dwtag  DW_TAG_subprogram
    4099                      .dwattr $C$DW$248, DW_AT_name("CLLLC_HAL_setupCLA")
    4100                      .dwattr $C$DW$248, DW_AT_low_pc(||CLLLC_HAL_setupCLA||)
    4101                      .dwattr $C$DW$248, DW_AT_high_pc(0x00)
    4102                      .dwattr $C$DW$248, DW_AT_linkage_name("CLLLC_HAL_setupCLA")
    4103                      .dwattr $C$DW$248, DW_AT_external
    4104                      .dwattr $C$DW$248, DW_AT_decl_file("../clllc_hal.c")
    4105                      .dwattr $C$DW$248, DW_AT_decl_line(0x58d)
    4106                      .dwattr $C$DW$248, DW_AT_decl_column(0x06)
    4107                      .dwattr $C$DW$248, DW_AT_TI_max_frame_size(-2)
    4108                      .dwpsn  file "../clllc_hal.c",line 1422,column 1,is_stmt,address ||CLLLC_HAL_setupCLA||,isa 0
    4109              
    4110                      .dwfde $C$DW$CIE, ||CLLLC_HAL_setupCLA||
    4111              
    4112              ;***************************************************************
    4113              ;* FNAME: CLLLC_HAL_setupCLA            FR SIZE:   0           *
    4114              ;*                                                             *
    4115              ;* FUNCTION ENVIRONMENT                                        *
TMS320C2000 Assembler PC v22.6.0 Mon Sep  2 11:55:45 2024

Copyright (c) 1996-2018 Texas Instruments Incorporated
clllc_hal.asm                                                        PAGE   91

    4116              ;*                                                             *
    4117              ;* FUNCTION PROPERTIES                                         *
    4118              ;*                            0 Parameter,  0 Auto,  0 SOE     *
    4119              ;***************************************************************
    4120              
    4121 000008ee       ||CLLLC_HAL_setupCLA||:
    4122                      .dwcfi  cfa_offset, -2
    4123                      .dwcfi  save_reg_to_mem, 26, 0
    4124              $C$DW$249       .dwtag  DW_TAG_TI_branch
    4125                      .dwattr $C$DW$249, DW_AT_low_pc(0x00)
    4126                      .dwattr $C$DW$249, DW_AT_TI_return
    4127              
    4128 000008ee 0006          LRETR     ; [CPU_ALU] 
    4129                      ; return occurs ; [] 
    4130                      .dwattr $C$DW$248, DW_AT_TI_end_file("../clllc_hal.c")
    4131                      .dwattr $C$DW$248, DW_AT_TI_end_line(0x5c4)
    4132                      .dwattr $C$DW$248, DW_AT_TI_end_column(0x01)
    4133                      .dwendentry
    4134                      .dwendtag $C$DW$248
    4135              
    4136 000008ef               .sect   ".text"
    4137                      .clink
    4138                      .global ||CLLLC_HAL_setupBoardProtection||
    4139              
    4140              $C$DW$250       .dwtag  DW_TAG_subprogram
    4141                      .dwattr $C$DW$250, DW_AT_name("CLLLC_HAL_setupBoardProtection")
    4142                      .dwattr $C$DW$250, DW_AT_low_pc(||CLLLC_HAL_setupBoardProtection||)
    4143                      .dwattr $C$DW$250, DW_AT_high_pc(0x00)
    4144                      .dwattr $C$DW$250, DW_AT_linkage_name("CLLLC_HAL_setupBoardProtection")
    4145                      .dwattr $C$DW$250, DW_AT_external
    4146                      .dwattr $C$DW$250, DW_AT_decl_file("../clllc_hal.c")
    4147                      .dwattr $C$DW$250, DW_AT_decl_line(0x1d6)
    4148                      .dwattr $C$DW$250, DW_AT_decl_column(0x06)
    4149                      .dwattr $C$DW$250, DW_AT_TI_max_frame_size(-4)
    4150                      .dwpsn  file "../clllc_hal.c",line 471,column 1,is_stmt,address ||CLLLC_HAL_setupBoardProtection||,is
    4151              
    4152                      .dwfde $C$DW$CIE, ||CLLLC_HAL_setupBoardProtection||
    4153              
    4154              ;***************************************************************
    4155              ;* FNAME: CLLLC_HAL_setupBoardProtection FR SIZE:   2           *
    4156              ;*                                                             *
    4157              ;* FUNCTION ENVIRONMENT                                        *
    4158              ;*                                                             *
    4159              ;* FUNCTION PROPERTIES                                         *
    4160              ;*                            2 Parameter,  0 Auto,  0 SOE     *
    4161              ;***************************************************************
    4162              
    4163 000008ef       ||CLLLC_HAL_setupBoardProtection||:
    4164                      .dwcfi  cfa_offset, -2
    4165                      .dwcfi  save_reg_to_mem, 26, 0
    4166 000008ef FE02          ADDB      SP,#2                 ; [CPU_ARAU] 
    4167                      .dwcfi  cfa_offset, -4
    4168                      .dwpsn  file "C:\Users\ZXC\Documents\mcu project\ti-project\clllc_nonpowerSUITE_F28004x\device\driver
    4169 000008f0 7622          EALLOW    ; [CPU_ALU] |856| 
    4170                      .dwpsn  file "C:\Users\ZXC\Documents\mcu project\ti-project\clllc_nonpowerSUITE_F28004x\device\driver
TMS320C2000 Assembler PC v22.6.0 Mon Sep  2 11:55:45 2024

Copyright (c) 1996-2018 Texas Instruments Incorporated
clllc_hal.asm                                                        PAGE   92

    4171 000008f1 BFA9          MOV32     ACC,*(0:0x7a20)       ; [CPU_FPU] |858| 
         000008f2 7A20 
    4172                      .dwpsn  file "C:/Users/ZXC/Documents/mcu project/ti-project/clllc_nonpowerSUITE_F28004x/device/driver
    4173 000008f3 8F05          MOVL      XAR4,#382850          ; [CPU_ARAU] |648| 
         000008f4 D782 
    4174                      .dwpsn  file "C:\Users\ZXC\Documents\mcu project\ti-project\clllc_nonpowerSUITE_F28004x\device\driver
    4175 000008f5 BDA9          MOV32     *(0:0x7a20),ACC       ; [CPU_FPU] |858| 
         000008f6 7A20 
    4176                      .dwpsn  file "C:/Users/ZXC/Documents/mcu project/ti-project/clllc_nonpowerSUITE_F28004x/device/driver
    4177 000008f7 06C4          MOVL      ACC,*+XAR4[0]         ; [CPU_ALU] |648| 
    4178 000008f8 18A9          AND       AL,#65479             ; [CPU_ALU] |648| 
         000008f9 FFC7 
    4179 000008fa 1EC4          MOVL      *+XAR4[0],ACC         ; [CPU_ALU] |648| 
    4180                      .dwpsn  file "C:/Users/ZXC/Documents/mcu project/ti-project/clllc_nonpowerSUITE_F28004x/device/driver
    4181 000008fb 8F05          MOVL      XAR4,#382852          ; [CPU_ARAU] |687| 
         000008fc D784 
    4182 000008fd 06C4          MOVL      ACC,*+XAR4[0]         ; [CPU_ALU] |687| 
    4183 000008fe 18A9          AND       AL,#65479             ; [CPU_ALU] |687| 
         000008ff FFC7 
    4184 00000900 1EC4          MOVL      *+XAR4[0],ACC         ; [CPU_ALU] |687| 
    4185                      .dwpsn  file "C:/Users/ZXC/Documents/mcu project/ti-project/clllc_nonpowerSUITE_F28004x/device/driver
    4186 00000901 761A          EDIS      ; [CPU_ALU] |692| 
    4187                      .dwpsn  file "../clllc_hal.c",line 504,column 5,is_stmt,isa 0
    4188 00000902 E802          MOVIZ     R1H,#16905            ; [CPU_FPU] |504| 
         00000903 1049 
    4189 00000904 E802          MOVIZ     R0H,#16880            ; [CPU_FPU] |504| 
         00000905 0F80 
    4190 00000906 D502          MOVB      XAR5,#2               ; [CPU_ALU] |504| 
    4191 00000907 56BF          MOVB      *-SP[1],#10,UNC       ; [CPU_ALU] |504| 
         00000908 0A41 
    4192 00000909 D402          MOVB      XAR4,#2               ; [CPU_ALU] |504| 
    4193 0000090a FF20          MOV       ACC,#23712            ; [CPU_ALU] |504| 
         0000090b 5CA0 
    4194 0000090c E80C          MOVXI     R1H,#32768            ; [CPU_FPU] |504| 
         0000090d 0001 
    4195 0000090e 56BF          MOVB      *-SP[2],#7,UNC        ; [CPU_ALU] |504| 
         0000090f 0742 
    4196              $C$DW$251       .dwtag  DW_TAG_TI_branch
    4197                      .dwattr $C$DW$251, DW_AT_low_pc(0x00)
    4198                      .dwattr $C$DW$251, DW_AT_name("CLLLC_HAL_setupCMPSSHighLowLimit")
    4199                      .dwattr $C$DW$251, DW_AT_TI_call
    4200              
    4201 00000910 7640!         LCR       #||CLLLC_HAL_setupCMPSSHighLowLimit|| ; [CPU_ALU] |504| 
         00000911 0000 
    4202                      ; call occurs [#||CLLLC_HAL_setupCMPSSHighLowLimit||] ; [] |504| 
    4203                      .dwpsn  file "../clllc_hal.c",line 512,column 5,is_stmt,isa 0
    4204 00000912 9A00          MOVB      AL,#0                 ; [CPU_ALU] |512| 
    4205 00000913 28A8          MOV       AH,#1025              ; [CPU_ALU] |512| 
         00000914 0401 
    4206              $C$DW$252       .dwtag  DW_TAG_TI_branch
    4207                      .dwattr $C$DW$252, DW_AT_low_pc(0x00)
    4208                      .dwattr $C$DW$252, DW_AT_name("XBAR_setEPWMMuxConfig")
    4209                      .dwattr $C$DW$252, DW_AT_TI_call
    4210              
    4211 00000915 7640!         LCR       #||XBAR_setEPWMMuxConfig|| ; [CPU_ALU] |512| 
TMS320C2000 Assembler PC v22.6.0 Mon Sep  2 11:55:45 2024

Copyright (c) 1996-2018 Texas Instruments Incorporated
clllc_hal.asm                                                        PAGE   93

         00000916 0000 
    4212                      ; call occurs [#||XBAR_setEPWMMuxConfig||] ; [] |512| 
    4213                      .dwpsn  file "C:\Users\ZXC\Documents\mcu project\ti-project\clllc_nonpowerSUITE_F28004x\device\driver
    4214 00000917 7622          EALLOW    ; [CPU_ALU] |856| 
    4215                      .dwpsn  file "C:\Users\ZXC\Documents\mcu project\ti-project\clllc_nonpowerSUITE_F28004x\device\driver
    4216 00000918 BFA9          MOV32     ACC,*(0:0x7a20)       ; [CPU_FPU] |858| 
         00000919 7A20 
    4217 0000091a 5004          ORB       AL,#0x04              ; [CPU_ALU] |858| 
    4218 0000091b BDA9          MOV32     *(0:0x7a20),ACC       ; [CPU_FPU] |858| 
         0000091c 7A20 
    4219                      .dwpsn  file "C:\Users\ZXC\Documents\mcu project\ti-project\clllc_nonpowerSUITE_F28004x\device\driver
    4220 0000091d 761A          EDIS      ; [CPU_ALU] |859| 
    4221                      .dwpsn  file "../clllc_hal.c",line 514,column 5,is_stmt,isa 0
    4222 0000091e 9A03          MOVB      AL,#3                 ; [CPU_ALU] |514| 
    4223              $C$DW$253       .dwtag  DW_TAG_TI_branch
    4224                      .dwattr $C$DW$253, DW_AT_low_pc(0x00)
    4225                      .dwattr $C$DW$253, DW_AT_name("XBAR_clearInputFlag")
    4226                      .dwattr $C$DW$253, DW_AT_TI_call
    4227              
    4228 0000091f 7640!         LCR       #||XBAR_clearInputFlag|| ; [CPU_ALU] |514| 
         00000920 0000 
    4229                      ; call occurs [#||XBAR_clearInputFlag||] ; [] |514| 
    4230                      .dwpsn  file "../clllc_hal.c",line 515,column 5,is_stmt,isa 0
    4231 00000921 9A02          MOVB      AL,#2                 ; [CPU_ALU] |515| 
    4232              $C$DW$254       .dwtag  DW_TAG_TI_branch
    4233                      .dwattr $C$DW$254, DW_AT_low_pc(0x00)
    4234                      .dwattr $C$DW$254, DW_AT_name("XBAR_clearInputFlag")
    4235                      .dwattr $C$DW$254, DW_AT_TI_call
    4236              
    4237 00000922 7640!         LCR       #||XBAR_clearInputFlag|| ; [CPU_ALU] |515| 
         00000923 0000 
    4238                      ; call occurs [#||XBAR_clearInputFlag||] ; [] |515| 
    4239                      .dwpsn  file "C:/Users/ZXC/Documents/mcu project/ti-project/clllc_nonpowerSUITE_F28004x/device/driver
    4240 00000924 7622          EALLOW    ; [CPU_ALU] |643| 
    4241                      .dwpsn  file "C:/Users/ZXC/Documents/mcu project/ti-project/clllc_nonpowerSUITE_F28004x/device/driver
    4242 00000925 8F05          MOVL      XAR4,#382850          ; [CPU_ARAU] |648| 
         00000926 D782 
    4243 00000927 06C4          MOVL      ACC,*+XAR4[0]         ; [CPU_ALU] |648| 
    4244 00000928 18A8          AND       AH,#65531             ; [CPU_ALU] |648| 
         00000929 FFFB 
    4245 0000092a 5103          OR        AH,#3                 ; [CPU_ALU] |648| 
    4246 0000092b 1EC4          MOVL      *+XAR4[0],ACC         ; [CPU_ALU] |648| 
    4247                      .dwpsn  file "C:/Users/ZXC/Documents/mcu project/ti-project/clllc_nonpowerSUITE_F28004x/device/driver
    4248 0000092c 8F05          MOVL      XAR4,#382852          ; [CPU_ARAU] |687| 
         0000092d D784 
    4249 0000092e 06C4          MOVL      ACC,*+XAR4[0]         ; [CPU_ALU] |687| 
    4250 0000092f 18A8          AND       AH,#65531             ; [CPU_ALU] |687| 
         00000930 FFFB 
    4251 00000931 5103          OR        AH,#3                 ; [CPU_ALU] |687| 
    4252 00000932 1EC4          MOVL      *+XAR4[0],ACC         ; [CPU_ALU] |687| 
    4253                      .dwpsn  file "C:/Users/ZXC/Documents/mcu project/ti-project/clllc_nonpowerSUITE_F28004x/device/driver
    4254 00000933 761A          EDIS      ; [CPU_ALU] |692| 
    4255                      .dwpsn  file "../clllc_hal.c",line 526,column 5,is_stmt,isa 0
    4256 00000934 E802          MOVIZ     R1H,#16937            ; [CPU_FPU] |526| 
         00000935 1149 
TMS320C2000 Assembler PC v22.6.0 Mon Sep  2 11:55:45 2024

Copyright (c) 1996-2018 Texas Instruments Incorporated
clllc_hal.asm                                                        PAGE   94

    4257 00000936 E802          MOVIZ     R0H,#16928            ; [CPU_FPU] |526| 
         00000937 1100 
    4258 00000938 D502          MOVB      XAR5,#2               ; [CPU_ALU] |526| 
    4259 00000939 D402          MOVB      XAR4,#2               ; [CPU_ALU] |526| 
    4260 0000093a 56BF          MOVB      *-SP[1],#10,UNC       ; [CPU_ALU] |526| 
         0000093b 0A41 
    4261 0000093c FF20          MOV       ACC,#23840            ; [CPU_ALU] |526| 
         0000093d 5D20 
    4262 0000093e E80E          MOVXI     R1H,#49283            ; [CPU_FPU] |526| 
         0000093f 0419 
    4263 00000940 56BF          MOVB      *-SP[2],#7,UNC        ; [CPU_ALU] |526| 
         00000941 0742 
    4264              $C$DW$255       .dwtag  DW_TAG_TI_branch
    4265                      .dwattr $C$DW$255, DW_AT_low_pc(0x00)
    4266                      .dwattr $C$DW$255, DW_AT_name("CLLLC_HAL_setupCMPSSHighLowLimit")
    4267                      .dwattr $C$DW$255, DW_AT_TI_call
    4268              
    4269 00000942 7640!         LCR       #||CLLLC_HAL_setupCMPSSHighLowLimit|| ; [CPU_ALU] |526| 
         00000943 0000 
    4270                      ; call occurs [#||CLLLC_HAL_setupCMPSSHighLowLimit||] ; [] |526| 
    4271                      .dwpsn  file "../clllc_hal.c",line 534,column 5,is_stmt,isa 0
    4272 00000944 9A00          MOVB      AL,#0                 ; [CPU_ALU] |534| 
    4273 00000945 28A8          MOV       AH,#5121              ; [CPU_ALU] |534| 
         00000946 1401 
    4274              $C$DW$256       .dwtag  DW_TAG_TI_branch
    4275                      .dwattr $C$DW$256, DW_AT_low_pc(0x00)
    4276                      .dwattr $C$DW$256, DW_AT_name("XBAR_setEPWMMuxConfig")
    4277                      .dwattr $C$DW$256, DW_AT_TI_call
    4278              
    4279 00000947 7640!         LCR       #||XBAR_setEPWMMuxConfig|| ; [CPU_ALU] |534| 
         00000948 0000 
    4280                      ; call occurs [#||XBAR_setEPWMMuxConfig||] ; [] |534| 
    4281                      .dwpsn  file "C:\Users\ZXC\Documents\mcu project\ti-project\clllc_nonpowerSUITE_F28004x\device\driver
    4282 00000949 7622          EALLOW    ; [CPU_ALU] |856| 
    4283                      .dwpsn  file "C:\Users\ZXC\Documents\mcu project\ti-project\clllc_nonpowerSUITE_F28004x\device\driver
    4284 0000094a BFA9          MOV32     ACC,*(0:0x7a20)       ; [CPU_FPU] |858| 
         0000094b 7A20 
    4285 0000094c 1AA9          OR        AL,#1024              ; [CPU_ALU] |858| 
         0000094d 0400 
    4286 0000094e BDA9          MOV32     *(0:0x7a20),ACC       ; [CPU_FPU] |858| 
         0000094f 7A20 
    4287                      .dwpsn  file "C:\Users\ZXC\Documents\mcu project\ti-project\clllc_nonpowerSUITE_F28004x\device\driver
    4288 00000950 761A          EDIS      ; [CPU_ALU] |859| 
    4289                      .dwpsn  file "../clllc_hal.c",line 536,column 5,is_stmt,isa 0
    4290 00000951 9A0B          MOVB      AL,#11                ; [CPU_ALU] |536| 
    4291              $C$DW$257       .dwtag  DW_TAG_TI_branch
    4292                      .dwattr $C$DW$257, DW_AT_low_pc(0x00)
    4293                      .dwattr $C$DW$257, DW_AT_name("XBAR_clearInputFlag")
    4294                      .dwattr $C$DW$257, DW_AT_TI_call
    4295              
    4296 00000952 7640!         LCR       #||XBAR_clearInputFlag|| ; [CPU_ALU] |536| 
         00000953 0000 
    4297                      ; call occurs [#||XBAR_clearInputFlag||] ; [] |536| 
    4298                      .dwpsn  file "../clllc_hal.c",line 537,column 5,is_stmt,isa 0
    4299 00000954 9A0A          MOVB      AL,#10                ; [CPU_ALU] |537| 
TMS320C2000 Assembler PC v22.6.0 Mon Sep  2 11:55:45 2024

Copyright (c) 1996-2018 Texas Instruments Incorporated
clllc_hal.asm                                                        PAGE   95

    4300              $C$DW$258       .dwtag  DW_TAG_TI_branch
    4301                      .dwattr $C$DW$258, DW_AT_low_pc(0x00)
    4302                      .dwattr $C$DW$258, DW_AT_name("XBAR_clearInputFlag")
    4303                      .dwattr $C$DW$258, DW_AT_TI_call
    4304              
    4305 00000955 7640!         LCR       #||XBAR_clearInputFlag|| ; [CPU_ALU] |537| 
         00000956 0000 
    4306                      ; call occurs [#||XBAR_clearInputFlag||] ; [] |537| 
    4307                      .dwpsn  file "C:/Users/ZXC/Documents/mcu project/ti-project/clllc_nonpowerSUITE_F28004x/device/driver
    4308 00000957 7622          EALLOW    ; [CPU_ALU] |5627| 
    4309                      .dwpsn  file "C:/Users/ZXC/Documents/mcu project/ti-project/clllc_nonpowerSUITE_F28004x/device/driver
    4310 00000958 F5A9          MOV       AL,*(0:0x40c0)        ; [CPU_ALU] |5628| 
         00000959 40C0 
    4311 0000095a CCA9          AND       AL,AL,#0xfff0         ; [CPU_ALU] |5628| 
         0000095b FFF0 
    4312 0000095c 5003          ORB       AL,#0x03              ; [CPU_ALU] |5628| 
    4313 0000095d F4A9          MOV       *(0:0x40c0),AL        ; [CPU_ALU] |5628| 
         0000095e 40C0 
    4314                      .dwpsn  file "C:/Users/ZXC/Documents/mcu project/ti-project/clllc_nonpowerSUITE_F28004x/device/driver
    4315 0000095f F5A9          MOV       AL,*(0:0x4082)        ; [CPU_ALU] |3998| 
         00000960 4082 
    4316 00000961 CCA9          AND       AL,AL,#0xfff8         ; [CPU_ALU] |3998| 
         00000962 FFF8 
    4317 00000963 5002          ORB       AL,#0x02              ; [CPU_ALU] |3998| 
    4318 00000964 F4A9          MOV       *(0:0x4082),AL        ; [CPU_ALU] |3998| 
         00000965 4082 
    4319                      .dwpsn  file "C:/Users/ZXC/Documents/mcu project/ti-project/clllc_nonpowerSUITE_F28004x/device/driver
    4320 00000966 F5A9          MOV       AL,*(0:0x40c3)        ; [CPU_ALU] |6161| 
         00000967 40C3 
    4321 00000968 18A9          AND       AL,#0xfffe            ; [CPU_ALU] |6161| 
         00000969 FFFE 
    4322 0000096a F4A9          MOV       *(0:0x40c3),AL        ; [CPU_ALU] |6161| 
         0000096b 40C3 
    4323                      .dwpsn  file "C:/Users/ZXC/Documents/mcu project/ti-project/clllc_nonpowerSUITE_F28004x/device/driver
    4324 0000096c F5A9          MOV       AL,*(0:0x40c3)        ; [CPU_ALU] |6221| 
         0000096d 40C3 
    4325 0000096e 5002          ORB       AL,#0x02              ; [CPU_ALU] |6221| 
    4326 0000096f F4A9          MOV       *(0:0x40c3),AL        ; [CPU_ALU] |6221| 
         00000970 40C3 
    4327                      .dwpsn  file "C:/Users/ZXC/Documents/mcu project/ti-project/clllc_nonpowerSUITE_F28004x/device/driver
    4328 00000971 F5A9          MOV       AL,*(0:0x41c0)        ; [CPU_ALU] |5628| 
         00000972 41C0 
    4329 00000973 CCA9          AND       AL,AL,#0xfff0         ; [CPU_ALU] |5628| 
         00000974 FFF0 
    4330 00000975 5003          ORB       AL,#0x03              ; [CPU_ALU] |5628| 
    4331 00000976 F4A9          MOV       *(0:0x41c0),AL        ; [CPU_ALU] |5628| 
         00000977 41C0 
    4332                      .dwpsn  file "C:/Users/ZXC/Documents/mcu project/ti-project/clllc_nonpowerSUITE_F28004x/device/driver
    4333 00000978 F5A9          MOV       AL,*(0:0x4182)        ; [CPU_ALU] |3998| 
         00000979 4182 
    4334 0000097a CCA9          AND       AL,AL,#0xfff8         ; [CPU_ALU] |3998| 
         0000097b FFF8 
    4335 0000097c 5002          ORB       AL,#0x02              ; [CPU_ALU] |3998| 
    4336 0000097d F4A9          MOV       *(0:0x4182),AL        ; [CPU_ALU] |3998| 
         0000097e 4182 
TMS320C2000 Assembler PC v22.6.0 Mon Sep  2 11:55:45 2024

Copyright (c) 1996-2018 Texas Instruments Incorporated
clllc_hal.asm                                                        PAGE   96

    4337                      .dwpsn  file "C:/Users/ZXC/Documents/mcu project/ti-project/clllc_nonpowerSUITE_F28004x/device/driver
    4338 0000097f F5A9          MOV       AL,*(0:0x41c3)        ; [CPU_ALU] |6161| 
         00000980 41C3 
    4339 00000981 18A9          AND       AL,#0xfffe            ; [CPU_ALU] |6161| 
         00000982 FFFE 
    4340 00000983 F4A9          MOV       *(0:0x41c3),AL        ; [CPU_ALU] |6161| 
         00000984 41C3 
    4341                      .dwpsn  file "C:/Users/ZXC/Documents/mcu project/ti-project/clllc_nonpowerSUITE_F28004x/device/driver
    4342 00000985 F5A9          MOV       AL,*(0:0x41c3)        ; [CPU_ALU] |6221| 
         00000986 41C3 
    4343 00000987 5002          ORB       AL,#0x02              ; [CPU_ALU] |6221| 
    4344 00000988 F4A9          MOV       *(0:0x41c3),AL        ; [CPU_ALU] |6221| 
         00000989 41C3 
    4345                      .dwpsn  file "C:/Users/ZXC/Documents/mcu project/ti-project/clllc_nonpowerSUITE_F28004x/device/driver
    4346 0000098a F5A9          MOV       AL,*(0:0x42c0)        ; [CPU_ALU] |5628| 
         0000098b 42C0 
    4347 0000098c CCA9          AND       AL,AL,#0xfff0         ; [CPU_ALU] |5628| 
         0000098d FFF0 
    4348 0000098e 5003          ORB       AL,#0x03              ; [CPU_ALU] |5628| 
    4349 0000098f F4A9          MOV       *(0:0x42c0),AL        ; [CPU_ALU] |5628| 
         00000990 42C0 
    4350                      .dwpsn  file "C:/Users/ZXC/Documents/mcu project/ti-project/clllc_nonpowerSUITE_F28004x/device/driver
    4351 00000991 F5A9          MOV       AL,*(0:0x4282)        ; [CPU_ALU] |3998| 
         00000992 4282 
    4352 00000993 CCA9          AND       AL,AL,#0xfff8         ; [CPU_ALU] |3998| 
         00000994 FFF8 
    4353 00000995 5002          ORB       AL,#0x02              ; [CPU_ALU] |3998| 
    4354 00000996 F4A9          MOV       *(0:0x4282),AL        ; [CPU_ALU] |3998| 
         00000997 4282 
    4355                      .dwpsn  file "C:/Users/ZXC/Documents/mcu project/ti-project/clllc_nonpowerSUITE_F28004x/device/driver
    4356 00000998 F5A9          MOV       AL,*(0:0x42c3)        ; [CPU_ALU] |6161| 
         00000999 42C3 
    4357 0000099a 18A9          AND       AL,#0xfffe            ; [CPU_ALU] |6161| 
         0000099b FFFE 
    4358 0000099c F4A9          MOV       *(0:0x42c3),AL        ; [CPU_ALU] |6161| 
         0000099d 42C3 
    4359                      .dwpsn  file "C:/Users/ZXC/Documents/mcu project/ti-project/clllc_nonpowerSUITE_F28004x/device/driver
    4360 0000099e F5A9          MOV       AL,*(0:0x42c3)        ; [CPU_ALU] |6221| 
         0000099f 42C3 
    4361 000009a0 5002          ORB       AL,#0x02              ; [CPU_ALU] |6221| 
    4362 000009a1 F4A9          MOV       *(0:0x42c3),AL        ; [CPU_ALU] |6221| 
         000009a2 42C3 
    4363                      .dwpsn  file "C:/Users/ZXC/Documents/mcu project/ti-project/clllc_nonpowerSUITE_F28004x/device/driver
    4364 000009a3 F5A9          MOV       AL,*(0:0x43c0)        ; [CPU_ALU] |5628| 
         000009a4 43C0 
    4365 000009a5 CCA9          AND       AL,AL,#0xfff0         ; [CPU_ALU] |5628| 
         000009a6 FFF0 
    4366 000009a7 5003          ORB       AL,#0x03              ; [CPU_ALU] |5628| 
    4367 000009a8 F4A9          MOV       *(0:0x43c0),AL        ; [CPU_ALU] |5628| 
         000009a9 43C0 
    4368                      .dwpsn  file "C:/Users/ZXC/Documents/mcu project/ti-project/clllc_nonpowerSUITE_F28004x/device/driver
    4369 000009aa F5A9          MOV       AL,*(0:0x4382)        ; [CPU_ALU] |3998| 
         000009ab 4382 
    4370 000009ac CCA9          AND       AL,AL,#0xfff8         ; [CPU_ALU] |3998| 
         000009ad FFF8 
TMS320C2000 Assembler PC v22.6.0 Mon Sep  2 11:55:45 2024

Copyright (c) 1996-2018 Texas Instruments Incorporated
clllc_hal.asm                                                        PAGE   97

    4371 000009ae 5002          ORB       AL,#0x02              ; [CPU_ALU] |3998| 
    4372 000009af F4A9          MOV       *(0:0x4382),AL        ; [CPU_ALU] |3998| 
         000009b0 4382 
    4373                      .dwpsn  file "C:/Users/ZXC/Documents/mcu project/ti-project/clllc_nonpowerSUITE_F28004x/device/driver
    4374 000009b1 F5A9          MOV       AL,*(0:0x43c3)        ; [CPU_ALU] |6161| 
         000009b2 43C3 
    4375 000009b3 18A9          AND       AL,#0xfffe            ; [CPU_ALU] |6161| 
         000009b4 FFFE 
    4376 000009b5 F4A9          MOV       *(0:0x43c3),AL        ; [CPU_ALU] |6161| 
         000009b6 43C3 
    4377                      .dwpsn  file "C:/Users/ZXC/Documents/mcu project/ti-project/clllc_nonpowerSUITE_F28004x/device/driver
    4378 000009b7 F5A9          MOV       AL,*(0:0x43c3)        ; [CPU_ALU] |6221| 
         000009b8 43C3 
    4379 000009b9 5002          ORB       AL,#0x02              ; [CPU_ALU] |6221| 
    4380 000009ba F4A9          MOV       *(0:0x43c3),AL        ; [CPU_ALU] |6221| 
         000009bb 43C3 
    4381                      .dwpsn  file "C:/Users/ZXC/Documents/mcu project/ti-project/clllc_nonpowerSUITE_F28004x/device/driver
    4382 000009bc F5A9          MOV       AL,*(0:0x4080)        ; [CPU_ALU] |3899| 
         000009bd 4080 
    4383 000009be 1AA9          OR        AL,#0x4000            ; [CPU_ALU] |3899| 
         000009bf 4000 
    4384 000009c0 F4A9          MOV       *(0:0x4080),AL        ; [CPU_ALU] |3899| 
         000009c1 4080 
    4385 000009c2 F5A9          MOV       AL,*(0:0x4180)        ; [CPU_ALU] |3899| 
         000009c3 4180 
    4386 000009c4 1AA9          OR        AL,#0x4000            ; [CPU_ALU] |3899| 
         000009c5 4000 
    4387 000009c6 F4A9          MOV       *(0:0x4180),AL        ; [CPU_ALU] |3899| 
         000009c7 4180 
    4388 000009c8 F5A9          MOV       AL,*(0:0x4280)        ; [CPU_ALU] |3899| 
         000009c9 4280 
    4389 000009ca 1AA9          OR        AL,#0x4000            ; [CPU_ALU] |3899| 
         000009cb 4000 
    4390 000009cc F4A9          MOV       *(0:0x4280),AL        ; [CPU_ALU] |3899| 
         000009cd 4280 
    4391 000009ce F5A9          MOV       AL,*(0:0x4380)        ; [CPU_ALU] |3899| 
         000009cf 4380 
    4392 000009d0 1AA9          OR        AL,#0x4000            ; [CPU_ALU] |3899| 
         000009d1 4000 
    4393 000009d2 F4A9          MOV       *(0:0x4380),AL        ; [CPU_ALU] |3899| 
         000009d3 4380 
    4394 000009d4 F5A9          MOV       AL,*(0:0x4080)        ; [CPU_ALU] |3899| 
         000009d5 4080 
    4395 000009d6 5020          ORB       AL,#0x20              ; [CPU_ALU] |3899| 
    4396 000009d7 F4A9          MOV       *(0:0x4080),AL        ; [CPU_ALU] |3899| 
         000009d8 4080 
    4397 000009d9 F5A9          MOV       AL,*(0:0x4180)        ; [CPU_ALU] |3899| 
         000009da 4180 
    4398 000009db 5020          ORB       AL,#0x20              ; [CPU_ALU] |3899| 
    4399 000009dc F4A9          MOV       *(0:0x4180),AL        ; [CPU_ALU] |3899| 
         000009dd 4180 
    4400 000009de F5A9          MOV       AL,*(0:0x4280)        ; [CPU_ALU] |3899| 
         000009df 4280 
    4401 000009e0 5020          ORB       AL,#0x20              ; [CPU_ALU] |3899| 
    4402 000009e1 F4A9          MOV       *(0:0x4280),AL        ; [CPU_ALU] |3899| 
TMS320C2000 Assembler PC v22.6.0 Mon Sep  2 11:55:45 2024

Copyright (c) 1996-2018 Texas Instruments Incorporated
clllc_hal.asm                                                        PAGE   98

         000009e2 4280 
    4403 000009e3 F5A9          MOV       AL,*(0:0x4380)        ; [CPU_ALU] |3899| 
         000009e4 4380 
    4404 000009e5 5020          ORB       AL,#0x20              ; [CPU_ALU] |3899| 
    4405 000009e6 F4A9          MOV       *(0:0x4380),AL        ; [CPU_ALU] |3899| 
         000009e7 4380 
    4406                      .dwpsn  file "C:/Users/ZXC/Documents/mcu project/ti-project/clllc_nonpowerSUITE_F28004x/device/driver
    4407 000009e8 F5A9          MOV       AL,*(0:0x4084)        ; [CPU_ALU] |4105| 
         000009e9 4084 
    4408 000009ea CCA9          AND       AL,AL,#0xfffe         ; [CPU_ALU] |4105| 
         000009eb FFFE 
    4409 000009ec 5002          ORB       AL,#0x02              ; [CPU_ALU] |4105| 
    4410 000009ed F4A9          MOV       *(0:0x4084),AL        ; [CPU_ALU] |4105| 
         000009ee 4084 
    4411 000009ef F5A9          MOV       AL,*(0:0x4084)        ; [CPU_ALU] |4105| 
         000009f0 4084 
    4412 000009f1 CCA9          AND       AL,AL,#0xfffb         ; [CPU_ALU] |4105| 
         000009f2 FFFB 
    4413 000009f3 5008          ORB       AL,#0x08              ; [CPU_ALU] |4105| 
    4414 000009f4 F4A9          MOV       *(0:0x4084),AL        ; [CPU_ALU] |4105| 
         000009f5 4084 
    4415 000009f6 F5A9          MOV       AL,*(0:0x4184)        ; [CPU_ALU] |4105| 
         000009f7 4184 
    4416 000009f8 CCA9          AND       AL,AL,#0xfffe         ; [CPU_ALU] |4105| 
         000009f9 FFFE 
    4417 000009fa 5002          ORB       AL,#0x02              ; [CPU_ALU] |4105| 
    4418 000009fb F4A9          MOV       *(0:0x4184),AL        ; [CPU_ALU] |4105| 
         000009fc 4184 
    4419 000009fd F5A9          MOV       AL,*(0:0x4184)        ; [CPU_ALU] |4105| 
         000009fe 4184 
    4420 000009ff CCA9          AND       AL,AL,#0xfffb         ; [CPU_ALU] |4105| 
         00000a00 FFFB 
    4421 00000a01 5008          ORB       AL,#0x08              ; [CPU_ALU] |4105| 
    4422 00000a02 F4A9          MOV       *(0:0x4184),AL        ; [CPU_ALU] |4105| 
         00000a03 4184 
    4423 00000a04 F5A9          MOV       AL,*(0:0x4284)        ; [CPU_ALU] |4105| 
         00000a05 4284 
    4424 00000a06 CCA9          AND       AL,AL,#0xfffe         ; [CPU_ALU] |4105| 
         00000a07 FFFE 
    4425 00000a08 5002          ORB       AL,#0x02              ; [CPU_ALU] |4105| 
    4426 00000a09 F4A9          MOV       *(0:0x4284),AL        ; [CPU_ALU] |4105| 
         00000a0a 4284 
    4427 00000a0b F5A9          MOV       AL,*(0:0x4284)        ; [CPU_ALU] |4105| 
         00000a0c 4284 
    4428 00000a0d CCA9          AND       AL,AL,#0xfffb         ; [CPU_ALU] |4105| 
         00000a0e FFFB 
    4429 00000a0f 5008          ORB       AL,#0x08              ; [CPU_ALU] |4105| 
    4430 00000a10 F4A9          MOV       *(0:0x4284),AL        ; [CPU_ALU] |4105| 
         00000a11 4284 
    4431 00000a12 F5A9          MOV       AL,*(0:0x4384)        ; [CPU_ALU] |4105| 
         00000a13 4384 
    4432 00000a14 CCA9          AND       AL,AL,#0xfffe         ; [CPU_ALU] |4105| 
         00000a15 FFFE 
    4433 00000a16 5002          ORB       AL,#0x02              ; [CPU_ALU] |4105| 
    4434 00000a17 F4A9          MOV       *(0:0x4384),AL        ; [CPU_ALU] |4105| 
TMS320C2000 Assembler PC v22.6.0 Mon Sep  2 11:55:45 2024

Copyright (c) 1996-2018 Texas Instruments Incorporated
clllc_hal.asm                                                        PAGE   99

         00000a18 4384 
    4435 00000a19 F5A9          MOV       AL,*(0:0x4384)        ; [CPU_ALU] |4105| 
         00000a1a 4384 
    4436 00000a1b CCA9          AND       AL,AL,#0xfffb         ; [CPU_ALU] |4105| 
         00000a1c FFFB 
    4437 00000a1d 5008          ORB       AL,#0x08              ; [CPU_ALU] |4105| 
    4438 00000a1e F4A9          MOV       *(0:0x4384),AL        ; [CPU_ALU] |4105| 
         00000a1f 4384 
    4439                      .dwpsn  file "C:/Users/ZXC/Documents/mcu project/ti-project/clllc_nonpowerSUITE_F28004x/device/driver
    4440 00000a20 F5A9          MOV       AL,*(0:0x4097)        ; [CPU_ALU] |4541| 
         00000a21 4097 
    4441 00000a22 500C          ORB       AL,#0x0c              ; [CPU_ALU] |4541| 
    4442 00000a23 F4A9          MOV       *(0:0x4097),AL        ; [CPU_ALU] |4541| 
         00000a24 4097 
    4443 00000a25 F5A9          MOV       AL,*(0:0x4197)        ; [CPU_ALU] |4541| 
         00000a26 4197 
    4444 00000a27 500C          ORB       AL,#0x0c              ; [CPU_ALU] |4541| 
    4445 00000a28 F4A9          MOV       *(0:0x4197),AL        ; [CPU_ALU] |4541| 
         00000a29 4197 
    4446 00000a2a F5A9          MOV       AL,*(0:0x4297)        ; [CPU_ALU] |4541| 
         00000a2b 4297 
    4447 00000a2c 500C          ORB       AL,#0x0c              ; [CPU_ALU] |4541| 
    4448 00000a2d F4A9          MOV       *(0:0x4297),AL        ; [CPU_ALU] |4541| 
         00000a2e 4297 
    4449 00000a2f F5A9          MOV       AL,*(0:0x4397)        ; [CPU_ALU] |4541| 
         00000a30 4397 
    4450 00000a31 500C          ORB       AL,#0x0c              ; [CPU_ALU] |4541| 
    4451 00000a32 F4A9          MOV       *(0:0x4397),AL        ; [CPU_ALU] |4541| 
         00000a33 4397 
    4452                      .dwpsn  file "C:/Users/ZXC/Documents/mcu project/ti-project/clllc_nonpowerSUITE_F28004x/device/driver
    4453 00000a34 F5A9          MOV       AL,*(0:0x409b)        ; [CPU_ALU] |4655| 
         00000a35 409B 
    4454 00000a36 5004          ORB       AL,#0x04              ; [CPU_ALU] |4655| 
    4455 00000a37 F4A9          MOV       *(0:0x409b),AL        ; [CPU_ALU] |4655| 
         00000a38 409B 
    4456 00000a39 F5A9          MOV       AL,*(0:0x419b)        ; [CPU_ALU] |4655| 
         00000a3a 419B 
    4457 00000a3b 5004          ORB       AL,#0x04              ; [CPU_ALU] |4655| 
    4458 00000a3c F4A9          MOV       *(0:0x419b),AL        ; [CPU_ALU] |4655| 
         00000a3d 419B 
    4459 00000a3e F5A9          MOV       AL,*(0:0x429b)        ; [CPU_ALU] |4655| 
         00000a3f 429B 
    4460 00000a40 5004          ORB       AL,#0x04              ; [CPU_ALU] |4655| 
    4461 00000a41 F4A9          MOV       *(0:0x429b),AL        ; [CPU_ALU] |4655| 
         00000a42 429B 
    4462 00000a43 F5A9          MOV       AL,*(0:0x439b)        ; [CPU_ALU] |4655| 
         00000a44 439B 
    4463 00000a45 5004          ORB       AL,#0x04              ; [CPU_ALU] |4655| 
    4464 00000a46 F4A9          MOV       *(0:0x439b),AL        ; [CPU_ALU] |4655| 
         00000a47 439B 
    4465                      .dwpsn  file "C:/Users/ZXC/Documents/mcu project/ti-project/clllc_nonpowerSUITE_F28004x/device/driver
    4466 00000a48 761A          EDIS      ; [CPU_ALU] |4656| 
    4467 00000a49 FE82          SUBB      SP,#2                 ; [CPU_ARAU] 
    4468                      .dwcfi  cfa_offset, -2
    4469              $C$DW$259       .dwtag  DW_TAG_TI_branch
TMS320C2000 Assembler PC v22.6.0 Mon Sep  2 11:55:45 2024

Copyright (c) 1996-2018 Texas Instruments Incorporated
clllc_hal.asm                                                        PAGE  100

    4470                      .dwattr $C$DW$259, DW_AT_low_pc(0x00)
    4471                      .dwattr $C$DW$259, DW_AT_TI_return
    4472              
    4473 00000a4a 0006          LRETR     ; [CPU_ALU] 
    4474                      ; return occurs ; [] 
    4475                      .dwattr $C$DW$250, DW_AT_TI_end_file("../clllc_hal.c")
    4476                      .dwattr $C$DW$250, DW_AT_TI_end_line(0x2ab)
    4477                      .dwattr $C$DW$250, DW_AT_TI_end_column(0x01)
    4478                      .dwendentry
    4479                      .dwendtag $C$DW$250
    4480              
    4481 00000a4b               .sect   ".text"
    4482                      .clink
    4483                      .global ||CLLLC_HAL_setupADC||
    4484              
    4485              $C$DW$260       .dwtag  DW_TAG_subprogram
    4486                      .dwattr $C$DW$260, DW_AT_name("CLLLC_HAL_setupADC")
    4487                      .dwattr $C$DW$260, DW_AT_low_pc(||CLLLC_HAL_setupADC||)
    4488                      .dwattr $C$DW$260, DW_AT_high_pc(0x00)
    4489                      .dwattr $C$DW$260, DW_AT_linkage_name("CLLLC_HAL_setupADC")
    4490                      .dwattr $C$DW$260, DW_AT_external
    4491                      .dwattr $C$DW$260, DW_AT_decl_file("../clllc_hal.c")
    4492                      .dwattr $C$DW$260, DW_AT_decl_line(0x81)
    4493                      .dwattr $C$DW$260, DW_AT_decl_column(0x06)
    4494                      .dwattr $C$DW$260, DW_AT_TI_max_frame_size(-2)
    4495                      .dwpsn  file "../clllc_hal.c",line 130,column 1,is_stmt,address ||CLLLC_HAL_setupADC||,isa 0
    4496              
    4497                      .dwfde $C$DW$CIE, ||CLLLC_HAL_setupADC||
    4498              
    4499              ;***************************************************************
    4500              ;* FNAME: CLLLC_HAL_setupADC            FR SIZE:   0           *
    4501              ;*                                                             *
    4502              ;* FUNCTION ENVIRONMENT                                        *
    4503              ;*                                                             *
    4504              ;* FUNCTION PROPERTIES                                         *
    4505              ;*                            0 Parameter,  0 Auto,  0 SOE     *
    4506              ;***************************************************************
    4507              
    4508 00000a4b       ||CLLLC_HAL_setupADC||:
    4509                      .dwcfi  cfa_offset, -2
    4510                      .dwcfi  save_reg_to_mem, 26, 0
    4511                      .dwpsn  file "../clllc_hal.c",line 132,column 5,is_stmt,isa 0
    4512 00000a4b FF20          MOV       ACC,#29696            ; [CPU_ALU] |132| 
         00000a4c 7400 
    4513 00000a4d D400          MOVB      XAR4,#0               ; [CPU_ALU] |132| 
    4514 00000a4e D500          MOVB      XAR5,#0               ; [CPU_ALU] |132| 
    4515              $C$DW$261       .dwtag  DW_TAG_TI_branch
    4516                      .dwattr $C$DW$261, DW_AT_low_pc(0x00)
    4517                      .dwattr $C$DW$261, DW_AT_name("ADC_setVREF")
    4518                      .dwattr $C$DW$261, DW_AT_TI_call
    4519              
    4520 00000a4f 7640!         LCR       #||ADC_setVREF||      ; [CPU_ALU] |132| 
         00000a50 0000 
    4521                      ; call occurs [#||ADC_setVREF||] ; [] |132| 
    4522                      .dwpsn  file "../clllc_hal.c",line 133,column 5,is_stmt,isa 0
TMS320C2000 Assembler PC v22.6.0 Mon Sep  2 11:55:45 2024

Copyright (c) 1996-2018 Texas Instruments Incorporated
clllc_hal.asm                                                        PAGE  101

    4523 00000a51 D400          MOVB      XAR4,#0               ; [CPU_ALU] |133| 
    4524 00000a52 D500          MOVB      XAR5,#0               ; [CPU_ALU] |133| 
    4525 00000a53 FF20          MOV       ACC,#29824            ; [CPU_ALU] |133| 
         00000a54 7480 
    4526              $C$DW$262       .dwtag  DW_TAG_TI_branch
    4527                      .dwattr $C$DW$262, DW_AT_low_pc(0x00)
    4528                      .dwattr $C$DW$262, DW_AT_name("ADC_setVREF")
    4529                      .dwattr $C$DW$262, DW_AT_TI_call
    4530              
    4531 00000a55 7640!         LCR       #||ADC_setVREF||      ; [CPU_ALU] |133| 
         00000a56 0000 
    4532                      ; call occurs [#||ADC_setVREF||] ; [] |133| 
    4533                      .dwpsn  file "../clllc_hal.c",line 134,column 5,is_stmt,isa 0
    4534 00000a57 D400          MOVB      XAR4,#0               ; [CPU_ALU] |134| 
    4535 00000a58 D500          MOVB      XAR5,#0               ; [CPU_ALU] |134| 
    4536 00000a59 FF20          MOV       ACC,#29952            ; [CPU_ALU] |134| 
         00000a5a 7500 
    4537              $C$DW$263       .dwtag  DW_TAG_TI_branch
    4538                      .dwattr $C$DW$263, DW_AT_low_pc(0x00)
    4539                      .dwattr $C$DW$263, DW_AT_name("ADC_setVREF")
    4540                      .dwattr $C$DW$263, DW_AT_TI_call
    4541              
    4542 00000a5b 7640!         LCR       #||ADC_setVREF||      ; [CPU_ALU] |134| 
         00000a5c 0000 
    4543                      ; call occurs [#||ADC_setVREF||] ; [] |134| 
    4544                      .dwpsn  file "C:/Users/ZXC/Documents/mcu project/ti-project/clllc_nonpowerSUITE_F28004x/device/driver
    4545 00000a5d 7622          EALLOW    ; [CPU_ALU] |437| 
    4546                      .dwpsn  file "C:/Users/ZXC/Documents/mcu project/ti-project/clllc_nonpowerSUITE_F28004x/device/driver
    4547 00000a5e F5A9          MOV       AL,*(0:0x7401)        ; [CPU_ALU] |438| 
         00000a5f 7401 
    4548 00000a60 CCA9          AND       AL,AL,#0xfff0         ; [CPU_ALU] |438| 
         00000a61 FFF0 
    4549 00000a62 5002          ORB       AL,#0x02              ; [CPU_ALU] |438| 
    4550 00000a63 F4A9          MOV       *(0:0x7401),AL        ; [CPU_ALU] |438| 
         00000a64 7401 
    4551 00000a65 F5A9          MOV       AL,*(0:0x7481)        ; [CPU_ALU] |438| 
         00000a66 7481 
    4552 00000a67 CCA9          AND       AL,AL,#0xfff0         ; [CPU_ALU] |438| 
         00000a68 FFF0 
    4553 00000a69 5002          ORB       AL,#0x02              ; [CPU_ALU] |438| 
    4554 00000a6a F4A9          MOV       *(0:0x7481),AL        ; [CPU_ALU] |438| 
         00000a6b 7481 
    4555 00000a6c F5A9          MOV       AL,*(0:0x7501)        ; [CPU_ALU] |438| 
         00000a6d 7501 
    4556 00000a6e CCA9          AND       AL,AL,#0xfff0         ; [CPU_ALU] |438| 
         00000a6f FFF0 
    4557 00000a70 5002          ORB       AL,#0x02              ; [CPU_ALU] |438| 
    4558 00000a71 F4A9          MOV       *(0:0x7501),AL        ; [CPU_ALU] |438| 
         00000a72 7501 
    4559                      .dwpsn  file "C:/Users/ZXC/Documents/mcu project/ti-project/clllc_nonpowerSUITE_F28004x/device/driver
    4560 00000a73 F5A9          MOV       AL,*(0:0x7400)        ; [CPU_ALU] |659| 
         00000a74 7400 
    4561 00000a75 5080          ORB       AL,#0x80              ; [CPU_ALU] |659| 
    4562 00000a76 F4A9          MOV       *(0:0x7400),AL        ; [CPU_ALU] |659| 
         00000a77 7400 
TMS320C2000 Assembler PC v22.6.0 Mon Sep  2 11:55:45 2024

Copyright (c) 1996-2018 Texas Instruments Incorporated
clllc_hal.asm                                                        PAGE  102

    4563 00000a78 F5A9          MOV       AL,*(0:0x7480)        ; [CPU_ALU] |659| 
         00000a79 7480 
    4564 00000a7a 5080          ORB       AL,#0x80              ; [CPU_ALU] |659| 
    4565 00000a7b F4A9          MOV       *(0:0x7480),AL        ; [CPU_ALU] |659| 
         00000a7c 7480 
    4566 00000a7d F5A9          MOV       AL,*(0:0x7500)        ; [CPU_ALU] |659| 
         00000a7e 7500 
    4567 00000a7f 5080          ORB       AL,#0x80              ; [CPU_ALU] |659| 
    4568 00000a80 F4A9          MOV       *(0:0x7500),AL        ; [CPU_ALU] |659| 
         00000a81 7500 
    4569                      .dwpsn  file "C:/Users/ZXC/Documents/mcu project/ti-project/clllc_nonpowerSUITE_F28004x/device/driver
    4570 00000a82 761A          EDIS      ; [CPU_ALU] |660| 
    4571                      .dwpsn  file "../clllc_hal.c",line 144,column 5,is_stmt,isa 0
    4572 00000a83 FF20          MOV       ACC,#19998            ; [CPU_ALU] |144| 
         00000a84 4E1E 
    4573              $C$DW$264       .dwtag  DW_TAG_TI_branch
    4574                      .dwattr $C$DW$264, DW_AT_low_pc(0x00)
    4575                      .dwattr $C$DW$264, DW_AT_name("SysCtl_delay")
    4576                      .dwattr $C$DW$264, DW_AT_TI_call
    4577              
    4578 00000a85 7640!         LCR       #||SysCtl_delay||     ; [CPU_ALU] |144| 
         00000a86 0000 
    4579                      ; call occurs [#||SysCtl_delay||] ; [] |144| 
    4580                      .dwpsn  file "C:/Users/ZXC/Documents/mcu project/ti-project/clllc_nonpowerSUITE_F28004x/device/driver
    4581 00000a87 7622          EALLOW    ; [CPU_ALU] |498| 
    4582                      .dwpsn  file "C:/Users/ZXC/Documents/mcu project/ti-project/clllc_nonpowerSUITE_F28004x/device/driver
    4583 00000a88 28A9          MOV       AL,#32797             ; [CPU_ALU] |499| 
         00000a89 801D 
    4584 00000a8a 9BD5          MOV       AH,#213               ; [CPU_ALU] |499| 
    4585 00000a8b BDA9          MOV32     *(0:0x7410),ACC       ; [CPU_FPU] |499| 
         00000a8c 7410 
    4586 00000a8d 9BD4          MOV       AH,#212               ; [CPU_ALU] |499| 
    4587 00000a8e 8F34          MOVL      XAR4,#3440669         ; [CPU_ARAU] |499| 
         00000a8f 801D 
    4588 00000a90 BDA9          MOV32     *(0:0x7412),ACC       ; [CPU_FPU] |499| 
         00000a91 7412 
    4589 00000a92 BDA9          MOV32     *(0:0x7414),ACC       ; [CPU_FPU] |499| 
         00000a93 7414 
    4590 00000a94 BDA9          MOV32     *(0:0x7416),ACC       ; [CPU_FPU] |499| 
         00000a95 7416 
    4591 00000a96 BDA9          MOV32     *(0:0x7418),ACC       ; [CPU_FPU] |499| 
         00000a97 7418 
    4592 00000a98 BDA9          MOV32     *(0:0x741a),ACC       ; [CPU_FPU] |499| 
         00000a99 741A 
    4593 00000a9a BDA9          MOV32     *(0:0x741c),ACC       ; [CPU_FPU] |499| 
         00000a9b 741C 
    4594 00000a9c BDA9          MOV32     *(0:0x741e),ACC       ; [CPU_FPU] |499| 
         00000a9d 741E 
    4595 00000a9e BDA9          MOV32     *(0:0x7420),ACC       ; [CPU_FPU] |499| 
         00000a9f 7420 
    4596 00000aa0 BDA9          MOV32     *(0:0x7422),ACC       ; [CPU_FPU] |499| 
         00000aa1 7422 
    4597 00000aa2 BDA9          MOV32     *(0:0x7424),ACC       ; [CPU_FPU] |499| 
         00000aa3 7424 
    4598 00000aa4 BDA9          MOV32     *(0:0x7426),ACC       ; [CPU_FPU] |499| 
TMS320C2000 Assembler PC v22.6.0 Mon Sep  2 11:55:45 2024

Copyright (c) 1996-2018 Texas Instruments Incorporated
clllc_hal.asm                                                        PAGE  103

         00000aa5 7426 
    4599 00000aa6 BDA9          MOV32     *(0:0x7428),ACC       ; [CPU_FPU] |499| 
         00000aa7 7428 
    4600 00000aa8 BDA4          MOV32     *(0:0x742a),XAR4      ; [CPU_FPU] |499| 
         00000aa9 742A 
    4601 00000aaa 9BD1          MOV       AH,#209               ; [CPU_ALU] |499| 
    4602 00000aab 9A1D          MOV       AL,#29                ; [CPU_ALU] |499| 
    4603 00000aac 8F31          MOVL      XAR4,#3211293         ; [CPU_ARAU] |499| 
         00000aad 001D 
    4604 00000aae BDA9          MOV32     *(0:0x7490),ACC       ; [CPU_FPU] |499| 
         00000aaf 7490 
    4605 00000ab0 BDA9          MOV32     *(0:0x7492),ACC       ; [CPU_FPU] |499| 
         00000ab1 7492 
    4606 00000ab2 BDA9          MOV32     *(0:0x7494),ACC       ; [CPU_FPU] |499| 
         00000ab3 7494 
    4607 00000ab4 BDA9          MOV32     *(0:0x7496),ACC       ; [CPU_FPU] |499| 
         00000ab5 7496 
    4608 00000ab6 BDA9          MOV32     *(0:0x7498),ACC       ; [CPU_FPU] |499| 
         00000ab7 7498 
    4609 00000ab8 BDA9          MOV32     *(0:0x749a),ACC       ; [CPU_FPU] |499| 
         00000ab9 749A 
    4610 00000aba BDA9          MOV32     *(0:0x749c),ACC       ; [CPU_FPU] |499| 
         00000abb 749C 
    4611 00000abc BDA9          MOV32     *(0:0x749e),ACC       ; [CPU_FPU] |499| 
         00000abd 749E 
    4612 00000abe BDA9          MOV32     *(0:0x74a0),ACC       ; [CPU_FPU] |499| 
         00000abf 74A0 
    4613 00000ac0 BDA9          MOV32     *(0:0x74a2),ACC       ; [CPU_FPU] |499| 
         00000ac1 74A2 
    4614 00000ac2 BDA9          MOV32     *(0:0x74a4),ACC       ; [CPU_FPU] |499| 
         00000ac3 74A4 
    4615 00000ac4 BDA9          MOV32     *(0:0x74a6),ACC       ; [CPU_FPU] |499| 
         00000ac5 74A6 
    4616 00000ac6 BDA4          MOV32     *(0:0x74a8),XAR4      ; [CPU_FPU] |499| 
         00000ac7 74A8 
    4617 00000ac8 9BD5          MOV       AH,#213               ; [CPU_ALU] |499| 
    4618 00000ac9 8F35          MOVL      XAR4,#3473437         ; [CPU_ARAU] |499| 
         00000aca 001D 
    4619 00000acb BDA9          MOV32     *(0:0x7510),ACC       ; [CPU_FPU] |499| 
         00000acc 7510 
    4620 00000acd BDA9          MOV32     *(0:0x7512),ACC       ; [CPU_FPU] |499| 
         00000ace 7512 
    4621 00000acf BDA9          MOV32     *(0:0x7514),ACC       ; [CPU_FPU] |499| 
         00000ad0 7514 
    4622 00000ad1 BDA9          MOV32     *(0:0x7516),ACC       ; [CPU_FPU] |499| 
         00000ad2 7516 
    4623 00000ad3 BDA9          MOV32     *(0:0x7518),ACC       ; [CPU_FPU] |499| 
         00000ad4 7518 
    4624 00000ad5 BDA9          MOV32     *(0:0x751a),ACC       ; [CPU_FPU] |499| 
         00000ad6 751A 
    4625 00000ad7 BDA9          MOV32     *(0:0x751c),ACC       ; [CPU_FPU] |499| 
         00000ad8 751C 
    4626 00000ad9 BDA9          MOV32     *(0:0x751e),ACC       ; [CPU_FPU] |499| 
         00000ada 751E 
    4627 00000adb BDA9          MOV32     *(0:0x7520),ACC       ; [CPU_FPU] |499| 
TMS320C2000 Assembler PC v22.6.0 Mon Sep  2 11:55:45 2024

Copyright (c) 1996-2018 Texas Instruments Incorporated
clllc_hal.asm                                                        PAGE  104

         00000adc 7520 
    4628 00000add BDA9          MOV32     *(0:0x7522),ACC       ; [CPU_FPU] |499| 
         00000ade 7522 
    4629 00000adf BDA9          MOV32     *(0:0x7524),ACC       ; [CPU_FPU] |499| 
         00000ae0 7524 
    4630 00000ae1 BDA9          MOV32     *(0:0x7526),ACC       ; [CPU_FPU] |499| 
         00000ae2 7526 
    4631 00000ae3 BDA4          MOV32     *(0:0x7528),XAR4      ; [CPU_FPU] |499| 
         00000ae4 7528 
    4632                      .dwpsn  file "C:/Users/ZXC/Documents/mcu project/ti-project/clllc_nonpowerSUITE_F28004x/device/driver
    4633 00000ae5 761A          EDIS      ; [CPU_ALU] |502| 
    4634              $C$DW$265       .dwtag  DW_TAG_TI_branch
    4635                      .dwattr $C$DW$265, DW_AT_low_pc(0x00)
    4636                      .dwattr $C$DW$265, DW_AT_TI_return
    4637              
    4638 00000ae6 0006          LRETR     ; [CPU_ALU] 
    4639                      ; return occurs ; [] 
    4640                      .dwattr $C$DW$260, DW_AT_TI_end_file("../clllc_hal.c")
    4641                      .dwattr $C$DW$260, DW_AT_TI_end_line(0x1a7)
    4642                      .dwattr $C$DW$260, DW_AT_TI_end_column(0x01)
    4643                      .dwendentry
    4644                      .dwendtag $C$DW$260
    4645              
    4646 00000ae7               .sect   ".text"
    4647                      .clink
    4648                      .global ||CLLLC_HAL_sendCommandOverSCI||
    4649              
    4650              $C$DW$266       .dwtag  DW_TAG_subprogram
    4651                      .dwattr $C$DW$266, DW_AT_name("CLLLC_HAL_sendCommandOverSCI")
    4652                      .dwattr $C$DW$266, DW_AT_low_pc(||CLLLC_HAL_sendCommandOverSCI||)
    4653                      .dwattr $C$DW$266, DW_AT_high_pc(0x00)
    4654                      .dwattr $C$DW$266, DW_AT_linkage_name("CLLLC_HAL_sendCommandOverSCI")
    4655                      .dwattr $C$DW$266, DW_AT_external
    4656                      .dwattr $C$DW$266, DW_AT_decl_file("../clllc_hal.c")
    4657                      .dwattr $C$DW$266, DW_AT_decl_line(0x516)
    4658                      .dwattr $C$DW$266, DW_AT_decl_column(0x06)
    4659                      .dwattr $C$DW$266, DW_AT_TI_max_frame_size(-2)
    4660                      .dwpsn  file "../clllc_hal.c",line 1303,column 1,is_stmt,address ||CLLLC_HAL_sendCommandOverSCI||,isa
    4661              
    4662                      .dwfde $C$DW$CIE, ||CLLLC_HAL_sendCommandOverSCI||
    4663              $C$DW$267       .dwtag  DW_TAG_formal_parameter
    4664                      .dwattr $C$DW$267, DW_AT_name("mode")
    4665                      .dwattr $C$DW$267, DW_AT_type(*$C$DW$T$163)
    4666                      .dwattr $C$DW$267, DW_AT_location[DW_OP_reg0]
    4667              
    4668              $C$DW$268       .dwtag  DW_TAG_formal_parameter
    4669                      .dwattr $C$DW$268, DW_AT_name("voltage_ref")
    4670                      .dwattr $C$DW$268, DW_AT_type(*$C$DW$T$163)
    4671                      .dwattr $C$DW$268, DW_AT_location[DW_OP_reg1]
    4672              
    4673              
    4674              ;***************************************************************
    4675              ;* FNAME: CLLLC_HAL_sendCommandOverSCI  FR SIZE:   0           *
    4676              ;*                                                             *
    4677              ;* FUNCTION ENVIRONMENT                                        *
TMS320C2000 Assembler PC v22.6.0 Mon Sep  2 11:55:45 2024

Copyright (c) 1996-2018 Texas Instruments Incorporated
clllc_hal.asm                                                        PAGE  105

    4678              ;*                                                             *
    4679              ;* FUNCTION PROPERTIES                                         *
    4680              ;*                            0 Parameter,  0 Auto,  0 SOE     *
    4681              ;***************************************************************
    4682              
    4683              ||CLLLC_HAL_sendCommandOverSCI||:
    4684              ;* AL    assigned to mode
    4685              $C$DW$269       .dwtag  DW_TAG_variable
    4686                      .dwattr $C$DW$269, DW_AT_name("mode")
    4687                      .dwattr $C$DW$269, DW_AT_type(*$C$DW$T$237)
    4688                      .dwattr $C$DW$269, DW_AT_location[DW_OP_reg0]
    4689              
    4690              ;* AH    assigned to data
    4691              $C$DW$270       .dwtag  DW_TAG_variable
    4692                      .dwattr $C$DW$270, DW_AT_name("data")
    4693                      .dwattr $C$DW$270, DW_AT_type(*$C$DW$T$163)
    4694                      .dwattr $C$DW$270, DW_AT_location[DW_OP_reg1]
    4695              
    4696                      .dwcfi  cfa_offset, -2
    4697                      .dwcfi  save_reg_to_mem, 26, 0
    4698                      .dwpsn  file "../clllc_hal.c",line 1311,column 5,is_stmt,isa 0
    4699 00000ae7 5202          CMPB      AL,#2                 ; [CPU_ALU] |1311| 
    4700 00000ae8 6113          B         ||$C$L19||,EQ         ; [CPU_ALU] |1311| 
    4701                      ; branchcc occurs ; [] |1311| 
    4702                      .dwpsn  file "../clllc_hal.c",line 1318,column 10,is_stmt,isa 0
    4703 00000ae9 5201          CMPB      AL,#1                 ; [CPU_ALU] |1318| 
    4704 00000aea 6109          B         ||$C$L18||,EQ         ; [CPU_ALU] |1318| 
    4705                      ; branchcc occurs ; [] |1318| 
    4706 00000aeb       ||$C$L17||:    
    4707                      .dwpsn  file "C:/Users/ZXC/Documents/mcu project/ti-project/clllc_nonpowerSUITE_F28004x/device/driver
    4708 00000aeb F5A9          MOV       AL,*(0:0x720a)        ; [CPU_ALU] |953| 
         00000aec 720A 
    4709 00000aed FFC7          LSR       AL,8                  ; [CPU_ALU] |953| 
    4710 00000aee 901F          ANDB      AL,#0x1f              ; [CPU_ALU] |953| 
    4711 00000aef 5210          CMPB      AL,#16                ; [CPU_ALU] |953| 
    4712 00000af0 61FB          B         ||$C$L17||,EQ         ; [CPU_ALU] |953| 
    4713                      ; branchcc occurs ; [] |953| 
    4714                      .dwpsn  file "C:/Users/ZXC/Documents/mcu project/ti-project/clllc_nonpowerSUITE_F28004x/device/driver
    4715 00000af1 9A00          MOVB      AL,#0                 ; [CPU_ALU] |1073| 
    4716                      .dwpsn  file "../clllc_hal.c",line 1330,column 9,is_stmt,isa 0
    4717 00000af2 6F10          B         ||$C$L20||,UNC        ; [CPU_ALU] |1330| 
    4718                      ; branch occurs ; [] |1330| 
    4719 00000af3       ||$C$L18||:    
    4720                      .dwpsn  file "C:/Users/ZXC/Documents/mcu project/ti-project/clllc_nonpowerSUITE_F28004x/device/driver
    4721 00000af3 F5A9          MOV       AL,*(0:0x720a)        ; [CPU_ALU] |953| 
         00000af4 720A 
    4722 00000af5 FFC7          LSR       AL,8                  ; [CPU_ALU] |953| 
    4723 00000af6 901F          ANDB      AL,#0x1f              ; [CPU_ALU] |953| 
    4724 00000af7 5210          CMPB      AL,#16                ; [CPU_ALU] |953| 
    4725 00000af8 61FB          B         ||$C$L18||,EQ         ; [CPU_ALU] |953| 
    4726                      ; branchcc occurs ; [] |953| 
    4727                      .dwpsn  file "C:/Users/ZXC/Documents/mcu project/ti-project/clllc_nonpowerSUITE_F28004x/device/driver
    4728 00000af9 9A01          MOVB      AL,#1                 ; [CPU_ALU] |1073| 
    4729 00000afa 6F08          B         ||$C$L20||,UNC        ; [CPU_ALU] 
    4730                      ; branch occurs ; [] 
TMS320C2000 Assembler PC v22.6.0 Mon Sep  2 11:55:45 2024

Copyright (c) 1996-2018 Texas Instruments Incorporated
clllc_hal.asm                                                        PAGE  106

    4731 00000afb       ||$C$L19||:    
    4732                      .dwpsn  file "C:/Users/ZXC/Documents/mcu project/ti-project/clllc_nonpowerSUITE_F28004x/device/driver
    4733 00000afb F5A9          MOV       AL,*(0:0x720a)        ; [CPU_ALU] |953| 
         00000afc 720A 
    4734 00000afd FFC7          LSR       AL,8                  ; [CPU_ALU] |953| 
    4735 00000afe 901F          ANDB      AL,#0x1f              ; [CPU_ALU] |953| 
    4736 00000aff 5210          CMPB      AL,#16                ; [CPU_ALU] |953| 
    4737 00000b00 61FB          B         ||$C$L19||,EQ         ; [CPU_ALU] |953| 
    4738                      ; branchcc occurs ; [] |953| 
    4739                      .dwpsn  file "C:/Users/ZXC/Documents/mcu project/ti-project/clllc_nonpowerSUITE_F28004x/device/driver
    4740 00000b01 9A02          MOVB      AL,#2                 ; [CPU_ALU] |1073| 
    4741 00000b02       ||$C$L20||:    
    4742 00000b02 F4A9          MOV       *(0:0x7209),AL        ; [CPU_ALU] |1073| 
         00000b03 7209 
    4743                      .dwpsn  file "C:/Users/ZXC/Documents/mcu project/ti-project/clllc_nonpowerSUITE_F28004x/device/driver
    4744 00000b04 08A8          SUB       AH,#368               ; [CPU_ALU] |1057| 
         00000b05 FE90 
    4745 00000b06       ||$C$L21||:    
    4746                      .dwpsn  file "C:/Users/ZXC/Documents/mcu project/ti-project/clllc_nonpowerSUITE_F28004x/device/driver
    4747 00000b06 F5A9          MOV       AL,*(0:0x720a)        ; [CPU_ALU] |953| 
         00000b07 720A 
    4748 00000b08 FFC7          LSR       AL,8                  ; [CPU_ALU] |953| 
    4749 00000b09 901F          ANDB      AL,#0x1f              ; [CPU_ALU] |953| 
    4750 00000b0a 5210          CMPB      AL,#16                ; [CPU_ALU] |953| 
    4751 00000b0b 61FB          B         ||$C$L21||,EQ         ; [CPU_ALU] |953| 
    4752                      ; branchcc occurs ; [] |953| 
    4753                      .dwpsn  file "C:/Users/ZXC/Documents/mcu project/ti-project/clllc_nonpowerSUITE_F28004x/device/driver
    4754 00000b0c F4A8          MOV       *(0:0x7209),AH        ; [CPU_ALU] |1073| 
         00000b0d 7209 
    4755              $C$DW$271       .dwtag  DW_TAG_TI_branch
    4756                      .dwattr $C$DW$271, DW_AT_low_pc(0x00)
    4757                      .dwattr $C$DW$271, DW_AT_TI_return
    4758              
    4759 00000b0e 0006          LRETR     ; [CPU_ALU] 
    4760                      ; return occurs ; [] 
    4761                      .dwattr $C$DW$266, DW_AT_TI_end_file("../clllc_hal.c")
    4762                      .dwattr $C$DW$266, DW_AT_TI_end_line(0x536)
    4763                      .dwattr $C$DW$266, DW_AT_TI_end_column(0x01)
    4764                      .dwendentry
    4765                      .dwendtag $C$DW$266
    4766              
    4767 00000b0f               .sect   ".text"
    4768                      .clink
    4769                      .global ||CLLLC_HAL_enablePWMClkCounting||
    4770              
    4771              $C$DW$272       .dwtag  DW_TAG_subprogram
    4772                      .dwattr $C$DW$272, DW_AT_name("CLLLC_HAL_enablePWMClkCounting")
    4773                      .dwattr $C$DW$272, DW_AT_low_pc(||CLLLC_HAL_enablePWMClkCounting||)
    4774                      .dwattr $C$DW$272, DW_AT_high_pc(0x00)
    4775                      .dwattr $C$DW$272, DW_AT_linkage_name("CLLLC_HAL_enablePWMClkCounting")
    4776                      .dwattr $C$DW$272, DW_AT_external
    4777                      .dwattr $C$DW$272, DW_AT_decl_file("../clllc_hal.c")
    4778                      .dwattr $C$DW$272, DW_AT_decl_line(0x715)
    4779                      .dwattr $C$DW$272, DW_AT_decl_column(0x06)
    4780                      .dwattr $C$DW$272, DW_AT_TI_max_frame_size(-2)
TMS320C2000 Assembler PC v22.6.0 Mon Sep  2 11:55:45 2024

Copyright (c) 1996-2018 Texas Instruments Incorporated
clllc_hal.asm                                                        PAGE  107

    4781                      .dwpsn  file "../clllc_hal.c",line 1814,column 1,is_stmt,address ||CLLLC_HAL_enablePWMClkCounting||,i
    4782              
    4783                      .dwfde $C$DW$CIE, ||CLLLC_HAL_enablePWMClkCounting||
    4784              
    4785              ;***************************************************************
    4786              ;* FNAME: CLLLC_HAL_enablePWMClkCounting FR SIZE:   0           *
    4787              ;*                                                             *
    4788              ;* FUNCTION ENVIRONMENT                                        *
    4789              ;*                                                             *
    4790              ;* FUNCTION PROPERTIES                                         *
    4791              ;*                            0 Parameter,  0 Auto,  0 SOE     *
    4792              ;***************************************************************
    4793              
    4794 00000b0f       ||CLLLC_HAL_enablePWMClkCounting||:
    4795                      .dwcfi  cfa_offset, -2
    4796                      .dwcfi  save_reg_to_mem, 26, 0
    4797                      .dwpsn  file "C:\Users\ZXC\Documents\mcu project\ti-project\clllc_nonpowerSUITE_F28004x\device\driver
    4798 00000b0f 7622          EALLOW    ; [CPU_ALU] |855| 
    4799                      .dwpsn  file "C:\Users\ZXC\Documents\mcu project\ti-project\clllc_nonpowerSUITE_F28004x\device\driver
    4800 00000b10 8F05          MOVL      XAR4,#381730          ; [CPU_ARAU] |860| 
         00000b11 D322 
    4801 00000b12 06C4          MOVL      ACC,*+XAR4[0]         ; [CPU_ALU] |860| 
    4802 00000b13 5104          OR        AH,#4                 ; [CPU_ALU] |860| 
    4803 00000b14 1EC4          MOVL      *+XAR4[0],ACC         ; [CPU_ALU] |860| 
    4804                      .dwpsn  file "C:\Users\ZXC\Documents\mcu project\ti-project\clllc_nonpowerSUITE_F28004x\device\driver
    4805 00000b15 761A          EDIS      ; [CPU_ALU] |861| 
    4806              $C$DW$273       .dwtag  DW_TAG_TI_branch
    4807                      .dwattr $C$DW$273, DW_AT_low_pc(0x00)
    4808                      .dwattr $C$DW$273, DW_AT_TI_return
    4809              
    4810 00000b16 0006          LRETR     ; [CPU_ALU] 
    4811                      ; return occurs ; [] 
    4812                      .dwattr $C$DW$272, DW_AT_TI_end_file("../clllc_hal.c")
    4813                      .dwattr $C$DW$272, DW_AT_TI_end_line(0x718)
    4814                      .dwattr $C$DW$272, DW_AT_TI_end_column(0x01)
    4815                      .dwendentry
    4816                      .dwendtag $C$DW$272
    4817              
    4818 00000b17               .sect   ".text"
    4819                      .clink
    4820                      .global ||CLLLC_HAL_disablePWMClkCounting||
    4821              
    4822              $C$DW$274       .dwtag  DW_TAG_subprogram
    4823                      .dwattr $C$DW$274, DW_AT_name("CLLLC_HAL_disablePWMClkCounting")
    4824                      .dwattr $C$DW$274, DW_AT_low_pc(||CLLLC_HAL_disablePWMClkCounting||)
    4825                      .dwattr $C$DW$274, DW_AT_high_pc(0x00)
    4826                      .dwattr $C$DW$274, DW_AT_linkage_name("CLLLC_HAL_disablePWMClkCounting")
    4827                      .dwattr $C$DW$274, DW_AT_external
    4828                      .dwattr $C$DW$274, DW_AT_decl_file("../clllc_hal.c")
    4829                      .dwattr $C$DW$274, DW_AT_decl_line(0x710)
    4830                      .dwattr $C$DW$274, DW_AT_decl_column(0x06)
    4831                      .dwattr $C$DW$274, DW_AT_TI_max_frame_size(-2)
    4832                      .dwpsn  file "../clllc_hal.c",line 1809,column 1,is_stmt,address ||CLLLC_HAL_disablePWMClkCounting||,
    4833              
    4834                      .dwfde $C$DW$CIE, ||CLLLC_HAL_disablePWMClkCounting||
TMS320C2000 Assembler PC v22.6.0 Mon Sep  2 11:55:45 2024

Copyright (c) 1996-2018 Texas Instruments Incorporated
clllc_hal.asm                                                        PAGE  108

    4835              
    4836              ;***************************************************************
    4837              ;* FNAME: CLLLC_HAL_disablePWMClkCounting FR SIZE:   0           *
    4838              ;*                                                             *
    4839              ;* FUNCTION ENVIRONMENT                                        *
    4840              ;*                                                             *
    4841              ;* FUNCTION PROPERTIES                                         *
    4842              ;*                            0 Parameter,  0 Auto,  0 SOE     *
    4843              ;***************************************************************
    4844              
    4845 00000b17       ||CLLLC_HAL_disablePWMClkCounting||:
    4846                      .dwcfi  cfa_offset, -2
    4847                      .dwcfi  save_reg_to_mem, 26, 0
    4848                      .dwpsn  file "C:\Users\ZXC\Documents\mcu project\ti-project\clllc_nonpowerSUITE_F28004x\device\driver
    4849 00000b17 7622          EALLOW    ; [CPU_ALU] |890| 
    4850                      .dwpsn  file "C:\Users\ZXC\Documents\mcu project\ti-project\clllc_nonpowerSUITE_F28004x\device\driver
    4851 00000b18 8F05          MOVL      XAR4,#381730          ; [CPU_ARAU] |895| 
         00000b19 D322 
    4852 00000b1a 06C4          MOVL      ACC,*+XAR4[0]         ; [CPU_ALU] |895| 
    4853 00000b1b 18A8          AND       AH,#65531             ; [CPU_ALU] |895| 
         00000b1c FFFB 
    4854 00000b1d 1EC4          MOVL      *+XAR4[0],ACC         ; [CPU_ALU] |895| 
    4855                      .dwpsn  file "C:\Users\ZXC\Documents\mcu project\ti-project\clllc_nonpowerSUITE_F28004x\device\driver
    4856 00000b1e 761A          EDIS      ; [CPU_ALU] |896| 
    4857              $C$DW$275       .dwtag  DW_TAG_TI_branch
    4858                      .dwattr $C$DW$275, DW_AT_low_pc(0x00)
    4859                      .dwattr $C$DW$275, DW_AT_TI_return
    4860              
    4861 00000b1f 0006          LRETR     ; [CPU_ALU] 
    4862                      ; return occurs ; [] 
    4863                      .dwattr $C$DW$274, DW_AT_TI_end_file("../clllc_hal.c")
    4864                      .dwattr $C$DW$274, DW_AT_TI_end_line(0x713)
    4865                      .dwattr $C$DW$274, DW_AT_TI_end_column(0x01)
    4866                      .dwendentry
    4867                      .dwendtag $C$DW$274
    4868              
    4869              ;**************************************************************
    4870              ;* UNDEFINED EXTERNAL REFERENCES                              *
    4871              ;**************************************************************
    4872                      .global ||Device_init||
    4873                      .global ||Device_initGPIO||
    4874                      .global ||Interrupt_initModule||
    4875                      .global ||Interrupt_initVectorTable||
    4876                      .global ||CPUTimer_setEmulationMode||
    4877                      .global ||ADC_setVREF||
    4878                      .global ||SysCtl_delay||
    4879                      .global ||XBAR_setEPWMMuxConfig||
    4880                      .global ||XBAR_clearInputFlag||
    4881                      .global ||CMPSS_configLatchOnPWMSYNC||
    4882                      .global ||CMPSS_configFilterHigh||
    4883                      .global ||CMPSS_configFilterLow||
    4884                      .global ||XBAR_setOutputMuxConfig||
    4885                      .global ||GPIO_setDirectionMode||
    4886                      .global ||GPIO_setQualificationMode||
    4887                      .global ||GPIO_setPinConfig||
TMS320C2000 Assembler PC v22.6.0 Mon Sep  2 11:55:45 2024

Copyright (c) 1996-2018 Texas Instruments Incorporated
clllc_hal.asm                                                        PAGE  109

    4888                      .global ||SCI_setConfig||
    4889                      .global ||SCI_clearInterruptStatus||
    4890                      .global ||SCI_enableInterrupt||
    4891                      .global ||GPIO_setPadConfig||
    4892                      .global ||SFO||
    4893              
    4894              ;***************************************************************
    4895              ;* BUILD ATTRIBUTES                                            *
    4896              ;***************************************************************
    4897                      .battr "c28xabi", Tag_File, 1, Tag_float_args(1)
    4898                      .battr "c28xabi", Tag_File, 1, Tag_double_args(0)
    4899                      .dwattr $C$DW$CU, DW_AT_language(DW_LANG_C)
    4900              
    4901              ;***************************************************************
    4902              ;* DWARF CIE ENTRIES                                           *
    4903              ;***************************************************************
    4904              
    4905              $C$DW$CIE       .dwcie 26
    4906                      .dwcfi  cfa_register, 20
    4907                      .dwcfi  cfa_offset, 0
    4908                      .dwcfi  same_value, 28
    4909                      .dwcfi  same_value, 6
    4910                      .dwcfi  same_value, 7
    4911                      .dwcfi  same_value, 8
    4912                      .dwcfi  same_value, 9
    4913                      .dwcfi  same_value, 10
    4914                      .dwcfi  same_value, 11
    4915                      .dwcfi  same_value, 59
    4916                      .dwcfi  same_value, 63
    4917                      .dwcfi  same_value, 67
    4918                      .dwcfi  same_value, 71
    4919                      .dwendentry
    4920                      .dwendtag $C$DW$CU
    4921              
    4922              
    4923              ;***************************************************************
    4924              ;* TYPE INFORMATION                                            *
    4925              ;***************************************************************
    4926              
    4927              $C$DW$TU$19     .dwtag  DW_TAG_type_unit
    4928                      .dwmtype  $C$DW$T$19
    4929              
    4930              $C$DW$T$19      .dwtag  DW_TAG_enumeration_type
    4931                      .dwattr $C$DW$T$19, DW_AT_byte_size(0x01)
    4932              $C$DW$276       .dwtag  DW_TAG_enumerator
    4933                      .dwattr $C$DW$276, DW_AT_name("ADC_CLK_DIV_1_0")
    4934                      .dwattr $C$DW$276, DW_AT_const_value(0x00)
    4935                      .dwattr $C$DW$276, DW_AT_decl_file("C:/Users/ZXC/Documents/mcu project/ti-project/clllc_nonpowerSUITE
    4936                      .dwattr $C$DW$276, DW_AT_decl_line(0x91)
    4937                      .dwattr $C$DW$276, DW_AT_decl_column(0x05)
    4938              
    4939              $C$DW$277       .dwtag  DW_TAG_enumerator
    4940                      .dwattr $C$DW$277, DW_AT_name("ADC_CLK_DIV_2_0")
    4941                      .dwattr $C$DW$277, DW_AT_const_value(0x02)
    4942                      .dwattr $C$DW$277, DW_AT_decl_file("C:/Users/ZXC/Documents/mcu project/ti-project/clllc_nonpowerSUITE
TMS320C2000 Assembler PC v22.6.0 Mon Sep  2 11:55:45 2024

Copyright (c) 1996-2018 Texas Instruments Incorporated
clllc_hal.asm                                                        PAGE  110

    4943                      .dwattr $C$DW$277, DW_AT_decl_line(0x92)
    4944                      .dwattr $C$DW$277, DW_AT_decl_column(0x05)
    4945              
    4946              $C$DW$278       .dwtag  DW_TAG_enumerator
    4947                      .dwattr $C$DW$278, DW_AT_name("ADC_CLK_DIV_3_0")
    4948                      .dwattr $C$DW$278, DW_AT_const_value(0x04)
    4949                      .dwattr $C$DW$278, DW_AT_decl_file("C:/Users/ZXC/Documents/mcu project/ti-project/clllc_nonpowerSUITE
    4950                      .dwattr $C$DW$278, DW_AT_decl_line(0x93)
    4951                      .dwattr $C$DW$278, DW_AT_decl_column(0x05)
    4952              
    4953              $C$DW$279       .dwtag  DW_TAG_enumerator
    4954                      .dwattr $C$DW$279, DW_AT_name("ADC_CLK_DIV_4_0")
    4955                      .dwattr $C$DW$279, DW_AT_const_value(0x06)
    4956                      .dwattr $C$DW$279, DW_AT_decl_file("C:/Users/ZXC/Documents/mcu project/ti-project/clllc_nonpowerSUITE
    4957                      .dwattr $C$DW$279, DW_AT_decl_line(0x94)
    4958                      .dwattr $C$DW$279, DW_AT_decl_column(0x05)
    4959              
    4960              $C$DW$280       .dwtag  DW_TAG_enumerator
    4961                      .dwattr $C$DW$280, DW_AT_name("ADC_CLK_DIV_5_0")
    4962                      .dwattr $C$DW$280, DW_AT_const_value(0x08)
    4963                      .dwattr $C$DW$280, DW_AT_decl_file("C:/Users/ZXC/Documents/mcu project/ti-project/clllc_nonpowerSUITE
    4964                      .dwattr $C$DW$280, DW_AT_decl_line(0x95)
    4965                      .dwattr $C$DW$280, DW_AT_decl_column(0x05)
    4966              
    4967              $C$DW$281       .dwtag  DW_TAG_enumerator
    4968                      .dwattr $C$DW$281, DW_AT_name("ADC_CLK_DIV_6_0")
    4969                      .dwattr $C$DW$281, DW_AT_const_value(0x0a)
    4970                      .dwattr $C$DW$281, DW_AT_decl_file("C:/Users/ZXC/Documents/mcu project/ti-project/clllc_nonpowerSUITE
    4971                      .dwattr $C$DW$281, DW_AT_decl_line(0x96)
    4972                      .dwattr $C$DW$281, DW_AT_decl_column(0x05)
    4973              
    4974              $C$DW$282       .dwtag  DW_TAG_enumerator
    4975                      .dwattr $C$DW$282, DW_AT_name("ADC_CLK_DIV_7_0")
    4976                      .dwattr $C$DW$282, DW_AT_const_value(0x0c)
    4977                      .dwattr $C$DW$282, DW_AT_decl_file("C:/Users/ZXC/Documents/mcu project/ti-project/clllc_nonpowerSUITE
    4978                      .dwattr $C$DW$282, DW_AT_decl_line(0x97)
    4979                      .dwattr $C$DW$282, DW_AT_decl_column(0x05)
    4980              
    4981              $C$DW$283       .dwtag  DW_TAG_enumerator
    4982                      .dwattr $C$DW$283, DW_AT_name("ADC_CLK_DIV_8_0")
    4983                      .dwattr $C$DW$283, DW_AT_const_value(0x0e)
    4984                      .dwattr $C$DW$283, DW_AT_decl_file("C:/Users/ZXC/Documents/mcu project/ti-project/clllc_nonpowerSUITE
    4985                      .dwattr $C$DW$283, DW_AT_decl_line(0x98)
    4986                      .dwattr $C$DW$283, DW_AT_decl_column(0x05)
    4987              
    4988                      .dwattr $C$DW$T$19, DW_AT_decl_file("C:/Users/ZXC/Documents/mcu project/ti-project/clllc_nonpowerSUIT
    4989                      .dwattr $C$DW$T$19, DW_AT_decl_line(0x90)
    4990                      .dwattr $C$DW$T$19, DW_AT_decl_column(0x01)
    4991                      .dwendtag $C$DW$T$19
    4992              
    4993                      .dwendtag $C$DW$TU$19
    4994              
    4995              
    4996              $C$DW$TU$20     .dwtag  DW_TAG_type_unit
    4997                      .dwmtype  $C$DW$T$20
TMS320C2000 Assembler PC v22.6.0 Mon Sep  2 11:55:45 2024

Copyright (c) 1996-2018 Texas Instruments Incorporated
clllc_hal.asm                                                        PAGE  111

    4998              $C$DW$T$20      .dwtag  DW_TAG_typedef
    4999                      .dwattr $C$DW$T$20, DW_AT_name("ADC_ClkPrescale")
    5000                      .dwattr $C$DW$T$20, DW_AT_type(*$C$DW$T$19)
    5001                      .dwattr $C$DW$T$20, DW_AT_decl_file("C:/Users/ZXC/Documents/mcu project/ti-project/clllc_nonpowerSUIT
    5002                      .dwattr $C$DW$T$20, DW_AT_decl_line(0x99)
    5003                      .dwattr $C$DW$T$20, DW_AT_decl_column(0x03)
    5004              
    5005                      .dwendtag $C$DW$TU$20
    5006              
    5007              
    5008              $C$DW$TU$21     .dwtag  DW_TAG_type_unit
    5009                      .dwmtype  $C$DW$T$21
    5010              
    5011              $C$DW$T$21      .dwtag  DW_TAG_enumeration_type
    5012                      .dwattr $C$DW$T$21, DW_AT_byte_size(0x01)
    5013              $C$DW$284       .dwtag  DW_TAG_enumerator
    5014                      .dwattr $C$DW$284, DW_AT_name("ADC_SOC_NUMBER0")
    5015                      .dwattr $C$DW$284, DW_AT_const_value(0x00)
    5016                      .dwattr $C$DW$284, DW_AT_decl_file("C:/Users/ZXC/Documents/mcu project/ti-project/clllc_nonpowerSUITE
    5017                      .dwattr $C$DW$284, DW_AT_decl_line(0x10c)
    5018                      .dwattr $C$DW$284, DW_AT_decl_column(0x05)
    5019              
    5020              $C$DW$285       .dwtag  DW_TAG_enumerator
    5021                      .dwattr $C$DW$285, DW_AT_name("ADC_SOC_NUMBER1")
    5022                      .dwattr $C$DW$285, DW_AT_const_value(0x01)
    5023                      .dwattr $C$DW$285, DW_AT_decl_file("C:/Users/ZXC/Documents/mcu project/ti-project/clllc_nonpowerSUITE
    5024                      .dwattr $C$DW$285, DW_AT_decl_line(0x10d)
    5025                      .dwattr $C$DW$285, DW_AT_decl_column(0x05)
    5026              
    5027              $C$DW$286       .dwtag  DW_TAG_enumerator
    5028                      .dwattr $C$DW$286, DW_AT_name("ADC_SOC_NUMBER2")
    5029                      .dwattr $C$DW$286, DW_AT_const_value(0x02)
    5030                      .dwattr $C$DW$286, DW_AT_decl_file("C:/Users/ZXC/Documents/mcu project/ti-project/clllc_nonpowerSUITE
    5031                      .dwattr $C$DW$286, DW_AT_decl_line(0x10e)
    5032                      .dwattr $C$DW$286, DW_AT_decl_column(0x05)
    5033              
    5034              $C$DW$287       .dwtag  DW_TAG_enumerator
    5035                      .dwattr $C$DW$287, DW_AT_name("ADC_SOC_NUMBER3")
    5036                      .dwattr $C$DW$287, DW_AT_const_value(0x03)
    5037                      .dwattr $C$DW$287, DW_AT_decl_file("C:/Users/ZXC/Documents/mcu project/ti-project/clllc_nonpowerSUITE
    5038                      .dwattr $C$DW$287, DW_AT_decl_line(0x10f)
    5039                      .dwattr $C$DW$287, DW_AT_decl_column(0x05)
    5040              
    5041              $C$DW$288       .dwtag  DW_TAG_enumerator
    5042                      .dwattr $C$DW$288, DW_AT_name("ADC_SOC_NUMBER4")
    5043                      .dwattr $C$DW$288, DW_AT_const_value(0x04)
    5044                      .dwattr $C$DW$288, DW_AT_decl_file("C:/Users/ZXC/Documents/mcu project/ti-project/clllc_nonpowerSUITE
    5045                      .dwattr $C$DW$288, DW_AT_decl_line(0x110)
    5046                      .dwattr $C$DW$288, DW_AT_decl_column(0x05)
    5047              
    5048              $C$DW$289       .dwtag  DW_TAG_enumerator
    5049                      .dwattr $C$DW$289, DW_AT_name("ADC_SOC_NUMBER5")
    5050                      .dwattr $C$DW$289, DW_AT_const_value(0x05)
    5051                      .dwattr $C$DW$289, DW_AT_decl_file("C:/Users/ZXC/Documents/mcu project/ti-project/clllc_nonpowerSUITE
    5052                      .dwattr $C$DW$289, DW_AT_decl_line(0x111)
TMS320C2000 Assembler PC v22.6.0 Mon Sep  2 11:55:45 2024

Copyright (c) 1996-2018 Texas Instruments Incorporated
clllc_hal.asm                                                        PAGE  112

    5053                      .dwattr $C$DW$289, DW_AT_decl_column(0x05)
    5054              
    5055              $C$DW$290       .dwtag  DW_TAG_enumerator
    5056                      .dwattr $C$DW$290, DW_AT_name("ADC_SOC_NUMBER6")
    5057                      .dwattr $C$DW$290, DW_AT_const_value(0x06)
    5058                      .dwattr $C$DW$290, DW_AT_decl_file("C:/Users/ZXC/Documents/mcu project/ti-project/clllc_nonpowerSUITE
    5059                      .dwattr $C$DW$290, DW_AT_decl_line(0x112)
    5060                      .dwattr $C$DW$290, DW_AT_decl_column(0x05)
    5061              
    5062              $C$DW$291       .dwtag  DW_TAG_enumerator
    5063                      .dwattr $C$DW$291, DW_AT_name("ADC_SOC_NUMBER7")
    5064                      .dwattr $C$DW$291, DW_AT_const_value(0x07)
    5065                      .dwattr $C$DW$291, DW_AT_decl_file("C:/Users/ZXC/Documents/mcu project/ti-project/clllc_nonpowerSUITE
    5066                      .dwattr $C$DW$291, DW_AT_decl_line(0x113)
    5067                      .dwattr $C$DW$291, DW_AT_decl_column(0x05)
    5068              
    5069              $C$DW$292       .dwtag  DW_TAG_enumerator
    5070                      .dwattr $C$DW$292, DW_AT_name("ADC_SOC_NUMBER8")
    5071                      .dwattr $C$DW$292, DW_AT_const_value(0x08)
    5072                      .dwattr $C$DW$292, DW_AT_decl_file("C:/Users/ZXC/Documents/mcu project/ti-project/clllc_nonpowerSUITE
    5073                      .dwattr $C$DW$292, DW_AT_decl_line(0x114)
    5074                      .dwattr $C$DW$292, DW_AT_decl_column(0x05)
    5075              
    5076              $C$DW$293       .dwtag  DW_TAG_enumerator
    5077                      .dwattr $C$DW$293, DW_AT_name("ADC_SOC_NUMBER9")
    5078                      .dwattr $C$DW$293, DW_AT_const_value(0x09)
    5079                      .dwattr $C$DW$293, DW_AT_decl_file("C:/Users/ZXC/Documents/mcu project/ti-project/clllc_nonpowerSUITE
    5080                      .dwattr $C$DW$293, DW_AT_decl_line(0x115)
    5081                      .dwattr $C$DW$293, DW_AT_decl_column(0x05)
    5082              
    5083              $C$DW$294       .dwtag  DW_TAG_enumerator
    5084                      .dwattr $C$DW$294, DW_AT_name("ADC_SOC_NUMBER10")
    5085                      .dwattr $C$DW$294, DW_AT_const_value(0x0a)
    5086                      .dwattr $C$DW$294, DW_AT_decl_file("C:/Users/ZXC/Documents/mcu project/ti-project/clllc_nonpowerSUITE
    5087                      .dwattr $C$DW$294, DW_AT_decl_line(0x116)
    5088                      .dwattr $C$DW$294, DW_AT_decl_column(0x05)
    5089              
    5090              $C$DW$295       .dwtag  DW_TAG_enumerator
    5091                      .dwattr $C$DW$295, DW_AT_name("ADC_SOC_NUMBER11")
    5092                      .dwattr $C$DW$295, DW_AT_const_value(0x0b)
    5093                      .dwattr $C$DW$295, DW_AT_decl_file("C:/Users/ZXC/Documents/mcu project/ti-project/clllc_nonpowerSUITE
    5094                      .dwattr $C$DW$295, DW_AT_decl_line(0x117)
    5095                      .dwattr $C$DW$295, DW_AT_decl_column(0x05)
    5096              
    5097              $C$DW$296       .dwtag  DW_TAG_enumerator
    5098                      .dwattr $C$DW$296, DW_AT_name("ADC_SOC_NUMBER12")
    5099                      .dwattr $C$DW$296, DW_AT_const_value(0x0c)
    5100                      .dwattr $C$DW$296, DW_AT_decl_file("C:/Users/ZXC/Documents/mcu project/ti-project/clllc_nonpowerSUITE
    5101                      .dwattr $C$DW$296, DW_AT_decl_line(0x118)
    5102                      .dwattr $C$DW$296, DW_AT_decl_column(0x05)
    5103              
    5104              $C$DW$297       .dwtag  DW_TAG_enumerator
    5105                      .dwattr $C$DW$297, DW_AT_name("ADC_SOC_NUMBER13")
    5106                      .dwattr $C$DW$297, DW_AT_const_value(0x0d)
    5107                      .dwattr $C$DW$297, DW_AT_decl_file("C:/Users/ZXC/Documents/mcu project/ti-project/clllc_nonpowerSUITE
TMS320C2000 Assembler PC v22.6.0 Mon Sep  2 11:55:45 2024

Copyright (c) 1996-2018 Texas Instruments Incorporated
clllc_hal.asm                                                        PAGE  113

    5108                      .dwattr $C$DW$297, DW_AT_decl_line(0x119)
    5109                      .dwattr $C$DW$297, DW_AT_decl_column(0x05)
    5110              
    5111              $C$DW$298       .dwtag  DW_TAG_enumerator
    5112                      .dwattr $C$DW$298, DW_AT_name("ADC_SOC_NUMBER14")
    5113                      .dwattr $C$DW$298, DW_AT_const_value(0x0e)
    5114                      .dwattr $C$DW$298, DW_AT_decl_file("C:/Users/ZXC/Documents/mcu project/ti-project/clllc_nonpowerSUITE
    5115                      .dwattr $C$DW$298, DW_AT_decl_line(0x11a)
    5116                      .dwattr $C$DW$298, DW_AT_decl_column(0x05)
    5117              
    5118              $C$DW$299       .dwtag  DW_TAG_enumerator
    5119                      .dwattr $C$DW$299, DW_AT_name("ADC_SOC_NUMBER15")
    5120                      .dwattr $C$DW$299, DW_AT_const_value(0x0f)
    5121                      .dwattr $C$DW$299, DW_AT_decl_file("C:/Users/ZXC/Documents/mcu project/ti-project/clllc_nonpowerSUITE
    5122                      .dwattr $C$DW$299, DW_AT_decl_line(0x11b)
    5123                      .dwattr $C$DW$299, DW_AT_decl_column(0x05)
    5124              
    5125                      .dwattr $C$DW$T$21, DW_AT_decl_file("C:/Users/ZXC/Documents/mcu project/ti-project/clllc_nonpowerSUIT
    5126                      .dwattr $C$DW$T$21, DW_AT_decl_line(0x10b)
    5127                      .dwattr $C$DW$T$21, DW_AT_decl_column(0x01)
    5128                      .dwendtag $C$DW$T$21
    5129              
    5130                      .dwendtag $C$DW$TU$21
    5131              
    5132              
    5133              $C$DW$TU$22     .dwtag  DW_TAG_type_unit
    5134                      .dwmtype  $C$DW$T$22
    5135              $C$DW$T$22      .dwtag  DW_TAG_typedef
    5136                      .dwattr $C$DW$T$22, DW_AT_name("ADC_SOCNumber")
    5137                      .dwattr $C$DW$T$22, DW_AT_type(*$C$DW$T$21)
    5138                      .dwattr $C$DW$T$22, DW_AT_decl_file("C:/Users/ZXC/Documents/mcu project/ti-project/clllc_nonpowerSUIT
    5139                      .dwattr $C$DW$T$22, DW_AT_decl_line(0x11c)
    5140                      .dwattr $C$DW$T$22, DW_AT_decl_column(0x03)
    5141              
    5142                      .dwendtag $C$DW$TU$22
    5143              
    5144              
    5145              $C$DW$TU$23     .dwtag  DW_TAG_type_unit
    5146                      .dwmtype  $C$DW$T$23
    5147              
    5148              $C$DW$T$23      .dwtag  DW_TAG_enumeration_type
    5149                      .dwattr $C$DW$T$23, DW_AT_byte_size(0x01)
    5150              $C$DW$300       .dwtag  DW_TAG_enumerator
    5151                      .dwattr $C$DW$300, DW_AT_name("ADC_TRIGGER_SW_ONLY")
    5152                      .dwattr $C$DW$300, DW_AT_const_value(0x00)
    5153                      .dwattr $C$DW$300, DW_AT_decl_file("C:/Users/ZXC/Documents/mcu project/ti-project/clllc_nonpowerSUITE
    5154                      .dwattr $C$DW$300, DW_AT_decl_line(0xa5)
    5155                      .dwattr $C$DW$300, DW_AT_decl_column(0x05)
    5156              
    5157              $C$DW$301       .dwtag  DW_TAG_enumerator
    5158                      .dwattr $C$DW$301, DW_AT_name("ADC_TRIGGER_CPU1_TINT0")
    5159                      .dwattr $C$DW$301, DW_AT_const_value(0x01)
    5160                      .dwattr $C$DW$301, DW_AT_decl_file("C:/Users/ZXC/Documents/mcu project/ti-project/clllc_nonpowerSUITE
    5161                      .dwattr $C$DW$301, DW_AT_decl_line(0xa6)
    5162                      .dwattr $C$DW$301, DW_AT_decl_column(0x05)
TMS320C2000 Assembler PC v22.6.0 Mon Sep  2 11:55:45 2024

Copyright (c) 1996-2018 Texas Instruments Incorporated
clllc_hal.asm                                                        PAGE  114

    5163              
    5164              $C$DW$302       .dwtag  DW_TAG_enumerator
    5165                      .dwattr $C$DW$302, DW_AT_name("ADC_TRIGGER_CPU1_TINT1")
    5166                      .dwattr $C$DW$302, DW_AT_const_value(0x02)
    5167                      .dwattr $C$DW$302, DW_AT_decl_file("C:/Users/ZXC/Documents/mcu project/ti-project/clllc_nonpowerSUITE
    5168                      .dwattr $C$DW$302, DW_AT_decl_line(0xa7)
    5169                      .dwattr $C$DW$302, DW_AT_decl_column(0x05)
    5170              
    5171              $C$DW$303       .dwtag  DW_TAG_enumerator
    5172                      .dwattr $C$DW$303, DW_AT_name("ADC_TRIGGER_CPU1_TINT2")
    5173                      .dwattr $C$DW$303, DW_AT_const_value(0x03)
    5174                      .dwattr $C$DW$303, DW_AT_decl_file("C:/Users/ZXC/Documents/mcu project/ti-project/clllc_nonpowerSUITE
    5175                      .dwattr $C$DW$303, DW_AT_decl_line(0xa8)
    5176                      .dwattr $C$DW$303, DW_AT_decl_column(0x05)
    5177              
    5178              $C$DW$304       .dwtag  DW_TAG_enumerator
    5179                      .dwattr $C$DW$304, DW_AT_name("ADC_TRIGGER_GPIO")
    5180                      .dwattr $C$DW$304, DW_AT_const_value(0x04)
    5181                      .dwattr $C$DW$304, DW_AT_decl_file("C:/Users/ZXC/Documents/mcu project/ti-project/clllc_nonpowerSUITE
    5182                      .dwattr $C$DW$304, DW_AT_decl_line(0xa9)
    5183                      .dwattr $C$DW$304, DW_AT_decl_column(0x05)
    5184              
    5185              $C$DW$305       .dwtag  DW_TAG_enumerator
    5186                      .dwattr $C$DW$305, DW_AT_name("ADC_TRIGGER_EPWM1_SOCA")
    5187                      .dwattr $C$DW$305, DW_AT_const_value(0x05)
    5188                      .dwattr $C$DW$305, DW_AT_decl_file("C:/Users/ZXC/Documents/mcu project/ti-project/clllc_nonpowerSUITE
    5189                      .dwattr $C$DW$305, DW_AT_decl_line(0xaa)
    5190                      .dwattr $C$DW$305, DW_AT_decl_column(0x05)
    5191              
    5192              $C$DW$306       .dwtag  DW_TAG_enumerator
    5193                      .dwattr $C$DW$306, DW_AT_name("ADC_TRIGGER_EPWM1_SOCB")
    5194                      .dwattr $C$DW$306, DW_AT_const_value(0x06)
    5195                      .dwattr $C$DW$306, DW_AT_decl_file("C:/Users/ZXC/Documents/mcu project/ti-project/clllc_nonpowerSUITE
    5196                      .dwattr $C$DW$306, DW_AT_decl_line(0xab)
    5197                      .dwattr $C$DW$306, DW_AT_decl_column(0x05)
    5198              
    5199              $C$DW$307       .dwtag  DW_TAG_enumerator
    5200                      .dwattr $C$DW$307, DW_AT_name("ADC_TRIGGER_EPWM2_SOCA")
    5201                      .dwattr $C$DW$307, DW_AT_const_value(0x07)
    5202                      .dwattr $C$DW$307, DW_AT_decl_file("C:/Users/ZXC/Documents/mcu project/ti-project/clllc_nonpowerSUITE
    5203                      .dwattr $C$DW$307, DW_AT_decl_line(0xac)
    5204                      .dwattr $C$DW$307, DW_AT_decl_column(0x05)
    5205              
    5206              $C$DW$308       .dwtag  DW_TAG_enumerator
    5207                      .dwattr $C$DW$308, DW_AT_name("ADC_TRIGGER_EPWM2_SOCB")
    5208                      .dwattr $C$DW$308, DW_AT_const_value(0x08)
    5209                      .dwattr $C$DW$308, DW_AT_decl_file("C:/Users/ZXC/Documents/mcu project/ti-project/clllc_nonpowerSUITE
    5210                      .dwattr $C$DW$308, DW_AT_decl_line(0xad)
    5211                      .dwattr $C$DW$308, DW_AT_decl_column(0x05)
    5212              
    5213              $C$DW$309       .dwtag  DW_TAG_enumerator
    5214                      .dwattr $C$DW$309, DW_AT_name("ADC_TRIGGER_EPWM3_SOCA")
    5215                      .dwattr $C$DW$309, DW_AT_const_value(0x09)
    5216                      .dwattr $C$DW$309, DW_AT_decl_file("C:/Users/ZXC/Documents/mcu project/ti-project/clllc_nonpowerSUITE
    5217                      .dwattr $C$DW$309, DW_AT_decl_line(0xae)
TMS320C2000 Assembler PC v22.6.0 Mon Sep  2 11:55:45 2024

Copyright (c) 1996-2018 Texas Instruments Incorporated
clllc_hal.asm                                                        PAGE  115

    5218                      .dwattr $C$DW$309, DW_AT_decl_column(0x05)
    5219              
    5220              $C$DW$310       .dwtag  DW_TAG_enumerator
    5221                      .dwattr $C$DW$310, DW_AT_name("ADC_TRIGGER_EPWM3_SOCB")
    5222                      .dwattr $C$DW$310, DW_AT_const_value(0x0a)
    5223                      .dwattr $C$DW$310, DW_AT_decl_file("C:/Users/ZXC/Documents/mcu project/ti-project/clllc_nonpowerSUITE
    5224                      .dwattr $C$DW$310, DW_AT_decl_line(0xaf)
    5225                      .dwattr $C$DW$310, DW_AT_decl_column(0x05)
    5226              
    5227              $C$DW$311       .dwtag  DW_TAG_enumerator
    5228                      .dwattr $C$DW$311, DW_AT_name("ADC_TRIGGER_EPWM4_SOCA")
    5229                      .dwattr $C$DW$311, DW_AT_const_value(0x0b)
    5230                      .dwattr $C$DW$311, DW_AT_decl_file("C:/Users/ZXC/Documents/mcu project/ti-project/clllc_nonpowerSUITE
    5231                      .dwattr $C$DW$311, DW_AT_decl_line(0xb0)
    5232                      .dwattr $C$DW$311, DW_AT_decl_column(0x05)
    5233              
    5234              $C$DW$312       .dwtag  DW_TAG_enumerator
    5235                      .dwattr $C$DW$312, DW_AT_name("ADC_TRIGGER_EPWM4_SOCB")
    5236                      .dwattr $C$DW$312, DW_AT_const_value(0x0c)
    5237                      .dwattr $C$DW$312, DW_AT_decl_file("C:/Users/ZXC/Documents/mcu project/ti-project/clllc_nonpowerSUITE
    5238                      .dwattr $C$DW$312, DW_AT_decl_line(0xb1)
    5239                      .dwattr $C$DW$312, DW_AT_decl_column(0x05)
    5240              
    5241              $C$DW$313       .dwtag  DW_TAG_enumerator
    5242                      .dwattr $C$DW$313, DW_AT_name("ADC_TRIGGER_EPWM5_SOCA")
    5243                      .dwattr $C$DW$313, DW_AT_const_value(0x0d)
    5244                      .dwattr $C$DW$313, DW_AT_decl_file("C:/Users/ZXC/Documents/mcu project/ti-project/clllc_nonpowerSUITE
    5245                      .dwattr $C$DW$313, DW_AT_decl_line(0xb2)
    5246                      .dwattr $C$DW$313, DW_AT_decl_column(0x05)
    5247              
    5248              $C$DW$314       .dwtag  DW_TAG_enumerator
    5249                      .dwattr $C$DW$314, DW_AT_name("ADC_TRIGGER_EPWM5_SOCB")
    5250                      .dwattr $C$DW$314, DW_AT_const_value(0x0e)
    5251                      .dwattr $C$DW$314, DW_AT_decl_file("C:/Users/ZXC/Documents/mcu project/ti-project/clllc_nonpowerSUITE
    5252                      .dwattr $C$DW$314, DW_AT_decl_line(0xb3)
    5253                      .dwattr $C$DW$314, DW_AT_decl_column(0x05)
    5254              
    5255              $C$DW$315       .dwtag  DW_TAG_enumerator
    5256                      .dwattr $C$DW$315, DW_AT_name("ADC_TRIGGER_EPWM6_SOCA")
    5257                      .dwattr $C$DW$315, DW_AT_const_value(0x0f)
    5258                      .dwattr $C$DW$315, DW_AT_decl_file("C:/Users/ZXC/Documents/mcu project/ti-project/clllc_nonpowerSUITE
    5259                      .dwattr $C$DW$315, DW_AT_decl_line(0xb4)
    5260                      .dwattr $C$DW$315, DW_AT_decl_column(0x05)
    5261              
    5262              $C$DW$316       .dwtag  DW_TAG_enumerator
    5263                      .dwattr $C$DW$316, DW_AT_name("ADC_TRIGGER_EPWM6_SOCB")
    5264                      .dwattr $C$DW$316, DW_AT_const_value(0x10)
    5265                      .dwattr $C$DW$316, DW_AT_decl_file("C:/Users/ZXC/Documents/mcu project/ti-project/clllc_nonpowerSUITE
    5266                      .dwattr $C$DW$316, DW_AT_decl_line(0xb5)
    5267                      .dwattr $C$DW$316, DW_AT_decl_column(0x05)
    5268              
    5269              $C$DW$317       .dwtag  DW_TAG_enumerator
    5270                      .dwattr $C$DW$317, DW_AT_name("ADC_TRIGGER_EPWM7_SOCA")
    5271                      .dwattr $C$DW$317, DW_AT_const_value(0x11)
    5272                      .dwattr $C$DW$317, DW_AT_decl_file("C:/Users/ZXC/Documents/mcu project/ti-project/clllc_nonpowerSUITE
TMS320C2000 Assembler PC v22.6.0 Mon Sep  2 11:55:45 2024

Copyright (c) 1996-2018 Texas Instruments Incorporated
clllc_hal.asm                                                        PAGE  116

    5273                      .dwattr $C$DW$317, DW_AT_decl_line(0xb6)
    5274                      .dwattr $C$DW$317, DW_AT_decl_column(0x05)
    5275              
    5276              $C$DW$318       .dwtag  DW_TAG_enumerator
    5277                      .dwattr $C$DW$318, DW_AT_name("ADC_TRIGGER_EPWM7_SOCB")
    5278                      .dwattr $C$DW$318, DW_AT_const_value(0x12)
    5279                      .dwattr $C$DW$318, DW_AT_decl_file("C:/Users/ZXC/Documents/mcu project/ti-project/clllc_nonpowerSUITE
    5280                      .dwattr $C$DW$318, DW_AT_decl_line(0xb7)
    5281                      .dwattr $C$DW$318, DW_AT_decl_column(0x05)
    5282              
    5283              $C$DW$319       .dwtag  DW_TAG_enumerator
    5284                      .dwattr $C$DW$319, DW_AT_name("ADC_TRIGGER_EPWM8_SOCA")
    5285                      .dwattr $C$DW$319, DW_AT_const_value(0x13)
    5286                      .dwattr $C$DW$319, DW_AT_decl_file("C:/Users/ZXC/Documents/mcu project/ti-project/clllc_nonpowerSUITE
    5287                      .dwattr $C$DW$319, DW_AT_decl_line(0xb8)
    5288                      .dwattr $C$DW$319, DW_AT_decl_column(0x05)
    5289              
    5290              $C$DW$320       .dwtag  DW_TAG_enumerator
    5291                      .dwattr $C$DW$320, DW_AT_name("ADC_TRIGGER_EPWM8_SOCB")
    5292                      .dwattr $C$DW$320, DW_AT_const_value(0x14)
    5293                      .dwattr $C$DW$320, DW_AT_decl_file("C:/Users/ZXC/Documents/mcu project/ti-project/clllc_nonpowerSUITE
    5294                      .dwattr $C$DW$320, DW_AT_decl_line(0xb9)
    5295                      .dwattr $C$DW$320, DW_AT_decl_column(0x05)
    5296              
    5297                      .dwattr $C$DW$T$23, DW_AT_decl_file("C:/Users/ZXC/Documents/mcu project/ti-project/clllc_nonpowerSUIT
    5298                      .dwattr $C$DW$T$23, DW_AT_decl_line(0xa4)
    5299                      .dwattr $C$DW$T$23, DW_AT_decl_column(0x01)
    5300                      .dwendtag $C$DW$T$23
    5301              
    5302                      .dwendtag $C$DW$TU$23
    5303              
    5304              
    5305              $C$DW$TU$24     .dwtag  DW_TAG_type_unit
    5306                      .dwmtype  $C$DW$T$24
    5307              $C$DW$T$24      .dwtag  DW_TAG_typedef
    5308                      .dwattr $C$DW$T$24, DW_AT_name("ADC_Trigger")
    5309                      .dwattr $C$DW$T$24, DW_AT_type(*$C$DW$T$23)
    5310                      .dwattr $C$DW$T$24, DW_AT_decl_file("C:/Users/ZXC/Documents/mcu project/ti-project/clllc_nonpowerSUIT
    5311                      .dwattr $C$DW$T$24, DW_AT_decl_line(0xba)
    5312                      .dwattr $C$DW$T$24, DW_AT_decl_column(0x03)
    5313              
    5314                      .dwendtag $C$DW$TU$24
    5315              
    5316              
    5317              $C$DW$TU$25     .dwtag  DW_TAG_type_unit
    5318                      .dwmtype  $C$DW$T$25
    5319              
    5320              $C$DW$T$25      .dwtag  DW_TAG_enumeration_type
    5321                      .dwattr $C$DW$T$25, DW_AT_byte_size(0x01)
    5322              $C$DW$321       .dwtag  DW_TAG_enumerator
    5323                      .dwattr $C$DW$321, DW_AT_name("ADC_CH_ADCIN0")
    5324                      .dwattr $C$DW$321, DW_AT_const_value(0x00)
    5325                      .dwattr $C$DW$321, DW_AT_decl_file("C:/Users/ZXC/Documents/mcu project/ti-project/clllc_nonpowerSUITE
    5326                      .dwattr $C$DW$321, DW_AT_decl_line(0xc5)
    5327                      .dwattr $C$DW$321, DW_AT_decl_column(0x05)
TMS320C2000 Assembler PC v22.6.0 Mon Sep  2 11:55:45 2024

Copyright (c) 1996-2018 Texas Instruments Incorporated
clllc_hal.asm                                                        PAGE  117

    5328              
    5329              $C$DW$322       .dwtag  DW_TAG_enumerator
    5330                      .dwattr $C$DW$322, DW_AT_name("ADC_CH_ADCIN1")
    5331                      .dwattr $C$DW$322, DW_AT_const_value(0x01)
    5332                      .dwattr $C$DW$322, DW_AT_decl_file("C:/Users/ZXC/Documents/mcu project/ti-project/clllc_nonpowerSUITE
    5333                      .dwattr $C$DW$322, DW_AT_decl_line(0xc6)
    5334                      .dwattr $C$DW$322, DW_AT_decl_column(0x05)
    5335              
    5336              $C$DW$323       .dwtag  DW_TAG_enumerator
    5337                      .dwattr $C$DW$323, DW_AT_name("ADC_CH_ADCIN2")
    5338                      .dwattr $C$DW$323, DW_AT_const_value(0x02)
    5339                      .dwattr $C$DW$323, DW_AT_decl_file("C:/Users/ZXC/Documents/mcu project/ti-project/clllc_nonpowerSUITE
    5340                      .dwattr $C$DW$323, DW_AT_decl_line(0xc7)
    5341                      .dwattr $C$DW$323, DW_AT_decl_column(0x05)
    5342              
    5343              $C$DW$324       .dwtag  DW_TAG_enumerator
    5344                      .dwattr $C$DW$324, DW_AT_name("ADC_CH_ADCIN3")
    5345                      .dwattr $C$DW$324, DW_AT_const_value(0x03)
    5346                      .dwattr $C$DW$324, DW_AT_decl_file("C:/Users/ZXC/Documents/mcu project/ti-project/clllc_nonpowerSUITE
    5347                      .dwattr $C$DW$324, DW_AT_decl_line(0xc8)
    5348                      .dwattr $C$DW$324, DW_AT_decl_column(0x05)
    5349              
    5350              $C$DW$325       .dwtag  DW_TAG_enumerator
    5351                      .dwattr $C$DW$325, DW_AT_name("ADC_CH_ADCIN4")
    5352                      .dwattr $C$DW$325, DW_AT_const_value(0x04)
    5353                      .dwattr $C$DW$325, DW_AT_decl_file("C:/Users/ZXC/Documents/mcu project/ti-project/clllc_nonpowerSUITE
    5354                      .dwattr $C$DW$325, DW_AT_decl_line(0xc9)
    5355                      .dwattr $C$DW$325, DW_AT_decl_column(0x05)
    5356              
    5357              $C$DW$326       .dwtag  DW_TAG_enumerator
    5358                      .dwattr $C$DW$326, DW_AT_name("ADC_CH_ADCIN5")
    5359                      .dwattr $C$DW$326, DW_AT_const_value(0x05)
    5360                      .dwattr $C$DW$326, DW_AT_decl_file("C:/Users/ZXC/Documents/mcu project/ti-project/clllc_nonpowerSUITE
    5361                      .dwattr $C$DW$326, DW_AT_decl_line(0xca)
    5362                      .dwattr $C$DW$326, DW_AT_decl_column(0x05)
    5363              
    5364              $C$DW$327       .dwtag  DW_TAG_enumerator
    5365                      .dwattr $C$DW$327, DW_AT_name("ADC_CH_ADCIN6")
    5366                      .dwattr $C$DW$327, DW_AT_const_value(0x06)
    5367                      .dwattr $C$DW$327, DW_AT_decl_file("C:/Users/ZXC/Documents/mcu project/ti-project/clllc_nonpowerSUITE
    5368                      .dwattr $C$DW$327, DW_AT_decl_line(0xcb)
    5369                      .dwattr $C$DW$327, DW_AT_decl_column(0x05)
    5370              
    5371              $C$DW$328       .dwtag  DW_TAG_enumerator
    5372                      .dwattr $C$DW$328, DW_AT_name("ADC_CH_ADCIN7")
    5373                      .dwattr $C$DW$328, DW_AT_const_value(0x07)
    5374                      .dwattr $C$DW$328, DW_AT_decl_file("C:/Users/ZXC/Documents/mcu project/ti-project/clllc_nonpowerSUITE
    5375                      .dwattr $C$DW$328, DW_AT_decl_line(0xcc)
    5376                      .dwattr $C$DW$328, DW_AT_decl_column(0x05)
    5377              
    5378              $C$DW$329       .dwtag  DW_TAG_enumerator
    5379                      .dwattr $C$DW$329, DW_AT_name("ADC_CH_ADCIN8")
    5380                      .dwattr $C$DW$329, DW_AT_const_value(0x08)
    5381                      .dwattr $C$DW$329, DW_AT_decl_file("C:/Users/ZXC/Documents/mcu project/ti-project/clllc_nonpowerSUITE
    5382                      .dwattr $C$DW$329, DW_AT_decl_line(0xcd)
TMS320C2000 Assembler PC v22.6.0 Mon Sep  2 11:55:45 2024

Copyright (c) 1996-2018 Texas Instruments Incorporated
clllc_hal.asm                                                        PAGE  118

    5383                      .dwattr $C$DW$329, DW_AT_decl_column(0x05)
    5384              
    5385              $C$DW$330       .dwtag  DW_TAG_enumerator
    5386                      .dwattr $C$DW$330, DW_AT_name("ADC_CH_ADCIN9")
    5387                      .dwattr $C$DW$330, DW_AT_const_value(0x09)
    5388                      .dwattr $C$DW$330, DW_AT_decl_file("C:/Users/ZXC/Documents/mcu project/ti-project/clllc_nonpowerSUITE
    5389                      .dwattr $C$DW$330, DW_AT_decl_line(0xce)
    5390                      .dwattr $C$DW$330, DW_AT_decl_column(0x05)
    5391              
    5392              $C$DW$331       .dwtag  DW_TAG_enumerator
    5393                      .dwattr $C$DW$331, DW_AT_name("ADC_CH_ADCIN10")
    5394                      .dwattr $C$DW$331, DW_AT_const_value(0x0a)
    5395                      .dwattr $C$DW$331, DW_AT_decl_file("C:/Users/ZXC/Documents/mcu project/ti-project/clllc_nonpowerSUITE
    5396                      .dwattr $C$DW$331, DW_AT_decl_line(0xcf)
    5397                      .dwattr $C$DW$331, DW_AT_decl_column(0x05)
    5398              
    5399              $C$DW$332       .dwtag  DW_TAG_enumerator
    5400                      .dwattr $C$DW$332, DW_AT_name("ADC_CH_ADCIN11")
    5401                      .dwattr $C$DW$332, DW_AT_const_value(0x0b)
    5402                      .dwattr $C$DW$332, DW_AT_decl_file("C:/Users/ZXC/Documents/mcu project/ti-project/clllc_nonpowerSUITE
    5403                      .dwattr $C$DW$332, DW_AT_decl_line(0xd0)
    5404                      .dwattr $C$DW$332, DW_AT_decl_column(0x05)
    5405              
    5406              $C$DW$333       .dwtag  DW_TAG_enumerator
    5407                      .dwattr $C$DW$333, DW_AT_name("ADC_CH_ADCIN12")
    5408                      .dwattr $C$DW$333, DW_AT_const_value(0x0c)
    5409                      .dwattr $C$DW$333, DW_AT_decl_file("C:/Users/ZXC/Documents/mcu project/ti-project/clllc_nonpowerSUITE
    5410                      .dwattr $C$DW$333, DW_AT_decl_line(0xd1)
    5411                      .dwattr $C$DW$333, DW_AT_decl_column(0x05)
    5412              
    5413              $C$DW$334       .dwtag  DW_TAG_enumerator
    5414                      .dwattr $C$DW$334, DW_AT_name("ADC_CH_ADCIN13")
    5415                      .dwattr $C$DW$334, DW_AT_const_value(0x0d)
    5416                      .dwattr $C$DW$334, DW_AT_decl_file("C:/Users/ZXC/Documents/mcu project/ti-project/clllc_nonpowerSUITE
    5417                      .dwattr $C$DW$334, DW_AT_decl_line(0xd2)
    5418                      .dwattr $C$DW$334, DW_AT_decl_column(0x05)
    5419              
    5420              $C$DW$335       .dwtag  DW_TAG_enumerator
    5421                      .dwattr $C$DW$335, DW_AT_name("ADC_CH_ADCIN14")
    5422                      .dwattr $C$DW$335, DW_AT_const_value(0x0e)
    5423                      .dwattr $C$DW$335, DW_AT_decl_file("C:/Users/ZXC/Documents/mcu project/ti-project/clllc_nonpowerSUITE
    5424                      .dwattr $C$DW$335, DW_AT_decl_line(0xd3)
    5425                      .dwattr $C$DW$335, DW_AT_decl_column(0x05)
    5426              
    5427              $C$DW$336       .dwtag  DW_TAG_enumerator
    5428                      .dwattr $C$DW$336, DW_AT_name("ADC_CH_ADCIN15")
    5429                      .dwattr $C$DW$336, DW_AT_const_value(0x0f)
    5430                      .dwattr $C$DW$336, DW_AT_decl_file("C:/Users/ZXC/Documents/mcu project/ti-project/clllc_nonpowerSUITE
    5431                      .dwattr $C$DW$336, DW_AT_decl_line(0xd4)
    5432                      .dwattr $C$DW$336, DW_AT_decl_column(0x05)
    5433              
    5434                      .dwattr $C$DW$T$25, DW_AT_decl_file("C:/Users/ZXC/Documents/mcu project/ti-project/clllc_nonpowerSUIT
    5435                      .dwattr $C$DW$T$25, DW_AT_decl_line(0xc4)
    5436                      .dwattr $C$DW$T$25, DW_AT_decl_column(0x01)
    5437                      .dwendtag $C$DW$T$25
TMS320C2000 Assembler PC v22.6.0 Mon Sep  2 11:55:45 2024

Copyright (c) 1996-2018 Texas Instruments Incorporated
clllc_hal.asm                                                        PAGE  119

    5438              
    5439                      .dwendtag $C$DW$TU$25
    5440              
    5441              
    5442              $C$DW$TU$26     .dwtag  DW_TAG_type_unit
    5443                      .dwmtype  $C$DW$T$26
    5444              $C$DW$T$26      .dwtag  DW_TAG_typedef
    5445                      .dwattr $C$DW$T$26, DW_AT_name("ADC_Channel")
    5446                      .dwattr $C$DW$T$26, DW_AT_type(*$C$DW$T$25)
    5447                      .dwattr $C$DW$T$26, DW_AT_decl_file("C:/Users/ZXC/Documents/mcu project/ti-project/clllc_nonpowerSUIT
    5448                      .dwattr $C$DW$T$26, DW_AT_decl_line(0xd5)
    5449                      .dwattr $C$DW$T$26, DW_AT_decl_column(0x03)
    5450              
    5451                      .dwendtag $C$DW$TU$26
    5452              
    5453              
    5454              $C$DW$TU$27     .dwtag  DW_TAG_type_unit
    5455                      .dwmtype  $C$DW$T$27
    5456              
    5457              $C$DW$T$27      .dwtag  DW_TAG_enumeration_type
    5458                      .dwattr $C$DW$T$27, DW_AT_byte_size(0x01)
    5459              $C$DW$337       .dwtag  DW_TAG_enumerator
    5460                      .dwattr $C$DW$337, DW_AT_name("ADC_REFERENCE_INTERNAL")
    5461                      .dwattr $C$DW$337, DW_AT_const_value(0x00)
    5462                      .dwattr $C$DW$337, DW_AT_decl_file("C:/Users/ZXC/Documents/mcu project/ti-project/clllc_nonpowerSUITE
    5463                      .dwattr $C$DW$337, DW_AT_decl_line(0x14e)
    5464                      .dwattr $C$DW$337, DW_AT_decl_column(0x05)
    5465              
    5466              $C$DW$338       .dwtag  DW_TAG_enumerator
    5467                      .dwattr $C$DW$338, DW_AT_name("ADC_REFERENCE_EXTERNAL")
    5468                      .dwattr $C$DW$338, DW_AT_const_value(0x01)
    5469                      .dwattr $C$DW$338, DW_AT_decl_file("C:/Users/ZXC/Documents/mcu project/ti-project/clllc_nonpowerSUITE
    5470                      .dwattr $C$DW$338, DW_AT_decl_line(0x14f)
    5471                      .dwattr $C$DW$338, DW_AT_decl_column(0x05)
    5472              
    5473                      .dwattr $C$DW$T$27, DW_AT_decl_file("C:/Users/ZXC/Documents/mcu project/ti-project/clllc_nonpowerSUIT
    5474                      .dwattr $C$DW$T$27, DW_AT_decl_line(0x14d)
    5475                      .dwattr $C$DW$T$27, DW_AT_decl_column(0x01)
    5476                      .dwendtag $C$DW$T$27
    5477              
    5478                      .dwendtag $C$DW$TU$27
    5479              
    5480              
    5481              $C$DW$TU$28     .dwtag  DW_TAG_type_unit
    5482                      .dwmtype  $C$DW$T$28
    5483              $C$DW$T$28      .dwtag  DW_TAG_typedef
    5484                      .dwattr $C$DW$T$28, DW_AT_name("ADC_ReferenceMode")
    5485                      .dwattr $C$DW$T$28, DW_AT_type(*$C$DW$T$27)
    5486                      .dwattr $C$DW$T$28, DW_AT_decl_file("C:/Users/ZXC/Documents/mcu project/ti-project/clllc_nonpowerSUIT
    5487                      .dwattr $C$DW$T$28, DW_AT_decl_line(0x150)
    5488                      .dwattr $C$DW$T$28, DW_AT_decl_column(0x03)
    5489              
    5490                      .dwendtag $C$DW$TU$28
    5491              
    5492              
TMS320C2000 Assembler PC v22.6.0 Mon Sep  2 11:55:45 2024

Copyright (c) 1996-2018 Texas Instruments Incorporated
clllc_hal.asm                                                        PAGE  120

    5493              $C$DW$TU$29     .dwtag  DW_TAG_type_unit
    5494                      .dwmtype  $C$DW$T$29
    5495              
    5496              $C$DW$T$29      .dwtag  DW_TAG_enumeration_type
    5497                      .dwattr $C$DW$T$29, DW_AT_byte_size(0x01)
    5498              $C$DW$339       .dwtag  DW_TAG_enumerator
    5499                      .dwattr $C$DW$339, DW_AT_name("ADC_REFERENCE_3_3V")
    5500                      .dwattr $C$DW$339, DW_AT_const_value(0x00)
    5501                      .dwattr $C$DW$339, DW_AT_decl_file("C:/Users/ZXC/Documents/mcu project/ti-project/clllc_nonpowerSUITE
    5502                      .dwattr $C$DW$339, DW_AT_decl_line(0x15b)
    5503                      .dwattr $C$DW$339, DW_AT_decl_column(0x05)
    5504              
    5505              $C$DW$340       .dwtag  DW_TAG_enumerator
    5506                      .dwattr $C$DW$340, DW_AT_name("ADC_REFERENCE_2_5V")
    5507                      .dwattr $C$DW$340, DW_AT_const_value(0x01)
    5508                      .dwattr $C$DW$340, DW_AT_decl_file("C:/Users/ZXC/Documents/mcu project/ti-project/clllc_nonpowerSUITE
    5509                      .dwattr $C$DW$340, DW_AT_decl_line(0x15c)
    5510                      .dwattr $C$DW$340, DW_AT_decl_column(0x05)
    5511              
    5512                      .dwattr $C$DW$T$29, DW_AT_decl_file("C:/Users/ZXC/Documents/mcu project/ti-project/clllc_nonpowerSUIT
    5513                      .dwattr $C$DW$T$29, DW_AT_decl_line(0x15a)
    5514                      .dwattr $C$DW$T$29, DW_AT_decl_column(0x01)
    5515                      .dwendtag $C$DW$T$29
    5516              
    5517                      .dwendtag $C$DW$TU$29
    5518              
    5519              
    5520              $C$DW$TU$30     .dwtag  DW_TAG_type_unit
    5521                      .dwmtype  $C$DW$T$30
    5522              $C$DW$T$30      .dwtag  DW_TAG_typedef
    5523                      .dwattr $C$DW$T$30, DW_AT_name("ADC_ReferenceVoltage")
    5524                      .dwattr $C$DW$T$30, DW_AT_type(*$C$DW$T$29)
    5525                      .dwattr $C$DW$T$30, DW_AT_decl_file("C:/Users/ZXC/Documents/mcu project/ti-project/clllc_nonpowerSUIT
    5526                      .dwattr $C$DW$T$30, DW_AT_decl_line(0x15d)
    5527                      .dwattr $C$DW$T$30, DW_AT_decl_column(0x03)
    5528              
    5529                      .dwendtag $C$DW$TU$30
    5530              
    5531              
    5532              $C$DW$TU$31     .dwtag  DW_TAG_type_unit
    5533                      .dwmtype  $C$DW$T$31
    5534              
    5535              $C$DW$T$31      .dwtag  DW_TAG_enumeration_type
    5536                      .dwattr $C$DW$T$31, DW_AT_byte_size(0x01)
    5537              $C$DW$341       .dwtag  DW_TAG_enumerator
    5538                      .dwattr $C$DW$341, DW_AT_name("SYSCTL_PERIPH_CLK_CLA1")
    5539                      .dwattr $C$DW$341, DW_AT_const_value(0x00)
    5540                      .dwattr $C$DW$341, DW_AT_decl_file("C:\Users\ZXC\Documents\mcu project\ti-project\clllc_nonpowerSUITE
    5541                      .dwattr $C$DW$341, DW_AT_decl_line(0x12a)
    5542                      .dwattr $C$DW$341, DW_AT_decl_column(0x05)
    5543              
    5544              $C$DW$342       .dwtag  DW_TAG_enumerator
    5545                      .dwattr $C$DW$342, DW_AT_name("SYSCTL_PERIPH_CLK_DMA")
    5546                      .dwattr $C$DW$342, DW_AT_const_value(0x200)
    5547                      .dwattr $C$DW$342, DW_AT_decl_file("C:\Users\ZXC\Documents\mcu project\ti-project\clllc_nonpowerSUITE
TMS320C2000 Assembler PC v22.6.0 Mon Sep  2 11:55:45 2024

Copyright (c) 1996-2018 Texas Instruments Incorporated
clllc_hal.asm                                                        PAGE  121

    5548                      .dwattr $C$DW$342, DW_AT_decl_line(0x12b)
    5549                      .dwattr $C$DW$342, DW_AT_decl_column(0x05)
    5550              
    5551              $C$DW$343       .dwtag  DW_TAG_enumerator
    5552                      .dwattr $C$DW$343, DW_AT_name("SYSCTL_PERIPH_CLK_TIMER0")
    5553                      .dwattr $C$DW$343, DW_AT_const_value(0x300)
    5554                      .dwattr $C$DW$343, DW_AT_decl_file("C:\Users\ZXC\Documents\mcu project\ti-project\clllc_nonpowerSUITE
    5555                      .dwattr $C$DW$343, DW_AT_decl_line(0x12c)
    5556                      .dwattr $C$DW$343, DW_AT_decl_column(0x05)
    5557              
    5558              $C$DW$344       .dwtag  DW_TAG_enumerator
    5559                      .dwattr $C$DW$344, DW_AT_name("SYSCTL_PERIPH_CLK_TIMER1")
    5560                      .dwattr $C$DW$344, DW_AT_const_value(0x400)
    5561                      .dwattr $C$DW$344, DW_AT_decl_file("C:\Users\ZXC\Documents\mcu project\ti-project\clllc_nonpowerSUITE
    5562                      .dwattr $C$DW$344, DW_AT_decl_line(0x12d)
    5563                      .dwattr $C$DW$344, DW_AT_decl_column(0x05)
    5564              
    5565              $C$DW$345       .dwtag  DW_TAG_enumerator
    5566                      .dwattr $C$DW$345, DW_AT_name("SYSCTL_PERIPH_CLK_TIMER2")
    5567                      .dwattr $C$DW$345, DW_AT_const_value(0x500)
    5568                      .dwattr $C$DW$345, DW_AT_decl_file("C:\Users\ZXC\Documents\mcu project\ti-project\clllc_nonpowerSUITE
    5569                      .dwattr $C$DW$345, DW_AT_decl_line(0x12e)
    5570                      .dwattr $C$DW$345, DW_AT_decl_column(0x05)
    5571              
    5572              $C$DW$346       .dwtag  DW_TAG_enumerator
    5573                      .dwattr $C$DW$346, DW_AT_name("SYSCTL_PERIPH_CLK_HRPWM")
    5574                      .dwattr $C$DW$346, DW_AT_const_value(0x1000)
    5575                      .dwattr $C$DW$346, DW_AT_decl_file("C:\Users\ZXC\Documents\mcu project\ti-project\clllc_nonpowerSUITE
    5576                      .dwattr $C$DW$346, DW_AT_decl_line(0x12f)
    5577                      .dwattr $C$DW$346, DW_AT_decl_column(0x05)
    5578              
    5579              $C$DW$347       .dwtag  DW_TAG_enumerator
    5580                      .dwattr $C$DW$347, DW_AT_name("SYSCTL_PERIPH_CLK_TBCLKSYNC")
    5581                      .dwattr $C$DW$347, DW_AT_const_value(0x1200)
    5582                      .dwattr $C$DW$347, DW_AT_decl_file("C:\Users\ZXC\Documents\mcu project\ti-project\clllc_nonpowerSUITE
    5583                      .dwattr $C$DW$347, DW_AT_decl_line(0x130)
    5584                      .dwattr $C$DW$347, DW_AT_decl_column(0x05)
    5585              
    5586              $C$DW$348       .dwtag  DW_TAG_enumerator
    5587                      .dwattr $C$DW$348, DW_AT_name("SYSCTL_PERIPH_CLK_EPWM1")
    5588                      .dwattr $C$DW$348, DW_AT_const_value(0x02)
    5589                      .dwattr $C$DW$348, DW_AT_decl_file("C:\Users\ZXC\Documents\mcu project\ti-project\clllc_nonpowerSUITE
    5590                      .dwattr $C$DW$348, DW_AT_decl_line(0x131)
    5591                      .dwattr $C$DW$348, DW_AT_decl_column(0x05)
    5592              
    5593              $C$DW$349       .dwtag  DW_TAG_enumerator
    5594                      .dwattr $C$DW$349, DW_AT_name("SYSCTL_PERIPH_CLK_EPWM2")
    5595                      .dwattr $C$DW$349, DW_AT_const_value(0x102)
    5596                      .dwattr $C$DW$349, DW_AT_decl_file("C:\Users\ZXC\Documents\mcu project\ti-project\clllc_nonpowerSUITE
    5597                      .dwattr $C$DW$349, DW_AT_decl_line(0x132)
    5598                      .dwattr $C$DW$349, DW_AT_decl_column(0x05)
    5599              
    5600              $C$DW$350       .dwtag  DW_TAG_enumerator
    5601                      .dwattr $C$DW$350, DW_AT_name("SYSCTL_PERIPH_CLK_EPWM3")
    5602                      .dwattr $C$DW$350, DW_AT_const_value(0x202)
TMS320C2000 Assembler PC v22.6.0 Mon Sep  2 11:55:45 2024

Copyright (c) 1996-2018 Texas Instruments Incorporated
clllc_hal.asm                                                        PAGE  122

    5603                      .dwattr $C$DW$350, DW_AT_decl_file("C:\Users\ZXC\Documents\mcu project\ti-project\clllc_nonpowerSUITE
    5604                      .dwattr $C$DW$350, DW_AT_decl_line(0x133)
    5605                      .dwattr $C$DW$350, DW_AT_decl_column(0x05)
    5606              
    5607              $C$DW$351       .dwtag  DW_TAG_enumerator
    5608                      .dwattr $C$DW$351, DW_AT_name("SYSCTL_PERIPH_CLK_EPWM4")
    5609                      .dwattr $C$DW$351, DW_AT_const_value(0x302)
    5610                      .dwattr $C$DW$351, DW_AT_decl_file("C:\Users\ZXC\Documents\mcu project\ti-project\clllc_nonpowerSUITE
    5611                      .dwattr $C$DW$351, DW_AT_decl_line(0x134)
    5612                      .dwattr $C$DW$351, DW_AT_decl_column(0x05)
    5613              
    5614              $C$DW$352       .dwtag  DW_TAG_enumerator
    5615                      .dwattr $C$DW$352, DW_AT_name("SYSCTL_PERIPH_CLK_EPWM5")
    5616                      .dwattr $C$DW$352, DW_AT_const_value(0x402)
    5617                      .dwattr $C$DW$352, DW_AT_decl_file("C:\Users\ZXC\Documents\mcu project\ti-project\clllc_nonpowerSUITE
    5618                      .dwattr $C$DW$352, DW_AT_decl_line(0x135)
    5619                      .dwattr $C$DW$352, DW_AT_decl_column(0x05)
    5620              
    5621              $C$DW$353       .dwtag  DW_TAG_enumerator
    5622                      .dwattr $C$DW$353, DW_AT_name("SYSCTL_PERIPH_CLK_EPWM6")
    5623                      .dwattr $C$DW$353, DW_AT_const_value(0x502)
    5624                      .dwattr $C$DW$353, DW_AT_decl_file("C:\Users\ZXC\Documents\mcu project\ti-project\clllc_nonpowerSUITE
    5625                      .dwattr $C$DW$353, DW_AT_decl_line(0x136)
    5626                      .dwattr $C$DW$353, DW_AT_decl_column(0x05)
    5627              
    5628              $C$DW$354       .dwtag  DW_TAG_enumerator
    5629                      .dwattr $C$DW$354, DW_AT_name("SYSCTL_PERIPH_CLK_EPWM7")
    5630                      .dwattr $C$DW$354, DW_AT_const_value(0x602)
    5631                      .dwattr $C$DW$354, DW_AT_decl_file("C:\Users\ZXC\Documents\mcu project\ti-project\clllc_nonpowerSUITE
    5632                      .dwattr $C$DW$354, DW_AT_decl_line(0x137)
    5633                      .dwattr $C$DW$354, DW_AT_decl_column(0x05)
    5634              
    5635              $C$DW$355       .dwtag  DW_TAG_enumerator
    5636                      .dwattr $C$DW$355, DW_AT_name("SYSCTL_PERIPH_CLK_EPWM8")
    5637                      .dwattr $C$DW$355, DW_AT_const_value(0x702)
    5638                      .dwattr $C$DW$355, DW_AT_decl_file("C:\Users\ZXC\Documents\mcu project\ti-project\clllc_nonpowerSUITE
    5639                      .dwattr $C$DW$355, DW_AT_decl_line(0x138)
    5640                      .dwattr $C$DW$355, DW_AT_decl_column(0x05)
    5641              
    5642              $C$DW$356       .dwtag  DW_TAG_enumerator
    5643                      .dwattr $C$DW$356, DW_AT_name("SYSCTL_PERIPH_CLK_ECAP1")
    5644                      .dwattr $C$DW$356, DW_AT_const_value(0x03)
    5645                      .dwattr $C$DW$356, DW_AT_decl_file("C:\Users\ZXC\Documents\mcu project\ti-project\clllc_nonpowerSUITE
    5646                      .dwattr $C$DW$356, DW_AT_decl_line(0x139)
    5647                      .dwattr $C$DW$356, DW_AT_decl_column(0x05)
    5648              
    5649              $C$DW$357       .dwtag  DW_TAG_enumerator
    5650                      .dwattr $C$DW$357, DW_AT_name("SYSCTL_PERIPH_CLK_ECAP2")
    5651                      .dwattr $C$DW$357, DW_AT_const_value(0x103)
    5652                      .dwattr $C$DW$357, DW_AT_decl_file("C:\Users\ZXC\Documents\mcu project\ti-project\clllc_nonpowerSUITE
    5653                      .dwattr $C$DW$357, DW_AT_decl_line(0x13a)
    5654                      .dwattr $C$DW$357, DW_AT_decl_column(0x05)
    5655              
    5656              $C$DW$358       .dwtag  DW_TAG_enumerator
    5657                      .dwattr $C$DW$358, DW_AT_name("SYSCTL_PERIPH_CLK_ECAP3")
TMS320C2000 Assembler PC v22.6.0 Mon Sep  2 11:55:45 2024

Copyright (c) 1996-2018 Texas Instruments Incorporated
clllc_hal.asm                                                        PAGE  123

    5658                      .dwattr $C$DW$358, DW_AT_const_value(0x203)
    5659                      .dwattr $C$DW$358, DW_AT_decl_file("C:\Users\ZXC\Documents\mcu project\ti-project\clllc_nonpowerSUITE
    5660                      .dwattr $C$DW$358, DW_AT_decl_line(0x13b)
    5661                      .dwattr $C$DW$358, DW_AT_decl_column(0x05)
    5662              
    5663              $C$DW$359       .dwtag  DW_TAG_enumerator
    5664                      .dwattr $C$DW$359, DW_AT_name("SYSCTL_PERIPH_CLK_ECAP4")
    5665                      .dwattr $C$DW$359, DW_AT_const_value(0x303)
    5666                      .dwattr $C$DW$359, DW_AT_decl_file("C:\Users\ZXC\Documents\mcu project\ti-project\clllc_nonpowerSUITE
    5667                      .dwattr $C$DW$359, DW_AT_decl_line(0x13c)
    5668                      .dwattr $C$DW$359, DW_AT_decl_column(0x05)
    5669              
    5670              $C$DW$360       .dwtag  DW_TAG_enumerator
    5671                      .dwattr $C$DW$360, DW_AT_name("SYSCTL_PERIPH_CLK_ECAP5")
    5672                      .dwattr $C$DW$360, DW_AT_const_value(0x403)
    5673                      .dwattr $C$DW$360, DW_AT_decl_file("C:\Users\ZXC\Documents\mcu project\ti-project\clllc_nonpowerSUITE
    5674                      .dwattr $C$DW$360, DW_AT_decl_line(0x13d)
    5675                      .dwattr $C$DW$360, DW_AT_decl_column(0x05)
    5676              
    5677              $C$DW$361       .dwtag  DW_TAG_enumerator
    5678                      .dwattr $C$DW$361, DW_AT_name("SYSCTL_PERIPH_CLK_ECAP6")
    5679                      .dwattr $C$DW$361, DW_AT_const_value(0x503)
    5680                      .dwattr $C$DW$361, DW_AT_decl_file("C:\Users\ZXC\Documents\mcu project\ti-project\clllc_nonpowerSUITE
    5681                      .dwattr $C$DW$361, DW_AT_decl_line(0x13e)
    5682                      .dwattr $C$DW$361, DW_AT_decl_column(0x05)
    5683              
    5684              $C$DW$362       .dwtag  DW_TAG_enumerator
    5685                      .dwattr $C$DW$362, DW_AT_name("SYSCTL_PERIPH_CLK_ECAP7")
    5686                      .dwattr $C$DW$362, DW_AT_const_value(0x603)
    5687                      .dwattr $C$DW$362, DW_AT_decl_file("C:\Users\ZXC\Documents\mcu project\ti-project\clllc_nonpowerSUITE
    5688                      .dwattr $C$DW$362, DW_AT_decl_line(0x13f)
    5689                      .dwattr $C$DW$362, DW_AT_decl_column(0x05)
    5690              
    5691              $C$DW$363       .dwtag  DW_TAG_enumerator
    5692                      .dwattr $C$DW$363, DW_AT_name("SYSCTL_PERIPH_CLK_EQEP1")
    5693                      .dwattr $C$DW$363, DW_AT_const_value(0x04)
    5694                      .dwattr $C$DW$363, DW_AT_decl_file("C:\Users\ZXC\Documents\mcu project\ti-project\clllc_nonpowerSUITE
    5695                      .dwattr $C$DW$363, DW_AT_decl_line(0x140)
    5696                      .dwattr $C$DW$363, DW_AT_decl_column(0x05)
    5697              
    5698              $C$DW$364       .dwtag  DW_TAG_enumerator
    5699                      .dwattr $C$DW$364, DW_AT_name("SYSCTL_PERIPH_CLK_EQEP2")
    5700                      .dwattr $C$DW$364, DW_AT_const_value(0x104)
    5701                      .dwattr $C$DW$364, DW_AT_decl_file("C:\Users\ZXC\Documents\mcu project\ti-project\clllc_nonpowerSUITE
    5702                      .dwattr $C$DW$364, DW_AT_decl_line(0x141)
    5703                      .dwattr $C$DW$364, DW_AT_decl_column(0x05)
    5704              
    5705              $C$DW$365       .dwtag  DW_TAG_enumerator
    5706                      .dwattr $C$DW$365, DW_AT_name("SYSCTL_PERIPH_CLK_SD1")
    5707                      .dwattr $C$DW$365, DW_AT_const_value(0x06)
    5708                      .dwattr $C$DW$365, DW_AT_decl_file("C:\Users\ZXC\Documents\mcu project\ti-project\clllc_nonpowerSUITE
    5709                      .dwattr $C$DW$365, DW_AT_decl_line(0x142)
    5710                      .dwattr $C$DW$365, DW_AT_decl_column(0x05)
    5711              
    5712              $C$DW$366       .dwtag  DW_TAG_enumerator
TMS320C2000 Assembler PC v22.6.0 Mon Sep  2 11:55:45 2024

Copyright (c) 1996-2018 Texas Instruments Incorporated
clllc_hal.asm                                                        PAGE  124

    5713                      .dwattr $C$DW$366, DW_AT_name("SYSCTL_PERIPH_CLK_SCIA")
    5714                      .dwattr $C$DW$366, DW_AT_const_value(0x07)
    5715                      .dwattr $C$DW$366, DW_AT_decl_file("C:\Users\ZXC\Documents\mcu project\ti-project\clllc_nonpowerSUITE
    5716                      .dwattr $C$DW$366, DW_AT_decl_line(0x143)
    5717                      .dwattr $C$DW$366, DW_AT_decl_column(0x05)
    5718              
    5719              $C$DW$367       .dwtag  DW_TAG_enumerator
    5720                      .dwattr $C$DW$367, DW_AT_name("SYSCTL_PERIPH_CLK_SCIB")
    5721                      .dwattr $C$DW$367, DW_AT_const_value(0x107)
    5722                      .dwattr $C$DW$367, DW_AT_decl_file("C:\Users\ZXC\Documents\mcu project\ti-project\clllc_nonpowerSUITE
    5723                      .dwattr $C$DW$367, DW_AT_decl_line(0x144)
    5724                      .dwattr $C$DW$367, DW_AT_decl_column(0x05)
    5725              
    5726              $C$DW$368       .dwtag  DW_TAG_enumerator
    5727                      .dwattr $C$DW$368, DW_AT_name("SYSCTL_PERIPH_CLK_SPIA")
    5728                      .dwattr $C$DW$368, DW_AT_const_value(0x08)
    5729                      .dwattr $C$DW$368, DW_AT_decl_file("C:\Users\ZXC\Documents\mcu project\ti-project\clllc_nonpowerSUITE
    5730                      .dwattr $C$DW$368, DW_AT_decl_line(0x145)
    5731                      .dwattr $C$DW$368, DW_AT_decl_column(0x05)
    5732              
    5733              $C$DW$369       .dwtag  DW_TAG_enumerator
    5734                      .dwattr $C$DW$369, DW_AT_name("SYSCTL_PERIPH_CLK_SPIB")
    5735                      .dwattr $C$DW$369, DW_AT_const_value(0x108)
    5736                      .dwattr $C$DW$369, DW_AT_decl_file("C:\Users\ZXC\Documents\mcu project\ti-project\clllc_nonpowerSUITE
    5737                      .dwattr $C$DW$369, DW_AT_decl_line(0x146)
    5738                      .dwattr $C$DW$369, DW_AT_decl_column(0x05)
    5739              
    5740              $C$DW$370       .dwtag  DW_TAG_enumerator
    5741                      .dwattr $C$DW$370, DW_AT_name("SYSCTL_PERIPH_CLK_I2CA")
    5742                      .dwattr $C$DW$370, DW_AT_const_value(0x09)
    5743                      .dwattr $C$DW$370, DW_AT_decl_file("C:\Users\ZXC\Documents\mcu project\ti-project\clllc_nonpowerSUITE
    5744                      .dwattr $C$DW$370, DW_AT_decl_line(0x147)
    5745                      .dwattr $C$DW$370, DW_AT_decl_column(0x05)
    5746              
    5747              $C$DW$371       .dwtag  DW_TAG_enumerator
    5748                      .dwattr $C$DW$371, DW_AT_name("SYSCTL_PERIPH_CLK_CANA")
    5749                      .dwattr $C$DW$371, DW_AT_const_value(0x0a)
    5750                      .dwattr $C$DW$371, DW_AT_decl_file("C:\Users\ZXC\Documents\mcu project\ti-project\clllc_nonpowerSUITE
    5751                      .dwattr $C$DW$371, DW_AT_decl_line(0x148)
    5752                      .dwattr $C$DW$371, DW_AT_decl_column(0x05)
    5753              
    5754              $C$DW$372       .dwtag  DW_TAG_enumerator
    5755                      .dwattr $C$DW$372, DW_AT_name("SYSCTL_PERIPH_CLK_CANB")
    5756                      .dwattr $C$DW$372, DW_AT_const_value(0x10a)
    5757                      .dwattr $C$DW$372, DW_AT_decl_file("C:\Users\ZXC\Documents\mcu project\ti-project\clllc_nonpowerSUITE
    5758                      .dwattr $C$DW$372, DW_AT_decl_line(0x149)
    5759                      .dwattr $C$DW$372, DW_AT_decl_column(0x05)
    5760              
    5761              $C$DW$373       .dwtag  DW_TAG_enumerator
    5762                      .dwattr $C$DW$373, DW_AT_name("SYSCTL_PERIPH_CLK_ADCA")
    5763                      .dwattr $C$DW$373, DW_AT_const_value(0x0d)
    5764                      .dwattr $C$DW$373, DW_AT_decl_file("C:\Users\ZXC\Documents\mcu project\ti-project\clllc_nonpowerSUITE
    5765                      .dwattr $C$DW$373, DW_AT_decl_line(0x14a)
    5766                      .dwattr $C$DW$373, DW_AT_decl_column(0x05)
    5767              
TMS320C2000 Assembler PC v22.6.0 Mon Sep  2 11:55:45 2024

Copyright (c) 1996-2018 Texas Instruments Incorporated
clllc_hal.asm                                                        PAGE  125

    5768              $C$DW$374       .dwtag  DW_TAG_enumerator
    5769                      .dwattr $C$DW$374, DW_AT_name("SYSCTL_PERIPH_CLK_ADCB")
    5770                      .dwattr $C$DW$374, DW_AT_const_value(0x10d)
    5771                      .dwattr $C$DW$374, DW_AT_decl_file("C:\Users\ZXC\Documents\mcu project\ti-project\clllc_nonpowerSUITE
    5772                      .dwattr $C$DW$374, DW_AT_decl_line(0x14b)
    5773                      .dwattr $C$DW$374, DW_AT_decl_column(0x05)
    5774              
    5775              $C$DW$375       .dwtag  DW_TAG_enumerator
    5776                      .dwattr $C$DW$375, DW_AT_name("SYSCTL_PERIPH_CLK_ADCC")
    5777                      .dwattr $C$DW$375, DW_AT_const_value(0x20d)
    5778                      .dwattr $C$DW$375, DW_AT_decl_file("C:\Users\ZXC\Documents\mcu project\ti-project\clllc_nonpowerSUITE
    5779                      .dwattr $C$DW$375, DW_AT_decl_line(0x14c)
    5780                      .dwattr $C$DW$375, DW_AT_decl_column(0x05)
    5781              
    5782              $C$DW$376       .dwtag  DW_TAG_enumerator
    5783                      .dwattr $C$DW$376, DW_AT_name("SYSCTL_PERIPH_CLK_CMPSS1")
    5784                      .dwattr $C$DW$376, DW_AT_const_value(0x0e)
    5785                      .dwattr $C$DW$376, DW_AT_decl_file("C:\Users\ZXC\Documents\mcu project\ti-project\clllc_nonpowerSUITE
    5786                      .dwattr $C$DW$376, DW_AT_decl_line(0x14d)
    5787                      .dwattr $C$DW$376, DW_AT_decl_column(0x05)
    5788              
    5789              $C$DW$377       .dwtag  DW_TAG_enumerator
    5790                      .dwattr $C$DW$377, DW_AT_name("SYSCTL_PERIPH_CLK_CMPSS2")
    5791                      .dwattr $C$DW$377, DW_AT_const_value(0x10e)
    5792                      .dwattr $C$DW$377, DW_AT_decl_file("C:\Users\ZXC\Documents\mcu project\ti-project\clllc_nonpowerSUITE
    5793                      .dwattr $C$DW$377, DW_AT_decl_line(0x14e)
    5794                      .dwattr $C$DW$377, DW_AT_decl_column(0x05)
    5795              
    5796              $C$DW$378       .dwtag  DW_TAG_enumerator
    5797                      .dwattr $C$DW$378, DW_AT_name("SYSCTL_PERIPH_CLK_CMPSS3")
    5798                      .dwattr $C$DW$378, DW_AT_const_value(0x20e)
    5799                      .dwattr $C$DW$378, DW_AT_decl_file("C:\Users\ZXC\Documents\mcu project\ti-project\clllc_nonpowerSUITE
    5800                      .dwattr $C$DW$378, DW_AT_decl_line(0x14f)
    5801                      .dwattr $C$DW$378, DW_AT_decl_column(0x05)
    5802              
    5803              $C$DW$379       .dwtag  DW_TAG_enumerator
    5804                      .dwattr $C$DW$379, DW_AT_name("SYSCTL_PERIPH_CLK_CMPSS4")
    5805                      .dwattr $C$DW$379, DW_AT_const_value(0x30e)
    5806                      .dwattr $C$DW$379, DW_AT_decl_file("C:\Users\ZXC\Documents\mcu project\ti-project\clllc_nonpowerSUITE
    5807                      .dwattr $C$DW$379, DW_AT_decl_line(0x150)
    5808                      .dwattr $C$DW$379, DW_AT_decl_column(0x05)
    5809              
    5810              $C$DW$380       .dwtag  DW_TAG_enumerator
    5811                      .dwattr $C$DW$380, DW_AT_name("SYSCTL_PERIPH_CLK_CMPSS5")
    5812                      .dwattr $C$DW$380, DW_AT_const_value(0x40e)
    5813                      .dwattr $C$DW$380, DW_AT_decl_file("C:\Users\ZXC\Documents\mcu project\ti-project\clllc_nonpowerSUITE
    5814                      .dwattr $C$DW$380, DW_AT_decl_line(0x151)
    5815                      .dwattr $C$DW$380, DW_AT_decl_column(0x05)
    5816              
    5817              $C$DW$381       .dwtag  DW_TAG_enumerator
    5818                      .dwattr $C$DW$381, DW_AT_name("SYSCTL_PERIPH_CLK_CMPSS6")
    5819                      .dwattr $C$DW$381, DW_AT_const_value(0x50e)
    5820                      .dwattr $C$DW$381, DW_AT_decl_file("C:\Users\ZXC\Documents\mcu project\ti-project\clllc_nonpowerSUITE
    5821                      .dwattr $C$DW$381, DW_AT_decl_line(0x152)
    5822                      .dwattr $C$DW$381, DW_AT_decl_column(0x05)
TMS320C2000 Assembler PC v22.6.0 Mon Sep  2 11:55:45 2024

Copyright (c) 1996-2018 Texas Instruments Incorporated
clllc_hal.asm                                                        PAGE  126

    5823              
    5824              $C$DW$382       .dwtag  DW_TAG_enumerator
    5825                      .dwattr $C$DW$382, DW_AT_name("SYSCTL_PERIPH_CLK_CMPSS7")
    5826                      .dwattr $C$DW$382, DW_AT_const_value(0x60e)
    5827                      .dwattr $C$DW$382, DW_AT_decl_file("C:\Users\ZXC\Documents\mcu project\ti-project\clllc_nonpowerSUITE
    5828                      .dwattr $C$DW$382, DW_AT_decl_line(0x153)
    5829                      .dwattr $C$DW$382, DW_AT_decl_column(0x05)
    5830              
    5831              $C$DW$383       .dwtag  DW_TAG_enumerator
    5832                      .dwattr $C$DW$383, DW_AT_name("SYSCTL_PERIPH_CLK_PGA1")
    5833                      .dwattr $C$DW$383, DW_AT_const_value(0x0f)
    5834                      .dwattr $C$DW$383, DW_AT_decl_file("C:\Users\ZXC\Documents\mcu project\ti-project\clllc_nonpowerSUITE
    5835                      .dwattr $C$DW$383, DW_AT_decl_line(0x154)
    5836                      .dwattr $C$DW$383, DW_AT_decl_column(0x05)
    5837              
    5838              $C$DW$384       .dwtag  DW_TAG_enumerator
    5839                      .dwattr $C$DW$384, DW_AT_name("SYSCTL_PERIPH_CLK_PGA2")
    5840                      .dwattr $C$DW$384, DW_AT_const_value(0x10f)
    5841                      .dwattr $C$DW$384, DW_AT_decl_file("C:\Users\ZXC\Documents\mcu project\ti-project\clllc_nonpowerSUITE
    5842                      .dwattr $C$DW$384, DW_AT_decl_line(0x155)
    5843                      .dwattr $C$DW$384, DW_AT_decl_column(0x05)
    5844              
    5845              $C$DW$385       .dwtag  DW_TAG_enumerator
    5846                      .dwattr $C$DW$385, DW_AT_name("SYSCTL_PERIPH_CLK_PGA3")
    5847                      .dwattr $C$DW$385, DW_AT_const_value(0x20f)
    5848                      .dwattr $C$DW$385, DW_AT_decl_file("C:\Users\ZXC\Documents\mcu project\ti-project\clllc_nonpowerSUITE
    5849                      .dwattr $C$DW$385, DW_AT_decl_line(0x156)
    5850                      .dwattr $C$DW$385, DW_AT_decl_column(0x05)
    5851              
    5852              $C$DW$386       .dwtag  DW_TAG_enumerator
    5853                      .dwattr $C$DW$386, DW_AT_name("SYSCTL_PERIPH_CLK_PGA4")
    5854                      .dwattr $C$DW$386, DW_AT_const_value(0x30f)
    5855                      .dwattr $C$DW$386, DW_AT_decl_file("C:\Users\ZXC\Documents\mcu project\ti-project\clllc_nonpowerSUITE
    5856                      .dwattr $C$DW$386, DW_AT_decl_line(0x157)
    5857                      .dwattr $C$DW$386, DW_AT_decl_column(0x05)
    5858              
    5859              $C$DW$387       .dwtag  DW_TAG_enumerator
    5860                      .dwattr $C$DW$387, DW_AT_name("SYSCTL_PERIPH_CLK_PGA5")
    5861                      .dwattr $C$DW$387, DW_AT_const_value(0x40f)
    5862                      .dwattr $C$DW$387, DW_AT_decl_file("C:\Users\ZXC\Documents\mcu project\ti-project\clllc_nonpowerSUITE
    5863                      .dwattr $C$DW$387, DW_AT_decl_line(0x158)
    5864                      .dwattr $C$DW$387, DW_AT_decl_column(0x05)
    5865              
    5866              $C$DW$388       .dwtag  DW_TAG_enumerator
    5867                      .dwattr $C$DW$388, DW_AT_name("SYSCTL_PERIPH_CLK_PGA6")
    5868                      .dwattr $C$DW$388, DW_AT_const_value(0x50f)
    5869                      .dwattr $C$DW$388, DW_AT_decl_file("C:\Users\ZXC\Documents\mcu project\ti-project\clllc_nonpowerSUITE
    5870                      .dwattr $C$DW$388, DW_AT_decl_line(0x159)
    5871                      .dwattr $C$DW$388, DW_AT_decl_column(0x05)
    5872              
    5873              $C$DW$389       .dwtag  DW_TAG_enumerator
    5874                      .dwattr $C$DW$389, DW_AT_name("SYSCTL_PERIPH_CLK_PGA7")
    5875                      .dwattr $C$DW$389, DW_AT_const_value(0x60f)
    5876                      .dwattr $C$DW$389, DW_AT_decl_file("C:\Users\ZXC\Documents\mcu project\ti-project\clllc_nonpowerSUITE
    5877                      .dwattr $C$DW$389, DW_AT_decl_line(0x15a)
TMS320C2000 Assembler PC v22.6.0 Mon Sep  2 11:55:45 2024

Copyright (c) 1996-2018 Texas Instruments Incorporated
clllc_hal.asm                                                        PAGE  127

    5878                      .dwattr $C$DW$389, DW_AT_decl_column(0x05)
    5879              
    5880              $C$DW$390       .dwtag  DW_TAG_enumerator
    5881                      .dwattr $C$DW$390, DW_AT_name("SYSCTL_PERIPH_CLK_DACA")
    5882                      .dwattr $C$DW$390, DW_AT_const_value(0x1010)
    5883                      .dwattr $C$DW$390, DW_AT_decl_file("C:\Users\ZXC\Documents\mcu project\ti-project\clllc_nonpowerSUITE
    5884                      .dwattr $C$DW$390, DW_AT_decl_line(0x15b)
    5885                      .dwattr $C$DW$390, DW_AT_decl_column(0x05)
    5886              
    5887              $C$DW$391       .dwtag  DW_TAG_enumerator
    5888                      .dwattr $C$DW$391, DW_AT_name("SYSCTL_PERIPH_CLK_DACB")
    5889                      .dwattr $C$DW$391, DW_AT_const_value(0x1110)
    5890                      .dwattr $C$DW$391, DW_AT_decl_file("C:\Users\ZXC\Documents\mcu project\ti-project\clllc_nonpowerSUITE
    5891                      .dwattr $C$DW$391, DW_AT_decl_line(0x15c)
    5892                      .dwattr $C$DW$391, DW_AT_decl_column(0x05)
    5893              
    5894              $C$DW$392       .dwtag  DW_TAG_enumerator
    5895                      .dwattr $C$DW$392, DW_AT_name("SYSCTL_PERIPH_CLK_CLB1")
    5896                      .dwattr $C$DW$392, DW_AT_const_value(0x11)
    5897                      .dwattr $C$DW$392, DW_AT_decl_file("C:\Users\ZXC\Documents\mcu project\ti-project\clllc_nonpowerSUITE
    5898                      .dwattr $C$DW$392, DW_AT_decl_line(0x15d)
    5899                      .dwattr $C$DW$392, DW_AT_decl_column(0x05)
    5900              
    5901              $C$DW$393       .dwtag  DW_TAG_enumerator
    5902                      .dwattr $C$DW$393, DW_AT_name("SYSCTL_PERIPH_CLK_CLB2")
    5903                      .dwattr $C$DW$393, DW_AT_const_value(0x111)
    5904                      .dwattr $C$DW$393, DW_AT_decl_file("C:\Users\ZXC\Documents\mcu project\ti-project\clllc_nonpowerSUITE
    5905                      .dwattr $C$DW$393, DW_AT_decl_line(0x15e)
    5906                      .dwattr $C$DW$393, DW_AT_decl_column(0x05)
    5907              
    5908              $C$DW$394       .dwtag  DW_TAG_enumerator
    5909                      .dwattr $C$DW$394, DW_AT_name("SYSCTL_PERIPH_CLK_CLB3")
    5910                      .dwattr $C$DW$394, DW_AT_const_value(0x211)
    5911                      .dwattr $C$DW$394, DW_AT_decl_file("C:\Users\ZXC\Documents\mcu project\ti-project\clllc_nonpowerSUITE
    5912                      .dwattr $C$DW$394, DW_AT_decl_line(0x15f)
    5913                      .dwattr $C$DW$394, DW_AT_decl_column(0x05)
    5914              
    5915              $C$DW$395       .dwtag  DW_TAG_enumerator
    5916                      .dwattr $C$DW$395, DW_AT_name("SYSCTL_PERIPH_CLK_CLB4")
    5917                      .dwattr $C$DW$395, DW_AT_const_value(0x311)
    5918                      .dwattr $C$DW$395, DW_AT_decl_file("C:\Users\ZXC\Documents\mcu project\ti-project\clllc_nonpowerSUITE
    5919                      .dwattr $C$DW$395, DW_AT_decl_line(0x160)
    5920                      .dwattr $C$DW$395, DW_AT_decl_column(0x05)
    5921              
    5922              $C$DW$396       .dwtag  DW_TAG_enumerator
    5923                      .dwattr $C$DW$396, DW_AT_name("SYSCTL_PERIPH_CLK_FSITXA")
    5924                      .dwattr $C$DW$396, DW_AT_const_value(0x12)
    5925                      .dwattr $C$DW$396, DW_AT_decl_file("C:\Users\ZXC\Documents\mcu project\ti-project\clllc_nonpowerSUITE
    5926                      .dwattr $C$DW$396, DW_AT_decl_line(0x161)
    5927                      .dwattr $C$DW$396, DW_AT_decl_column(0x05)
    5928              
    5929              $C$DW$397       .dwtag  DW_TAG_enumerator
    5930                      .dwattr $C$DW$397, DW_AT_name("SYSCTL_PERIPH_CLK_FSIRXA")
    5931                      .dwattr $C$DW$397, DW_AT_const_value(0x112)
    5932                      .dwattr $C$DW$397, DW_AT_decl_file("C:\Users\ZXC\Documents\mcu project\ti-project\clllc_nonpowerSUITE
TMS320C2000 Assembler PC v22.6.0 Mon Sep  2 11:55:45 2024

Copyright (c) 1996-2018 Texas Instruments Incorporated
clllc_hal.asm                                                        PAGE  128

    5933                      .dwattr $C$DW$397, DW_AT_decl_line(0x162)
    5934                      .dwattr $C$DW$397, DW_AT_decl_column(0x05)
    5935              
    5936              $C$DW$398       .dwtag  DW_TAG_enumerator
    5937                      .dwattr $C$DW$398, DW_AT_name("SYSCTL_PERIPH_CLK_LINA")
    5938                      .dwattr $C$DW$398, DW_AT_const_value(0x13)
    5939                      .dwattr $C$DW$398, DW_AT_decl_file("C:\Users\ZXC\Documents\mcu project\ti-project\clllc_nonpowerSUITE
    5940                      .dwattr $C$DW$398, DW_AT_decl_line(0x163)
    5941                      .dwattr $C$DW$398, DW_AT_decl_column(0x05)
    5942              
    5943              $C$DW$399       .dwtag  DW_TAG_enumerator
    5944                      .dwattr $C$DW$399, DW_AT_name("SYSCTL_PERIPH_CLK_PMBUSA")
    5945                      .dwattr $C$DW$399, DW_AT_const_value(0x14)
    5946                      .dwattr $C$DW$399, DW_AT_decl_file("C:\Users\ZXC\Documents\mcu project\ti-project\clllc_nonpowerSUITE
    5947                      .dwattr $C$DW$399, DW_AT_decl_line(0x164)
    5948                      .dwattr $C$DW$399, DW_AT_decl_column(0x05)
    5949              
    5950              $C$DW$400       .dwtag  DW_TAG_enumerator
    5951                      .dwattr $C$DW$400, DW_AT_name("SYSCTL_PERIPH_CLK_DCC0")
    5952                      .dwattr $C$DW$400, DW_AT_const_value(0x15)
    5953                      .dwattr $C$DW$400, DW_AT_decl_file("C:\Users\ZXC\Documents\mcu project\ti-project\clllc_nonpowerSUITE
    5954                      .dwattr $C$DW$400, DW_AT_decl_line(0x165)
    5955                      .dwattr $C$DW$400, DW_AT_decl_column(0x05)
    5956              
    5957                      .dwattr $C$DW$T$31, DW_AT_decl_file("C:\Users\ZXC\Documents\mcu project\ti-project\clllc_nonpowerSUIT
    5958                      .dwattr $C$DW$T$31, DW_AT_decl_line(0x129)
    5959                      .dwattr $C$DW$T$31, DW_AT_decl_column(0x01)
    5960                      .dwendtag $C$DW$T$31
    5961              
    5962                      .dwendtag $C$DW$TU$31
    5963              
    5964              
    5965              $C$DW$TU$32     .dwtag  DW_TAG_type_unit
    5966                      .dwmtype  $C$DW$T$32
    5967              $C$DW$T$32      .dwtag  DW_TAG_typedef
    5968                      .dwattr $C$DW$T$32, DW_AT_name("SysCtl_PeripheralPCLOCKCR")
    5969                      .dwattr $C$DW$T$32, DW_AT_type(*$C$DW$T$31)
    5970                      .dwattr $C$DW$T$32, DW_AT_decl_file("C:\Users\ZXC\Documents\mcu project\ti-project\clllc_nonpowerSUIT
    5971                      .dwattr $C$DW$T$32, DW_AT_decl_line(0x166)
    5972                      .dwattr $C$DW$T$32, DW_AT_decl_column(0x03)
    5973              
    5974                      .dwendtag $C$DW$TU$32
    5975              
    5976              
    5977              $C$DW$TU$33     .dwtag  DW_TAG_type_unit
    5978                      .dwmtype  $C$DW$T$33
    5979              
    5980              $C$DW$T$33      .dwtag  DW_TAG_enumeration_type
    5981                      .dwattr $C$DW$T$33, DW_AT_byte_size(0x01)
    5982              $C$DW$401       .dwtag  DW_TAG_enumerator
    5983                      .dwattr $C$DW$401, DW_AT_name("SYSCTL_SYNC_IN_EPWM4")
    5984                      .dwattr $C$DW$401, DW_AT_const_value(0x00)
    5985                      .dwattr $C$DW$401, DW_AT_decl_file("C:\Users\ZXC\Documents\mcu project\ti-project\clllc_nonpowerSUITE
    5986                      .dwattr $C$DW$401, DW_AT_decl_line(0x26c)
    5987                      .dwattr $C$DW$401, DW_AT_decl_column(0x05)
TMS320C2000 Assembler PC v22.6.0 Mon Sep  2 11:55:45 2024

Copyright (c) 1996-2018 Texas Instruments Incorporated
clllc_hal.asm                                                        PAGE  129

    5988              
    5989              $C$DW$402       .dwtag  DW_TAG_enumerator
    5990                      .dwattr $C$DW$402, DW_AT_name("SYSCTL_SYNC_IN_EPWM7")
    5991                      .dwattr $C$DW$402, DW_AT_const_value(0x03)
    5992                      .dwattr $C$DW$402, DW_AT_decl_file("C:\Users\ZXC\Documents\mcu project\ti-project\clllc_nonpowerSUITE
    5993                      .dwattr $C$DW$402, DW_AT_decl_line(0x26d)
    5994                      .dwattr $C$DW$402, DW_AT_decl_column(0x05)
    5995              
    5996              $C$DW$403       .dwtag  DW_TAG_enumerator
    5997                      .dwattr $C$DW$403, DW_AT_name("SYSCTL_SYNC_IN_ECAP1")
    5998                      .dwattr $C$DW$403, DW_AT_const_value(0x09)
    5999                      .dwattr $C$DW$403, DW_AT_decl_file("C:\Users\ZXC\Documents\mcu project\ti-project\clllc_nonpowerSUITE
    6000                      .dwattr $C$DW$403, DW_AT_decl_line(0x26e)
    6001                      .dwattr $C$DW$403, DW_AT_decl_column(0x05)
    6002              
    6003              $C$DW$404       .dwtag  DW_TAG_enumerator
    6004                      .dwattr $C$DW$404, DW_AT_name("SYSCTL_SYNC_IN_ECAP4")
    6005                      .dwattr $C$DW$404, DW_AT_const_value(0x0c)
    6006                      .dwattr $C$DW$404, DW_AT_decl_file("C:\Users\ZXC\Documents\mcu project\ti-project\clllc_nonpowerSUITE
    6007                      .dwattr $C$DW$404, DW_AT_decl_line(0x26f)
    6008                      .dwattr $C$DW$404, DW_AT_decl_column(0x05)
    6009              
    6010              $C$DW$405       .dwtag  DW_TAG_enumerator
    6011                      .dwattr $C$DW$405, DW_AT_name("SYSCTL_SYNC_IN_ECAP6")
    6012                      .dwattr $C$DW$405, DW_AT_const_value(0x0f)
    6013                      .dwattr $C$DW$405, DW_AT_decl_file("C:\Users\ZXC\Documents\mcu project\ti-project\clllc_nonpowerSUITE
    6014                      .dwattr $C$DW$405, DW_AT_decl_line(0x270)
    6015                      .dwattr $C$DW$405, DW_AT_decl_column(0x05)
    6016              
    6017              $C$DW$406       .dwtag  DW_TAG_enumerator
    6018                      .dwattr $C$DW$406, DW_AT_name("SYSCTL_SYNC_IN_EPWM1")
    6019                      .dwattr $C$DW$406, DW_AT_const_value(0x1d)
    6020                      .dwattr $C$DW$406, DW_AT_decl_file("C:\Users\ZXC\Documents\mcu project\ti-project\clllc_nonpowerSUITE
    6021                      .dwattr $C$DW$406, DW_AT_decl_line(0x271)
    6022                      .dwattr $C$DW$406, DW_AT_decl_column(0x05)
    6023              
    6024                      .dwattr $C$DW$T$33, DW_AT_decl_file("C:\Users\ZXC\Documents\mcu project\ti-project\clllc_nonpowerSUIT
    6025                      .dwattr $C$DW$T$33, DW_AT_decl_line(0x26b)
    6026                      .dwattr $C$DW$T$33, DW_AT_decl_column(0x01)
    6027                      .dwendtag $C$DW$T$33
    6028              
    6029                      .dwendtag $C$DW$TU$33
    6030              
    6031              
    6032              $C$DW$TU$34     .dwtag  DW_TAG_type_unit
    6033                      .dwmtype  $C$DW$T$34
    6034              $C$DW$T$34      .dwtag  DW_TAG_typedef
    6035                      .dwattr $C$DW$T$34, DW_AT_name("SysCtl_SyncInput")
    6036                      .dwattr $C$DW$T$34, DW_AT_type(*$C$DW$T$33)
    6037                      .dwattr $C$DW$T$34, DW_AT_decl_file("C:\Users\ZXC\Documents\mcu project\ti-project\clllc_nonpowerSUIT
    6038                      .dwattr $C$DW$T$34, DW_AT_decl_line(0x272)
    6039                      .dwattr $C$DW$T$34, DW_AT_decl_column(0x03)
    6040              
    6041                      .dwendtag $C$DW$TU$34
    6042              
TMS320C2000 Assembler PC v22.6.0 Mon Sep  2 11:55:45 2024

Copyright (c) 1996-2018 Texas Instruments Incorporated
clllc_hal.asm                                                        PAGE  130

    6043              
    6044              $C$DW$TU$35     .dwtag  DW_TAG_type_unit
    6045                      .dwmtype  $C$DW$T$35
    6046              
    6047              $C$DW$T$35      .dwtag  DW_TAG_enumeration_type
    6048                      .dwattr $C$DW$T$35, DW_AT_byte_size(0x01)
    6049              $C$DW$407       .dwtag  DW_TAG_enumerator
    6050                      .dwattr $C$DW$407, DW_AT_name("SYSCTL_SYNC_IN_SRC_EPWM1SYNCOUT")
    6051                      .dwattr $C$DW$407, DW_AT_const_value(0x00)
    6052                      .dwattr $C$DW$407, DW_AT_decl_file("C:\Users\ZXC\Documents\mcu project\ti-project\clllc_nonpowerSUITE
    6053                      .dwattr $C$DW$407, DW_AT_decl_line(0x27f)
    6054                      .dwattr $C$DW$407, DW_AT_decl_column(0x05)
    6055              
    6056              $C$DW$408       .dwtag  DW_TAG_enumerator
    6057                      .dwattr $C$DW$408, DW_AT_name("SYSCTL_SYNC_IN_SRC_EPWM4SYNCOUT")
    6058                      .dwattr $C$DW$408, DW_AT_const_value(0x01)
    6059                      .dwattr $C$DW$408, DW_AT_decl_file("C:\Users\ZXC\Documents\mcu project\ti-project\clllc_nonpowerSUITE
    6060                      .dwattr $C$DW$408, DW_AT_decl_line(0x281)
    6061                      .dwattr $C$DW$408, DW_AT_decl_column(0x05)
    6062              
    6063              $C$DW$409       .dwtag  DW_TAG_enumerator
    6064                      .dwattr $C$DW$409, DW_AT_name("SYSCTL_SYNC_IN_SRC_EPWM7SYNCOUT")
    6065                      .dwattr $C$DW$409, DW_AT_const_value(0x02)
    6066                      .dwattr $C$DW$409, DW_AT_decl_file("C:\Users\ZXC\Documents\mcu project\ti-project\clllc_nonpowerSUITE
    6067                      .dwattr $C$DW$409, DW_AT_decl_line(0x283)
    6068                      .dwattr $C$DW$409, DW_AT_decl_column(0x05)
    6069              
    6070              $C$DW$410       .dwtag  DW_TAG_enumerator
    6071                      .dwattr $C$DW$410, DW_AT_name("SYSCTL_SYNC_IN_SRC_ECAP1SYNCOUT")
    6072                      .dwattr $C$DW$410, DW_AT_const_value(0x04)
    6073                      .dwattr $C$DW$410, DW_AT_decl_file("C:\Users\ZXC\Documents\mcu project\ti-project\clllc_nonpowerSUITE
    6074                      .dwattr $C$DW$410, DW_AT_decl_line(0x285)
    6075                      .dwattr $C$DW$410, DW_AT_decl_column(0x05)
    6076              
    6077              $C$DW$411       .dwtag  DW_TAG_enumerator
    6078                      .dwattr $C$DW$411, DW_AT_name("SYSCTL_SYNC_IN_SRC_EXTSYNCIN1")
    6079                      .dwattr $C$DW$411, DW_AT_const_value(0x05)
    6080                      .dwattr $C$DW$411, DW_AT_decl_file("C:\Users\ZXC\Documents\mcu project\ti-project\clllc_nonpowerSUITE
    6081                      .dwattr $C$DW$411, DW_AT_decl_line(0x287)
    6082                      .dwattr $C$DW$411, DW_AT_decl_column(0x05)
    6083              
    6084              $C$DW$412       .dwtag  DW_TAG_enumerator
    6085                      .dwattr $C$DW$412, DW_AT_name("SYSCTL_SYNC_IN_SRC_EXTSYNCIN2")
    6086                      .dwattr $C$DW$412, DW_AT_const_value(0x06)
    6087                      .dwattr $C$DW$412, DW_AT_decl_file("C:\Users\ZXC\Documents\mcu project\ti-project\clllc_nonpowerSUITE
    6088                      .dwattr $C$DW$412, DW_AT_decl_line(0x289)
    6089                      .dwattr $C$DW$412, DW_AT_decl_column(0x05)
    6090              
    6091                      .dwattr $C$DW$T$35, DW_AT_decl_file("C:\Users\ZXC\Documents\mcu project\ti-project\clllc_nonpowerSUIT
    6092                      .dwattr $C$DW$T$35, DW_AT_decl_line(0x27d)
    6093                      .dwattr $C$DW$T$35, DW_AT_decl_column(0x01)
    6094                      .dwendtag $C$DW$T$35
    6095              
    6096                      .dwendtag $C$DW$TU$35
    6097              
TMS320C2000 Assembler PC v22.6.0 Mon Sep  2 11:55:45 2024

Copyright (c) 1996-2018 Texas Instruments Incorporated
clllc_hal.asm                                                        PAGE  131

    6098              
    6099              $C$DW$TU$36     .dwtag  DW_TAG_type_unit
    6100                      .dwmtype  $C$DW$T$36
    6101              $C$DW$T$36      .dwtag  DW_TAG_typedef
    6102                      .dwattr $C$DW$T$36, DW_AT_name("SysCtl_SyncInputSource")
    6103                      .dwattr $C$DW$T$36, DW_AT_type(*$C$DW$T$35)
    6104                      .dwattr $C$DW$T$36, DW_AT_decl_file("C:\Users\ZXC\Documents\mcu project\ti-project\clllc_nonpowerSUIT
    6105                      .dwattr $C$DW$T$36, DW_AT_decl_line(0x28a)
    6106                      .dwattr $C$DW$T$36, DW_AT_decl_column(0x03)
    6107              
    6108                      .dwendtag $C$DW$TU$36
    6109              
    6110              
    6111              $C$DW$TU$37     .dwtag  DW_TAG_type_unit
    6112                      .dwmtype  $C$DW$T$37
    6113              
    6114              $C$DW$T$37      .dwtag  DW_TAG_enumeration_type
    6115                      .dwattr $C$DW$T$37, DW_AT_byte_size(0x01)
    6116              $C$DW$413       .dwtag  DW_TAG_enumerator
    6117                      .dwattr $C$DW$413, DW_AT_name("ASYSCTL_CMPHPMUX_SELECT_1")
    6118                      .dwattr $C$DW$413, DW_AT_const_value(0x00)
    6119                      .dwattr $C$DW$413, DW_AT_decl_file("C:/Users/ZXC/Documents/mcu project/ti-project/clllc_nonpowerSUITE
    6120                      .dwattr $C$DW$413, DW_AT_decl_line(0x79)
    6121                      .dwattr $C$DW$413, DW_AT_decl_column(0x05)
    6122              
    6123              $C$DW$414       .dwtag  DW_TAG_enumerator
    6124                      .dwattr $C$DW$414, DW_AT_name("ASYSCTL_CMPHPMUX_SELECT_2")
    6125                      .dwattr $C$DW$414, DW_AT_const_value(0x03)
    6126                      .dwattr $C$DW$414, DW_AT_decl_file("C:/Users/ZXC/Documents/mcu project/ti-project/clllc_nonpowerSUITE
    6127                      .dwattr $C$DW$414, DW_AT_decl_line(0x7a)
    6128                      .dwattr $C$DW$414, DW_AT_decl_column(0x05)
    6129              
    6130              $C$DW$415       .dwtag  DW_TAG_enumerator
    6131                      .dwattr $C$DW$415, DW_AT_name("ASYSCTL_CMPHPMUX_SELECT_3")
    6132                      .dwattr $C$DW$415, DW_AT_const_value(0x06)
    6133                      .dwattr $C$DW$415, DW_AT_decl_file("C:/Users/ZXC/Documents/mcu project/ti-project/clllc_nonpowerSUITE
    6134                      .dwattr $C$DW$415, DW_AT_decl_line(0x7b)
    6135                      .dwattr $C$DW$415, DW_AT_decl_column(0x05)
    6136              
    6137              $C$DW$416       .dwtag  DW_TAG_enumerator
    6138                      .dwattr $C$DW$416, DW_AT_name("ASYSCTL_CMPHPMUX_SELECT_4")
    6139                      .dwattr $C$DW$416, DW_AT_const_value(0x09)
    6140                      .dwattr $C$DW$416, DW_AT_decl_file("C:/Users/ZXC/Documents/mcu project/ti-project/clllc_nonpowerSUITE
    6141                      .dwattr $C$DW$416, DW_AT_decl_line(0x7c)
    6142                      .dwattr $C$DW$416, DW_AT_decl_column(0x05)
    6143              
    6144              $C$DW$417       .dwtag  DW_TAG_enumerator
    6145                      .dwattr $C$DW$417, DW_AT_name("ASYSCTL_CMPHPMUX_SELECT_5")
    6146                      .dwattr $C$DW$417, DW_AT_const_value(0x0c)
    6147                      .dwattr $C$DW$417, DW_AT_decl_file("C:/Users/ZXC/Documents/mcu project/ti-project/clllc_nonpowerSUITE
    6148                      .dwattr $C$DW$417, DW_AT_decl_line(0x7d)
    6149                      .dwattr $C$DW$417, DW_AT_decl_column(0x05)
    6150              
    6151              $C$DW$418       .dwtag  DW_TAG_enumerator
    6152                      .dwattr $C$DW$418, DW_AT_name("ASYSCTL_CMPHPMUX_SELECT_6")
TMS320C2000 Assembler PC v22.6.0 Mon Sep  2 11:55:45 2024

Copyright (c) 1996-2018 Texas Instruments Incorporated
clllc_hal.asm                                                        PAGE  132

    6153                      .dwattr $C$DW$418, DW_AT_const_value(0x10)
    6154                      .dwattr $C$DW$418, DW_AT_decl_file("C:/Users/ZXC/Documents/mcu project/ti-project/clllc_nonpowerSUITE
    6155                      .dwattr $C$DW$418, DW_AT_decl_line(0x7e)
    6156                      .dwattr $C$DW$418, DW_AT_decl_column(0x05)
    6157              
    6158              $C$DW$419       .dwtag  DW_TAG_enumerator
    6159                      .dwattr $C$DW$419, DW_AT_name("ASYSCTL_CMPHPMUX_SELECT_7")
    6160                      .dwattr $C$DW$419, DW_AT_const_value(0x13)
    6161                      .dwattr $C$DW$419, DW_AT_decl_file("C:/Users/ZXC/Documents/mcu project/ti-project/clllc_nonpowerSUITE
    6162                      .dwattr $C$DW$419, DW_AT_decl_line(0x7f)
    6163                      .dwattr $C$DW$419, DW_AT_decl_column(0x05)
    6164              
    6165                      .dwattr $C$DW$T$37, DW_AT_decl_file("C:/Users/ZXC/Documents/mcu project/ti-project/clllc_nonpowerSUIT
    6166                      .dwattr $C$DW$T$37, DW_AT_decl_line(0x78)
    6167                      .dwattr $C$DW$T$37, DW_AT_decl_column(0x01)
    6168                      .dwendtag $C$DW$T$37
    6169              
    6170                      .dwendtag $C$DW$TU$37
    6171              
    6172              
    6173              $C$DW$TU$38     .dwtag  DW_TAG_type_unit
    6174                      .dwmtype  $C$DW$T$38
    6175              $C$DW$T$38      .dwtag  DW_TAG_typedef
    6176                      .dwattr $C$DW$T$38, DW_AT_name("ASysCtl_CMPHPMuxSelect")
    6177                      .dwattr $C$DW$T$38, DW_AT_type(*$C$DW$T$37)
    6178                      .dwattr $C$DW$T$38, DW_AT_decl_file("C:/Users/ZXC/Documents/mcu project/ti-project/clllc_nonpowerSUIT
    6179                      .dwattr $C$DW$T$38, DW_AT_decl_line(0x80)
    6180                      .dwattr $C$DW$T$38, DW_AT_decl_column(0x03)
    6181              
    6182                      .dwendtag $C$DW$TU$38
    6183              
    6184              
    6185              $C$DW$TU$39     .dwtag  DW_TAG_type_unit
    6186                      .dwmtype  $C$DW$T$39
    6187              
    6188              $C$DW$T$39      .dwtag  DW_TAG_enumeration_type
    6189                      .dwattr $C$DW$T$39, DW_AT_byte_size(0x01)
    6190              $C$DW$420       .dwtag  DW_TAG_enumerator
    6191                      .dwattr $C$DW$420, DW_AT_name("ASYSCTL_CMPLPMUX_SELECT_1")
    6192                      .dwattr $C$DW$420, DW_AT_const_value(0x00)
    6193                      .dwattr $C$DW$420, DW_AT_decl_file("C:/Users/ZXC/Documents/mcu project/ti-project/clllc_nonpowerSUITE
    6194                      .dwattr $C$DW$420, DW_AT_decl_line(0x89)
    6195                      .dwattr $C$DW$420, DW_AT_decl_column(0x05)
    6196              
    6197              $C$DW$421       .dwtag  DW_TAG_enumerator
    6198                      .dwattr $C$DW$421, DW_AT_name("ASYSCTL_CMPLPMUX_SELECT_2")
    6199                      .dwattr $C$DW$421, DW_AT_const_value(0x03)
    6200                      .dwattr $C$DW$421, DW_AT_decl_file("C:/Users/ZXC/Documents/mcu project/ti-project/clllc_nonpowerSUITE
    6201                      .dwattr $C$DW$421, DW_AT_decl_line(0x8a)
    6202                      .dwattr $C$DW$421, DW_AT_decl_column(0x05)
    6203              
    6204              $C$DW$422       .dwtag  DW_TAG_enumerator
    6205                      .dwattr $C$DW$422, DW_AT_name("ASYSCTL_CMPLPMUX_SELECT_3")
    6206                      .dwattr $C$DW$422, DW_AT_const_value(0x06)
    6207                      .dwattr $C$DW$422, DW_AT_decl_file("C:/Users/ZXC/Documents/mcu project/ti-project/clllc_nonpowerSUITE
TMS320C2000 Assembler PC v22.6.0 Mon Sep  2 11:55:45 2024

Copyright (c) 1996-2018 Texas Instruments Incorporated
clllc_hal.asm                                                        PAGE  133

    6208                      .dwattr $C$DW$422, DW_AT_decl_line(0x8b)
    6209                      .dwattr $C$DW$422, DW_AT_decl_column(0x05)
    6210              
    6211              $C$DW$423       .dwtag  DW_TAG_enumerator
    6212                      .dwattr $C$DW$423, DW_AT_name("ASYSCTL_CMPLPMUX_SELECT_4")
    6213                      .dwattr $C$DW$423, DW_AT_const_value(0x09)
    6214                      .dwattr $C$DW$423, DW_AT_decl_file("C:/Users/ZXC/Documents/mcu project/ti-project/clllc_nonpowerSUITE
    6215                      .dwattr $C$DW$423, DW_AT_decl_line(0x8c)
    6216                      .dwattr $C$DW$423, DW_AT_decl_column(0x05)
    6217              
    6218              $C$DW$424       .dwtag  DW_TAG_enumerator
    6219                      .dwattr $C$DW$424, DW_AT_name("ASYSCTL_CMPLPMUX_SELECT_5")
    6220                      .dwattr $C$DW$424, DW_AT_const_value(0x0c)
    6221                      .dwattr $C$DW$424, DW_AT_decl_file("C:/Users/ZXC/Documents/mcu project/ti-project/clllc_nonpowerSUITE
    6222                      .dwattr $C$DW$424, DW_AT_decl_line(0x8d)
    6223                      .dwattr $C$DW$424, DW_AT_decl_column(0x05)
    6224              
    6225              $C$DW$425       .dwtag  DW_TAG_enumerator
    6226                      .dwattr $C$DW$425, DW_AT_name("ASYSCTL_CMPLPMUX_SELECT_6")
    6227                      .dwattr $C$DW$425, DW_AT_const_value(0x10)
    6228                      .dwattr $C$DW$425, DW_AT_decl_file("C:/Users/ZXC/Documents/mcu project/ti-project/clllc_nonpowerSUITE
    6229                      .dwattr $C$DW$425, DW_AT_decl_line(0x8e)
    6230                      .dwattr $C$DW$425, DW_AT_decl_column(0x05)
    6231              
    6232              $C$DW$426       .dwtag  DW_TAG_enumerator
    6233                      .dwattr $C$DW$426, DW_AT_name("ASYSCTL_CMPLPMUX_SELECT_7")
    6234                      .dwattr $C$DW$426, DW_AT_const_value(0x13)
    6235                      .dwattr $C$DW$426, DW_AT_decl_file("C:/Users/ZXC/Documents/mcu project/ti-project/clllc_nonpowerSUITE
    6236                      .dwattr $C$DW$426, DW_AT_decl_line(0x8f)
    6237                      .dwattr $C$DW$426, DW_AT_decl_column(0x05)
    6238              
    6239                      .dwattr $C$DW$T$39, DW_AT_decl_file("C:/Users/ZXC/Documents/mcu project/ti-project/clllc_nonpowerSUIT
    6240                      .dwattr $C$DW$T$39, DW_AT_decl_line(0x88)
    6241                      .dwattr $C$DW$T$39, DW_AT_decl_column(0x01)
    6242                      .dwendtag $C$DW$T$39
    6243              
    6244                      .dwendtag $C$DW$TU$39
    6245              
    6246              
    6247              $C$DW$TU$40     .dwtag  DW_TAG_type_unit
    6248                      .dwmtype  $C$DW$T$40
    6249              $C$DW$T$40      .dwtag  DW_TAG_typedef
    6250                      .dwattr $C$DW$T$40, DW_AT_name("ASysCtl_CMPLPMuxSelect")
    6251                      .dwattr $C$DW$T$40, DW_AT_type(*$C$DW$T$39)
    6252                      .dwattr $C$DW$T$40, DW_AT_decl_file("C:/Users/ZXC/Documents/mcu project/ti-project/clllc_nonpowerSUIT
    6253                      .dwattr $C$DW$T$40, DW_AT_decl_line(0x90)
    6254                      .dwattr $C$DW$T$40, DW_AT_decl_column(0x03)
    6255              
    6256                      .dwendtag $C$DW$TU$40
    6257              
    6258              
    6259              $C$DW$TU$41     .dwtag  DW_TAG_type_unit
    6260                      .dwmtype  $C$DW$T$41
    6261              
    6262              $C$DW$T$41      .dwtag  DW_TAG_enumeration_type
TMS320C2000 Assembler PC v22.6.0 Mon Sep  2 11:55:45 2024

Copyright (c) 1996-2018 Texas Instruments Incorporated
clllc_hal.asm                                                        PAGE  134

    6263                      .dwattr $C$DW$T$41, DW_AT_byte_size(0x01)
    6264              $C$DW$427       .dwtag  DW_TAG_enumerator
    6265                      .dwattr $C$DW$427, DW_AT_name("CPUTIMER_EMULATIONMODE_STOPAFTERNEXTDECREMENT")
    6266                      .dwattr $C$DW$427, DW_AT_const_value(0x00)
    6267                      .dwattr $C$DW$427, DW_AT_decl_file("C:/Users/ZXC/Documents/mcu project/ti-project/clllc_nonpowerSUITE
    6268                      .dwattr $C$DW$427, DW_AT_decl_line(0x56)
    6269                      .dwattr $C$DW$427, DW_AT_decl_column(0x03)
    6270              
    6271              $C$DW$428       .dwtag  DW_TAG_enumerator
    6272                      .dwattr $C$DW$428, DW_AT_name("CPUTIMER_EMULATIONMODE_STOPATZERO")
    6273                      .dwattr $C$DW$428, DW_AT_const_value(0x400)
    6274                      .dwattr $C$DW$428, DW_AT_decl_file("C:/Users/ZXC/Documents/mcu project/ti-project/clllc_nonpowerSUITE
    6275                      .dwattr $C$DW$428, DW_AT_decl_line(0x58)
    6276                      .dwattr $C$DW$428, DW_AT_decl_column(0x03)
    6277              
    6278              $C$DW$429       .dwtag  DW_TAG_enumerator
    6279                      .dwattr $C$DW$429, DW_AT_name("CPUTIMER_EMULATIONMODE_RUNFREE")
    6280                      .dwattr $C$DW$429, DW_AT_const_value(0x800)
    6281                      .dwattr $C$DW$429, DW_AT_decl_file("C:/Users/ZXC/Documents/mcu project/ti-project/clllc_nonpowerSUITE
    6282                      .dwattr $C$DW$429, DW_AT_decl_line(0x5a)
    6283                      .dwattr $C$DW$429, DW_AT_decl_column(0x03)
    6284              
    6285                      .dwattr $C$DW$T$41, DW_AT_decl_file("C:/Users/ZXC/Documents/mcu project/ti-project/clllc_nonpowerSUIT
    6286                      .dwattr $C$DW$T$41, DW_AT_decl_line(0x54)
    6287                      .dwattr $C$DW$T$41, DW_AT_decl_column(0x01)
    6288                      .dwendtag $C$DW$T$41
    6289              
    6290                      .dwendtag $C$DW$TU$41
    6291              
    6292              
    6293              $C$DW$TU$42     .dwtag  DW_TAG_type_unit
    6294                      .dwmtype  $C$DW$T$42
    6295              $C$DW$T$42      .dwtag  DW_TAG_typedef
    6296                      .dwattr $C$DW$T$42, DW_AT_name("CPUTimer_EmulationMode")
    6297                      .dwattr $C$DW$T$42, DW_AT_type(*$C$DW$T$41)
    6298                      .dwattr $C$DW$T$42, DW_AT_decl_file("C:/Users/ZXC/Documents/mcu project/ti-project/clllc_nonpowerSUIT
    6299                      .dwattr $C$DW$T$42, DW_AT_decl_line(0x5b)
    6300                      .dwattr $C$DW$T$42, DW_AT_decl_column(0x02)
    6301              
    6302                      .dwendtag $C$DW$TU$42
    6303              
    6304              
    6305              $C$DW$TU$43     .dwtag  DW_TAG_type_unit
    6306                      .dwmtype  $C$DW$T$43
    6307              
    6308              $C$DW$T$43      .dwtag  DW_TAG_enumeration_type
    6309                      .dwattr $C$DW$T$43, DW_AT_byte_size(0x01)
    6310              $C$DW$430       .dwtag  DW_TAG_enumerator
    6311                      .dwattr $C$DW$430, DW_AT_name("DAC_REF_VDAC")
    6312                      .dwattr $C$DW$430, DW_AT_const_value(0x00)
    6313                      .dwattr $C$DW$430, DW_AT_decl_file("C:/Users/ZXC/Documents/mcu project/ti-project/clllc_nonpowerSUITE
    6314                      .dwattr $C$DW$430, DW_AT_decl_line(0x65)
    6315                      .dwattr $C$DW$430, DW_AT_decl_column(0x05)
    6316              
    6317              $C$DW$431       .dwtag  DW_TAG_enumerator
TMS320C2000 Assembler PC v22.6.0 Mon Sep  2 11:55:45 2024

Copyright (c) 1996-2018 Texas Instruments Incorporated
clllc_hal.asm                                                        PAGE  135

    6318                      .dwattr $C$DW$431, DW_AT_name("DAC_REF_ADC_VREFHI")
    6319                      .dwattr $C$DW$431, DW_AT_const_value(0x01)
    6320                      .dwattr $C$DW$431, DW_AT_decl_file("C:/Users/ZXC/Documents/mcu project/ti-project/clllc_nonpowerSUITE
    6321                      .dwattr $C$DW$431, DW_AT_decl_line(0x66)
    6322                      .dwattr $C$DW$431, DW_AT_decl_column(0x05)
    6323              
    6324                      .dwattr $C$DW$T$43, DW_AT_decl_file("C:/Users/ZXC/Documents/mcu project/ti-project/clllc_nonpowerSUIT
    6325                      .dwattr $C$DW$T$43, DW_AT_decl_line(0x64)
    6326                      .dwattr $C$DW$T$43, DW_AT_decl_column(0x01)
    6327                      .dwendtag $C$DW$T$43
    6328              
    6329                      .dwendtag $C$DW$TU$43
    6330              
    6331              
    6332              $C$DW$TU$44     .dwtag  DW_TAG_type_unit
    6333                      .dwmtype  $C$DW$T$44
    6334              $C$DW$T$44      .dwtag  DW_TAG_typedef
    6335                      .dwattr $C$DW$T$44, DW_AT_name("DAC_ReferenceVoltage")
    6336                      .dwattr $C$DW$T$44, DW_AT_type(*$C$DW$T$43)
    6337                      .dwattr $C$DW$T$44, DW_AT_decl_file("C:/Users/ZXC/Documents/mcu project/ti-project/clllc_nonpowerSUIT
    6338                      .dwattr $C$DW$T$44, DW_AT_decl_line(0x67)
    6339                      .dwattr $C$DW$T$44, DW_AT_decl_column(0x02)
    6340              
    6341                      .dwendtag $C$DW$TU$44
    6342              
    6343              
    6344              $C$DW$TU$45     .dwtag  DW_TAG_type_unit
    6345                      .dwmtype  $C$DW$T$45
    6346              
    6347              $C$DW$T$45      .dwtag  DW_TAG_enumeration_type
    6348                      .dwattr $C$DW$T$45, DW_AT_byte_size(0x01)
    6349              $C$DW$432       .dwtag  DW_TAG_enumerator
    6350                      .dwattr $C$DW$432, DW_AT_name("DAC_GAIN_ONE")
    6351                      .dwattr $C$DW$432, DW_AT_const_value(0x00)
    6352                      .dwattr $C$DW$432, DW_AT_decl_file("C:/Users/ZXC/Documents/mcu project/ti-project/clllc_nonpowerSUITE
    6353                      .dwattr $C$DW$432, DW_AT_decl_line(0x70)
    6354                      .dwattr $C$DW$432, DW_AT_decl_column(0x05)
    6355              
    6356              $C$DW$433       .dwtag  DW_TAG_enumerator
    6357                      .dwattr $C$DW$433, DW_AT_name("DAC_GAIN_TWO")
    6358                      .dwattr $C$DW$433, DW_AT_const_value(0x02)
    6359                      .dwattr $C$DW$433, DW_AT_decl_file("C:/Users/ZXC/Documents/mcu project/ti-project/clllc_nonpowerSUITE
    6360                      .dwattr $C$DW$433, DW_AT_decl_line(0x71)
    6361                      .dwattr $C$DW$433, DW_AT_decl_column(0x05)
    6362              
    6363                      .dwattr $C$DW$T$45, DW_AT_decl_file("C:/Users/ZXC/Documents/mcu project/ti-project/clllc_nonpowerSUIT
    6364                      .dwattr $C$DW$T$45, DW_AT_decl_line(0x6f)
    6365                      .dwattr $C$DW$T$45, DW_AT_decl_column(0x01)
    6366                      .dwendtag $C$DW$T$45
    6367              
    6368                      .dwendtag $C$DW$TU$45
    6369              
    6370              
    6371              $C$DW$TU$46     .dwtag  DW_TAG_type_unit
    6372                      .dwmtype  $C$DW$T$46
TMS320C2000 Assembler PC v22.6.0 Mon Sep  2 11:55:45 2024

Copyright (c) 1996-2018 Texas Instruments Incorporated
clllc_hal.asm                                                        PAGE  136

    6373              $C$DW$T$46      .dwtag  DW_TAG_typedef
    6374                      .dwattr $C$DW$T$46, DW_AT_name("DAC_GainMode")
    6375                      .dwattr $C$DW$T$46, DW_AT_type(*$C$DW$T$45)
    6376                      .dwattr $C$DW$T$46, DW_AT_decl_file("C:/Users/ZXC/Documents/mcu project/ti-project/clllc_nonpowerSUIT
    6377                      .dwattr $C$DW$T$46, DW_AT_decl_line(0x72)
    6378                      .dwattr $C$DW$T$46, DW_AT_decl_column(0x02)
    6379              
    6380                      .dwendtag $C$DW$TU$46
    6381              
    6382              
    6383              $C$DW$TU$47     .dwtag  DW_TAG_type_unit
    6384                      .dwmtype  $C$DW$T$47
    6385              
    6386              $C$DW$T$47      .dwtag  DW_TAG_enumeration_type
    6387                      .dwattr $C$DW$T$47, DW_AT_byte_size(0x01)
    6388              $C$DW$434       .dwtag  DW_TAG_enumerator
    6389                      .dwattr $C$DW$434, DW_AT_name("EPWM_COUNT_MODE_DOWN_AFTER_SYNC")
    6390                      .dwattr $C$DW$434, DW_AT_const_value(0x00)
    6391                      .dwattr $C$DW$434, DW_AT_decl_file("C:/Users/ZXC/Documents/mcu project/ti-project/clllc_nonpowerSUITE
    6392                      .dwattr $C$DW$434, DW_AT_decl_line(0x62)
    6393                      .dwattr $C$DW$434, DW_AT_decl_column(0x04)
    6394              
    6395              $C$DW$435       .dwtag  DW_TAG_enumerator
    6396                      .dwattr $C$DW$435, DW_AT_name("EPWM_COUNT_MODE_UP_AFTER_SYNC")
    6397                      .dwattr $C$DW$435, DW_AT_const_value(0x01)
    6398                      .dwattr $C$DW$435, DW_AT_decl_file("C:/Users/ZXC/Documents/mcu project/ti-project/clllc_nonpowerSUITE
    6399                      .dwattr $C$DW$435, DW_AT_decl_line(0x63)
    6400                      .dwattr $C$DW$435, DW_AT_decl_column(0x04)
    6401              
    6402                      .dwattr $C$DW$T$47, DW_AT_decl_file("C:/Users/ZXC/Documents/mcu project/ti-project/clllc_nonpowerSUIT
    6403                      .dwattr $C$DW$T$47, DW_AT_decl_line(0x61)
    6404                      .dwattr $C$DW$T$47, DW_AT_decl_column(0x01)
    6405                      .dwendtag $C$DW$T$47
    6406              
    6407                      .dwendtag $C$DW$TU$47
    6408              
    6409              
    6410              $C$DW$TU$48     .dwtag  DW_TAG_type_unit
    6411                      .dwmtype  $C$DW$T$48
    6412              $C$DW$T$48      .dwtag  DW_TAG_typedef
    6413                      .dwattr $C$DW$T$48, DW_AT_name("EPWM_SyncCountMode")
    6414                      .dwattr $C$DW$T$48, DW_AT_type(*$C$DW$T$47)
    6415                      .dwattr $C$DW$T$48, DW_AT_decl_file("C:/Users/ZXC/Documents/mcu project/ti-project/clllc_nonpowerSUIT
    6416                      .dwattr $C$DW$T$48, DW_AT_decl_line(0x64)
    6417                      .dwattr $C$DW$T$48, DW_AT_decl_column(0x03)
    6418              
    6419                      .dwendtag $C$DW$TU$48
    6420              
    6421              
    6422              $C$DW$TU$49     .dwtag  DW_TAG_type_unit
    6423                      .dwmtype  $C$DW$T$49
    6424              
    6425              $C$DW$T$49      .dwtag  DW_TAG_enumeration_type
    6426                      .dwattr $C$DW$T$49, DW_AT_byte_size(0x01)
    6427              $C$DW$436       .dwtag  DW_TAG_enumerator
TMS320C2000 Assembler PC v22.6.0 Mon Sep  2 11:55:45 2024

Copyright (c) 1996-2018 Texas Instruments Incorporated
clllc_hal.asm                                                        PAGE  137

    6428                      .dwattr $C$DW$436, DW_AT_name("EPWM_CLOCK_DIVIDER_1")
    6429                      .dwattr $C$DW$436, DW_AT_const_value(0x00)
    6430                      .dwattr $C$DW$436, DW_AT_decl_file("C:/Users/ZXC/Documents/mcu project/ti-project/clllc_nonpowerSUITE
    6431                      .dwattr $C$DW$436, DW_AT_decl_line(0x6e)
    6432                      .dwattr $C$DW$436, DW_AT_decl_column(0x05)
    6433              
    6434              $C$DW$437       .dwtag  DW_TAG_enumerator
    6435                      .dwattr $C$DW$437, DW_AT_name("EPWM_CLOCK_DIVIDER_2")
    6436                      .dwattr $C$DW$437, DW_AT_const_value(0x01)
    6437                      .dwattr $C$DW$437, DW_AT_decl_file("C:/Users/ZXC/Documents/mcu project/ti-project/clllc_nonpowerSUITE
    6438                      .dwattr $C$DW$437, DW_AT_decl_line(0x6f)
    6439                      .dwattr $C$DW$437, DW_AT_decl_column(0x05)
    6440              
    6441              $C$DW$438       .dwtag  DW_TAG_enumerator
    6442                      .dwattr $C$DW$438, DW_AT_name("EPWM_CLOCK_DIVIDER_4")
    6443                      .dwattr $C$DW$438, DW_AT_const_value(0x02)
    6444                      .dwattr $C$DW$438, DW_AT_decl_file("C:/Users/ZXC/Documents/mcu project/ti-project/clllc_nonpowerSUITE
    6445                      .dwattr $C$DW$438, DW_AT_decl_line(0x70)
    6446                      .dwattr $C$DW$438, DW_AT_decl_column(0x05)
    6447              
    6448              $C$DW$439       .dwtag  DW_TAG_enumerator
    6449                      .dwattr $C$DW$439, DW_AT_name("EPWM_CLOCK_DIVIDER_8")
    6450                      .dwattr $C$DW$439, DW_AT_const_value(0x03)
    6451                      .dwattr $C$DW$439, DW_AT_decl_file("C:/Users/ZXC/Documents/mcu project/ti-project/clllc_nonpowerSUITE
    6452                      .dwattr $C$DW$439, DW_AT_decl_line(0x71)
    6453                      .dwattr $C$DW$439, DW_AT_decl_column(0x05)
    6454              
    6455              $C$DW$440       .dwtag  DW_TAG_enumerator
    6456                      .dwattr $C$DW$440, DW_AT_name("EPWM_CLOCK_DIVIDER_16")
    6457                      .dwattr $C$DW$440, DW_AT_const_value(0x04)
    6458                      .dwattr $C$DW$440, DW_AT_decl_file("C:/Users/ZXC/Documents/mcu project/ti-project/clllc_nonpowerSUITE
    6459                      .dwattr $C$DW$440, DW_AT_decl_line(0x72)
    6460                      .dwattr $C$DW$440, DW_AT_decl_column(0x05)
    6461              
    6462              $C$DW$441       .dwtag  DW_TAG_enumerator
    6463                      .dwattr $C$DW$441, DW_AT_name("EPWM_CLOCK_DIVIDER_32")
    6464                      .dwattr $C$DW$441, DW_AT_const_value(0x05)
    6465                      .dwattr $C$DW$441, DW_AT_decl_file("C:/Users/ZXC/Documents/mcu project/ti-project/clllc_nonpowerSUITE
    6466                      .dwattr $C$DW$441, DW_AT_decl_line(0x73)
    6467                      .dwattr $C$DW$441, DW_AT_decl_column(0x05)
    6468              
    6469              $C$DW$442       .dwtag  DW_TAG_enumerator
    6470                      .dwattr $C$DW$442, DW_AT_name("EPWM_CLOCK_DIVIDER_64")
    6471                      .dwattr $C$DW$442, DW_AT_const_value(0x06)
    6472                      .dwattr $C$DW$442, DW_AT_decl_file("C:/Users/ZXC/Documents/mcu project/ti-project/clllc_nonpowerSUITE
    6473                      .dwattr $C$DW$442, DW_AT_decl_line(0x74)
    6474                      .dwattr $C$DW$442, DW_AT_decl_column(0x05)
    6475              
    6476              $C$DW$443       .dwtag  DW_TAG_enumerator
    6477                      .dwattr $C$DW$443, DW_AT_name("EPWM_CLOCK_DIVIDER_128")
    6478                      .dwattr $C$DW$443, DW_AT_const_value(0x07)
    6479                      .dwattr $C$DW$443, DW_AT_decl_file("C:/Users/ZXC/Documents/mcu project/ti-project/clllc_nonpowerSUITE
    6480                      .dwattr $C$DW$443, DW_AT_decl_line(0x75)
    6481                      .dwattr $C$DW$443, DW_AT_decl_column(0x05)
    6482              
TMS320C2000 Assembler PC v22.6.0 Mon Sep  2 11:55:45 2024

Copyright (c) 1996-2018 Texas Instruments Incorporated
clllc_hal.asm                                                        PAGE  138

    6483                      .dwattr $C$DW$T$49, DW_AT_decl_file("C:/Users/ZXC/Documents/mcu project/ti-project/clllc_nonpowerSUIT
    6484                      .dwattr $C$DW$T$49, DW_AT_decl_line(0x6d)
    6485                      .dwattr $C$DW$T$49, DW_AT_decl_column(0x01)
    6486                      .dwendtag $C$DW$T$49
    6487              
    6488                      .dwendtag $C$DW$TU$49
    6489              
    6490              
    6491              $C$DW$TU$50     .dwtag  DW_TAG_type_unit
    6492                      .dwmtype  $C$DW$T$50
    6493              $C$DW$T$50      .dwtag  DW_TAG_typedef
    6494                      .dwattr $C$DW$T$50, DW_AT_name("EPWM_ClockDivider")
    6495                      .dwattr $C$DW$T$50, DW_AT_type(*$C$DW$T$49)
    6496                      .dwattr $C$DW$T$50, DW_AT_decl_file("C:/Users/ZXC/Documents/mcu project/ti-project/clllc_nonpowerSUIT
    6497                      .dwattr $C$DW$T$50, DW_AT_decl_line(0x76)
    6498                      .dwattr $C$DW$T$50, DW_AT_decl_column(0x03)
    6499              
    6500                      .dwendtag $C$DW$TU$50
    6501              
    6502              
    6503              $C$DW$TU$51     .dwtag  DW_TAG_type_unit
    6504                      .dwmtype  $C$DW$T$51
    6505              
    6506              $C$DW$T$51      .dwtag  DW_TAG_enumeration_type
    6507                      .dwattr $C$DW$T$51, DW_AT_byte_size(0x01)
    6508              $C$DW$444       .dwtag  DW_TAG_enumerator
    6509                      .dwattr $C$DW$444, DW_AT_name("EPWM_HSCLOCK_DIVIDER_1")
    6510                      .dwattr $C$DW$444, DW_AT_const_value(0x00)
    6511                      .dwattr $C$DW$444, DW_AT_decl_file("C:/Users/ZXC/Documents/mcu project/ti-project/clllc_nonpowerSUITE
    6512                      .dwattr $C$DW$444, DW_AT_decl_line(0x80)
    6513                      .dwattr $C$DW$444, DW_AT_decl_column(0x05)
    6514              
    6515              $C$DW$445       .dwtag  DW_TAG_enumerator
    6516                      .dwattr $C$DW$445, DW_AT_name("EPWM_HSCLOCK_DIVIDER_2")
    6517                      .dwattr $C$DW$445, DW_AT_const_value(0x01)
    6518                      .dwattr $C$DW$445, DW_AT_decl_file("C:/Users/ZXC/Documents/mcu project/ti-project/clllc_nonpowerSUITE
    6519                      .dwattr $C$DW$445, DW_AT_decl_line(0x81)
    6520                      .dwattr $C$DW$445, DW_AT_decl_column(0x05)
    6521              
    6522              $C$DW$446       .dwtag  DW_TAG_enumerator
    6523                      .dwattr $C$DW$446, DW_AT_name("EPWM_HSCLOCK_DIVIDER_4")
    6524                      .dwattr $C$DW$446, DW_AT_const_value(0x02)
    6525                      .dwattr $C$DW$446, DW_AT_decl_file("C:/Users/ZXC/Documents/mcu project/ti-project/clllc_nonpowerSUITE
    6526                      .dwattr $C$DW$446, DW_AT_decl_line(0x82)
    6527                      .dwattr $C$DW$446, DW_AT_decl_column(0x05)
    6528              
    6529              $C$DW$447       .dwtag  DW_TAG_enumerator
    6530                      .dwattr $C$DW$447, DW_AT_name("EPWM_HSCLOCK_DIVIDER_6")
    6531                      .dwattr $C$DW$447, DW_AT_const_value(0x03)
    6532                      .dwattr $C$DW$447, DW_AT_decl_file("C:/Users/ZXC/Documents/mcu project/ti-project/clllc_nonpowerSUITE
    6533                      .dwattr $C$DW$447, DW_AT_decl_line(0x83)
    6534                      .dwattr $C$DW$447, DW_AT_decl_column(0x05)
    6535              
    6536              $C$DW$448       .dwtag  DW_TAG_enumerator
    6537                      .dwattr $C$DW$448, DW_AT_name("EPWM_HSCLOCK_DIVIDER_8")
TMS320C2000 Assembler PC v22.6.0 Mon Sep  2 11:55:45 2024

Copyright (c) 1996-2018 Texas Instruments Incorporated
clllc_hal.asm                                                        PAGE  139

    6538                      .dwattr $C$DW$448, DW_AT_const_value(0x04)
    6539                      .dwattr $C$DW$448, DW_AT_decl_file("C:/Users/ZXC/Documents/mcu project/ti-project/clllc_nonpowerSUITE
    6540                      .dwattr $C$DW$448, DW_AT_decl_line(0x84)
    6541                      .dwattr $C$DW$448, DW_AT_decl_column(0x05)
    6542              
    6543              $C$DW$449       .dwtag  DW_TAG_enumerator
    6544                      .dwattr $C$DW$449, DW_AT_name("EPWM_HSCLOCK_DIVIDER_10")
    6545                      .dwattr $C$DW$449, DW_AT_const_value(0x05)
    6546                      .dwattr $C$DW$449, DW_AT_decl_file("C:/Users/ZXC/Documents/mcu project/ti-project/clllc_nonpowerSUITE
    6547                      .dwattr $C$DW$449, DW_AT_decl_line(0x85)
    6548                      .dwattr $C$DW$449, DW_AT_decl_column(0x05)
    6549              
    6550              $C$DW$450       .dwtag  DW_TAG_enumerator
    6551                      .dwattr $C$DW$450, DW_AT_name("EPWM_HSCLOCK_DIVIDER_12")
    6552                      .dwattr $C$DW$450, DW_AT_const_value(0x06)
    6553                      .dwattr $C$DW$450, DW_AT_decl_file("C:/Users/ZXC/Documents/mcu project/ti-project/clllc_nonpowerSUITE
    6554                      .dwattr $C$DW$450, DW_AT_decl_line(0x86)
    6555                      .dwattr $C$DW$450, DW_AT_decl_column(0x05)
    6556              
    6557              $C$DW$451       .dwtag  DW_TAG_enumerator
    6558                      .dwattr $C$DW$451, DW_AT_name("EPWM_HSCLOCK_DIVIDER_14")
    6559                      .dwattr $C$DW$451, DW_AT_const_value(0x07)
    6560                      .dwattr $C$DW$451, DW_AT_decl_file("C:/Users/ZXC/Documents/mcu project/ti-project/clllc_nonpowerSUITE
    6561                      .dwattr $C$DW$451, DW_AT_decl_line(0x87)
    6562                      .dwattr $C$DW$451, DW_AT_decl_column(0x05)
    6563              
    6564                      .dwattr $C$DW$T$51, DW_AT_decl_file("C:/Users/ZXC/Documents/mcu project/ti-project/clllc_nonpowerSUIT
    6565                      .dwattr $C$DW$T$51, DW_AT_decl_line(0x7f)
    6566                      .dwattr $C$DW$T$51, DW_AT_decl_column(0x01)
    6567                      .dwendtag $C$DW$T$51
    6568              
    6569                      .dwendtag $C$DW$TU$51
    6570              
    6571              
    6572              $C$DW$TU$52     .dwtag  DW_TAG_type_unit
    6573                      .dwmtype  $C$DW$T$52
    6574              $C$DW$T$52      .dwtag  DW_TAG_typedef
    6575                      .dwattr $C$DW$T$52, DW_AT_name("EPWM_HSClockDivider")
    6576                      .dwattr $C$DW$T$52, DW_AT_type(*$C$DW$T$51)
    6577                      .dwattr $C$DW$T$52, DW_AT_decl_file("C:/Users/ZXC/Documents/mcu project/ti-project/clllc_nonpowerSUIT
    6578                      .dwattr $C$DW$T$52, DW_AT_decl_line(0x88)
    6579                      .dwattr $C$DW$T$52, DW_AT_decl_column(0x03)
    6580              
    6581                      .dwendtag $C$DW$TU$52
    6582              
    6583              
    6584              $C$DW$TU$53     .dwtag  DW_TAG_type_unit
    6585                      .dwmtype  $C$DW$T$53
    6586              
    6587              $C$DW$T$53      .dwtag  DW_TAG_enumeration_type
    6588                      .dwattr $C$DW$T$53, DW_AT_byte_size(0x01)
    6589              $C$DW$452       .dwtag  DW_TAG_enumerator
    6590                      .dwattr $C$DW$452, DW_AT_name("EPWM_SYNC_OUT_PULSE_ON_SOFTWARE")
    6591                      .dwattr $C$DW$452, DW_AT_const_value(0x00)
    6592                      .dwattr $C$DW$452, DW_AT_decl_file("C:/Users/ZXC/Documents/mcu project/ti-project/clllc_nonpowerSUITE
TMS320C2000 Assembler PC v22.6.0 Mon Sep  2 11:55:45 2024

Copyright (c) 1996-2018 Texas Instruments Incorporated
clllc_hal.asm                                                        PAGE  140

    6593                      .dwattr $C$DW$452, DW_AT_decl_line(0x93)
    6594                      .dwattr $C$DW$452, DW_AT_decl_column(0x05)
    6595              
    6596              $C$DW$453       .dwtag  DW_TAG_enumerator
    6597                      .dwattr $C$DW$453, DW_AT_name("EPWM_SYNC_OUT_PULSE_ON_EPWMxSYNCIN")
    6598                      .dwattr $C$DW$453, DW_AT_const_value(0x00)
    6599                      .dwattr $C$DW$453, DW_AT_decl_file("C:/Users/ZXC/Documents/mcu project/ti-project/clllc_nonpowerSUITE
    6600                      .dwattr $C$DW$453, DW_AT_decl_line(0x95)
    6601                      .dwattr $C$DW$453, DW_AT_decl_column(0x05)
    6602              
    6603              $C$DW$454       .dwtag  DW_TAG_enumerator
    6604                      .dwattr $C$DW$454, DW_AT_name("EPWM_SYNC_OUT_PULSE_ON_COUNTER_ZERO")
    6605                      .dwattr $C$DW$454, DW_AT_const_value(0x01)
    6606                      .dwattr $C$DW$454, DW_AT_decl_file("C:/Users/ZXC/Documents/mcu project/ti-project/clllc_nonpowerSUITE
    6607                      .dwattr $C$DW$454, DW_AT_decl_line(0x97)
    6608                      .dwattr $C$DW$454, DW_AT_decl_column(0x05)
    6609              
    6610              $C$DW$455       .dwtag  DW_TAG_enumerator
    6611                      .dwattr $C$DW$455, DW_AT_name("EPWM_SYNC_OUT_PULSE_ON_COUNTER_COMPARE_B")
    6612                      .dwattr $C$DW$455, DW_AT_const_value(0x02)
    6613                      .dwattr $C$DW$455, DW_AT_decl_file("C:/Users/ZXC/Documents/mcu project/ti-project/clllc_nonpowerSUITE
    6614                      .dwattr $C$DW$455, DW_AT_decl_line(0x99)
    6615                      .dwattr $C$DW$455, DW_AT_decl_column(0x05)
    6616              
    6617              $C$DW$456       .dwtag  DW_TAG_enumerator
    6618                      .dwattr $C$DW$456, DW_AT_name("EPWM_SYNC_OUT_PULSE_DISABLED")
    6619                      .dwattr $C$DW$456, DW_AT_const_value(0x04)
    6620                      .dwattr $C$DW$456, DW_AT_decl_file("C:/Users/ZXC/Documents/mcu project/ti-project/clllc_nonpowerSUITE
    6621                      .dwattr $C$DW$456, DW_AT_decl_line(0x9b)
    6622                      .dwattr $C$DW$456, DW_AT_decl_column(0x05)
    6623              
    6624              $C$DW$457       .dwtag  DW_TAG_enumerator
    6625                      .dwattr $C$DW$457, DW_AT_name("EPWM_SYNC_OUT_PULSE_ON_COUNTER_COMPARE_C")
    6626                      .dwattr $C$DW$457, DW_AT_const_value(0x05)
    6627                      .dwattr $C$DW$457, DW_AT_decl_file("C:/Users/ZXC/Documents/mcu project/ti-project/clllc_nonpowerSUITE
    6628                      .dwattr $C$DW$457, DW_AT_decl_line(0x9d)
    6629                      .dwattr $C$DW$457, DW_AT_decl_column(0x05)
    6630              
    6631              $C$DW$458       .dwtag  DW_TAG_enumerator
    6632                      .dwattr $C$DW$458, DW_AT_name("EPWM_SYNC_OUT_PULSE_ON_COUNTER_COMPARE_D")
    6633                      .dwattr $C$DW$458, DW_AT_const_value(0x06)
    6634                      .dwattr $C$DW$458, DW_AT_decl_file("C:/Users/ZXC/Documents/mcu project/ti-project/clllc_nonpowerSUITE
    6635                      .dwattr $C$DW$458, DW_AT_decl_line(0x9f)
    6636                      .dwattr $C$DW$458, DW_AT_decl_column(0x05)
    6637              
    6638                      .dwattr $C$DW$T$53, DW_AT_decl_file("C:/Users/ZXC/Documents/mcu project/ti-project/clllc_nonpowerSUIT
    6639                      .dwattr $C$DW$T$53, DW_AT_decl_line(0x91)
    6640                      .dwattr $C$DW$T$53, DW_AT_decl_column(0x01)
    6641                      .dwendtag $C$DW$T$53
    6642              
    6643                      .dwendtag $C$DW$TU$53
    6644              
    6645              
    6646              $C$DW$TU$54     .dwtag  DW_TAG_type_unit
    6647                      .dwmtype  $C$DW$T$54
TMS320C2000 Assembler PC v22.6.0 Mon Sep  2 11:55:45 2024

Copyright (c) 1996-2018 Texas Instruments Incorporated
clllc_hal.asm                                                        PAGE  141

    6648              $C$DW$T$54      .dwtag  DW_TAG_typedef
    6649                      .dwattr $C$DW$T$54, DW_AT_name("EPWM_SyncOutPulseMode")
    6650                      .dwattr $C$DW$T$54, DW_AT_type(*$C$DW$T$53)
    6651                      .dwattr $C$DW$T$54, DW_AT_decl_file("C:/Users/ZXC/Documents/mcu project/ti-project/clllc_nonpowerSUIT
    6652                      .dwattr $C$DW$T$54, DW_AT_decl_line(0xa0)
    6653                      .dwattr $C$DW$T$54, DW_AT_decl_column(0x03)
    6654              
    6655                      .dwendtag $C$DW$TU$54
    6656              
    6657              
    6658              $C$DW$TU$55     .dwtag  DW_TAG_type_unit
    6659                      .dwmtype  $C$DW$T$55
    6660              
    6661              $C$DW$T$55      .dwtag  DW_TAG_enumeration_type
    6662                      .dwattr $C$DW$T$55, DW_AT_byte_size(0x01)
    6663              $C$DW$459       .dwtag  DW_TAG_enumerator
    6664                      .dwattr $C$DW$459, DW_AT_name("EPWM_PERIOD_SHADOW_LOAD")
    6665                      .dwattr $C$DW$459, DW_AT_const_value(0x00)
    6666                      .dwattr $C$DW$459, DW_AT_decl_file("C:/Users/ZXC/Documents/mcu project/ti-project/clllc_nonpowerSUITE
    6667                      .dwattr $C$DW$459, DW_AT_decl_line(0xab)
    6668                      .dwattr $C$DW$459, DW_AT_decl_column(0x05)
    6669              
    6670              $C$DW$460       .dwtag  DW_TAG_enumerator
    6671                      .dwattr $C$DW$460, DW_AT_name("EPWM_PERIOD_DIRECT_LOAD")
    6672                      .dwattr $C$DW$460, DW_AT_const_value(0x01)
    6673                      .dwattr $C$DW$460, DW_AT_decl_file("C:/Users/ZXC/Documents/mcu project/ti-project/clllc_nonpowerSUITE
    6674                      .dwattr $C$DW$460, DW_AT_decl_line(0xad)
    6675                      .dwattr $C$DW$460, DW_AT_decl_column(0x05)
    6676              
    6677                      .dwattr $C$DW$T$55, DW_AT_decl_file("C:/Users/ZXC/Documents/mcu project/ti-project/clllc_nonpowerSUIT
    6678                      .dwattr $C$DW$T$55, DW_AT_decl_line(0xa9)
    6679                      .dwattr $C$DW$T$55, DW_AT_decl_column(0x01)
    6680                      .dwendtag $C$DW$T$55
    6681              
    6682                      .dwendtag $C$DW$TU$55
    6683              
    6684              
    6685              $C$DW$TU$56     .dwtag  DW_TAG_type_unit
    6686                      .dwmtype  $C$DW$T$56
    6687              $C$DW$T$56      .dwtag  DW_TAG_typedef
    6688                      .dwattr $C$DW$T$56, DW_AT_name("EPWM_PeriodLoadMode")
    6689                      .dwattr $C$DW$T$56, DW_AT_type(*$C$DW$T$55)
    6690                      .dwattr $C$DW$T$56, DW_AT_decl_file("C:/Users/ZXC/Documents/mcu project/ti-project/clllc_nonpowerSUIT
    6691                      .dwattr $C$DW$T$56, DW_AT_decl_line(0xae)
    6692                      .dwattr $C$DW$T$56, DW_AT_decl_column(0x03)
    6693              
    6694                      .dwendtag $C$DW$TU$56
    6695              
    6696              
    6697              $C$DW$TU$57     .dwtag  DW_TAG_type_unit
    6698                      .dwmtype  $C$DW$T$57
    6699              
    6700              $C$DW$T$57      .dwtag  DW_TAG_enumeration_type
    6701                      .dwattr $C$DW$T$57, DW_AT_byte_size(0x01)
    6702              $C$DW$461       .dwtag  DW_TAG_enumerator
TMS320C2000 Assembler PC v22.6.0 Mon Sep  2 11:55:45 2024

Copyright (c) 1996-2018 Texas Instruments Incorporated
clllc_hal.asm                                                        PAGE  142

    6703                      .dwattr $C$DW$461, DW_AT_name("EPWM_COUNTER_MODE_UP")
    6704                      .dwattr $C$DW$461, DW_AT_const_value(0x00)
    6705                      .dwattr $C$DW$461, DW_AT_decl_file("C:/Users/ZXC/Documents/mcu project/ti-project/clllc_nonpowerSUITE
    6706                      .dwattr $C$DW$461, DW_AT_decl_line(0xb8)
    6707                      .dwattr $C$DW$461, DW_AT_decl_column(0x05)
    6708              
    6709              $C$DW$462       .dwtag  DW_TAG_enumerator
    6710                      .dwattr $C$DW$462, DW_AT_name("EPWM_COUNTER_MODE_DOWN")
    6711                      .dwattr $C$DW$462, DW_AT_const_value(0x01)
    6712                      .dwattr $C$DW$462, DW_AT_decl_file("C:/Users/ZXC/Documents/mcu project/ti-project/clllc_nonpowerSUITE
    6713                      .dwattr $C$DW$462, DW_AT_decl_line(0xb9)
    6714                      .dwattr $C$DW$462, DW_AT_decl_column(0x05)
    6715              
    6716              $C$DW$463       .dwtag  DW_TAG_enumerator
    6717                      .dwattr $C$DW$463, DW_AT_name("EPWM_COUNTER_MODE_UP_DOWN")
    6718                      .dwattr $C$DW$463, DW_AT_const_value(0x02)
    6719                      .dwattr $C$DW$463, DW_AT_decl_file("C:/Users/ZXC/Documents/mcu project/ti-project/clllc_nonpowerSUITE
    6720                      .dwattr $C$DW$463, DW_AT_decl_line(0xba)
    6721                      .dwattr $C$DW$463, DW_AT_decl_column(0x05)
    6722              
    6723              $C$DW$464       .dwtag  DW_TAG_enumerator
    6724                      .dwattr $C$DW$464, DW_AT_name("EPWM_COUNTER_MODE_STOP_FREEZE")
    6725                      .dwattr $C$DW$464, DW_AT_const_value(0x03)
    6726                      .dwattr $C$DW$464, DW_AT_decl_file("C:/Users/ZXC/Documents/mcu project/ti-project/clllc_nonpowerSUITE
    6727                      .dwattr $C$DW$464, DW_AT_decl_line(0xbb)
    6728                      .dwattr $C$DW$464, DW_AT_decl_column(0x05)
    6729              
    6730                      .dwattr $C$DW$T$57, DW_AT_decl_file("C:/Users/ZXC/Documents/mcu project/ti-project/clllc_nonpowerSUIT
    6731                      .dwattr $C$DW$T$57, DW_AT_decl_line(0xb7)
    6732                      .dwattr $C$DW$T$57, DW_AT_decl_column(0x01)
    6733                      .dwendtag $C$DW$T$57
    6734              
    6735                      .dwendtag $C$DW$TU$57
    6736              
    6737              
    6738              $C$DW$TU$58     .dwtag  DW_TAG_type_unit
    6739                      .dwmtype  $C$DW$T$58
    6740              $C$DW$T$58      .dwtag  DW_TAG_typedef
    6741                      .dwattr $C$DW$T$58, DW_AT_name("EPWM_TimeBaseCountMode")
    6742                      .dwattr $C$DW$T$58, DW_AT_type(*$C$DW$T$57)
    6743                      .dwattr $C$DW$T$58, DW_AT_decl_file("C:/Users/ZXC/Documents/mcu project/ti-project/clllc_nonpowerSUIT
    6744                      .dwattr $C$DW$T$58, DW_AT_decl_line(0xbc)
    6745                      .dwattr $C$DW$T$58, DW_AT_decl_column(0x03)
    6746              
    6747                      .dwendtag $C$DW$TU$58
    6748              
    6749              
    6750              $C$DW$TU$59     .dwtag  DW_TAG_type_unit
    6751                      .dwmtype  $C$DW$T$59
    6752              
    6753              $C$DW$T$59      .dwtag  DW_TAG_enumeration_type
    6754                      .dwattr $C$DW$T$59, DW_AT_byte_size(0x01)
    6755              $C$DW$465       .dwtag  DW_TAG_enumerator
    6756                      .dwattr $C$DW$465, DW_AT_name("EPWM_LINK_WITH_EPWM_1")
    6757                      .dwattr $C$DW$465, DW_AT_const_value(0x00)
TMS320C2000 Assembler PC v22.6.0 Mon Sep  2 11:55:45 2024

Copyright (c) 1996-2018 Texas Instruments Incorporated
clllc_hal.asm                                                        PAGE  143

    6758                      .dwattr $C$DW$465, DW_AT_decl_file("C:/Users/ZXC/Documents/mcu project/ti-project/clllc_nonpowerSUITE
    6759                      .dwattr $C$DW$465, DW_AT_decl_line(0xe3)
    6760                      .dwattr $C$DW$465, DW_AT_decl_column(0x06)
    6761              
    6762              $C$DW$466       .dwtag  DW_TAG_enumerator
    6763                      .dwattr $C$DW$466, DW_AT_name("EPWM_LINK_WITH_EPWM_2")
    6764                      .dwattr $C$DW$466, DW_AT_const_value(0x01)
    6765                      .dwattr $C$DW$466, DW_AT_decl_file("C:/Users/ZXC/Documents/mcu project/ti-project/clllc_nonpowerSUITE
    6766                      .dwattr $C$DW$466, DW_AT_decl_line(0xe4)
    6767                      .dwattr $C$DW$466, DW_AT_decl_column(0x06)
    6768              
    6769              $C$DW$467       .dwtag  DW_TAG_enumerator
    6770                      .dwattr $C$DW$467, DW_AT_name("EPWM_LINK_WITH_EPWM_3")
    6771                      .dwattr $C$DW$467, DW_AT_const_value(0x02)
    6772                      .dwattr $C$DW$467, DW_AT_decl_file("C:/Users/ZXC/Documents/mcu project/ti-project/clllc_nonpowerSUITE
    6773                      .dwattr $C$DW$467, DW_AT_decl_line(0xe5)
    6774                      .dwattr $C$DW$467, DW_AT_decl_column(0x06)
    6775              
    6776              $C$DW$468       .dwtag  DW_TAG_enumerator
    6777                      .dwattr $C$DW$468, DW_AT_name("EPWM_LINK_WITH_EPWM_4")
    6778                      .dwattr $C$DW$468, DW_AT_const_value(0x03)
    6779                      .dwattr $C$DW$468, DW_AT_decl_file("C:/Users/ZXC/Documents/mcu project/ti-project/clllc_nonpowerSUITE
    6780                      .dwattr $C$DW$468, DW_AT_decl_line(0xe6)
    6781                      .dwattr $C$DW$468, DW_AT_decl_column(0x06)
    6782              
    6783              $C$DW$469       .dwtag  DW_TAG_enumerator
    6784                      .dwattr $C$DW$469, DW_AT_name("EPWM_LINK_WITH_EPWM_5")
    6785                      .dwattr $C$DW$469, DW_AT_const_value(0x04)
    6786                      .dwattr $C$DW$469, DW_AT_decl_file("C:/Users/ZXC/Documents/mcu project/ti-project/clllc_nonpowerSUITE
    6787                      .dwattr $C$DW$469, DW_AT_decl_line(0xe7)
    6788                      .dwattr $C$DW$469, DW_AT_decl_column(0x06)
    6789              
    6790              $C$DW$470       .dwtag  DW_TAG_enumerator
    6791                      .dwattr $C$DW$470, DW_AT_name("EPWM_LINK_WITH_EPWM_6")
    6792                      .dwattr $C$DW$470, DW_AT_const_value(0x05)
    6793                      .dwattr $C$DW$470, DW_AT_decl_file("C:/Users/ZXC/Documents/mcu project/ti-project/clllc_nonpowerSUITE
    6794                      .dwattr $C$DW$470, DW_AT_decl_line(0xe8)
    6795                      .dwattr $C$DW$470, DW_AT_decl_column(0x06)
    6796              
    6797              $C$DW$471       .dwtag  DW_TAG_enumerator
    6798                      .dwattr $C$DW$471, DW_AT_name("EPWM_LINK_WITH_EPWM_7")
    6799                      .dwattr $C$DW$471, DW_AT_const_value(0x06)
    6800                      .dwattr $C$DW$471, DW_AT_decl_file("C:/Users/ZXC/Documents/mcu project/ti-project/clllc_nonpowerSUITE
    6801                      .dwattr $C$DW$471, DW_AT_decl_line(0xe9)
    6802                      .dwattr $C$DW$471, DW_AT_decl_column(0x06)
    6803              
    6804              $C$DW$472       .dwtag  DW_TAG_enumerator
    6805                      .dwattr $C$DW$472, DW_AT_name("EPWM_LINK_WITH_EPWM_8")
    6806                      .dwattr $C$DW$472, DW_AT_const_value(0x07)
    6807                      .dwattr $C$DW$472, DW_AT_decl_file("C:/Users/ZXC/Documents/mcu project/ti-project/clllc_nonpowerSUITE
    6808                      .dwattr $C$DW$472, DW_AT_decl_line(0xea)
    6809                      .dwattr $C$DW$472, DW_AT_decl_column(0x06)
    6810              
    6811                      .dwattr $C$DW$T$59, DW_AT_decl_file("C:/Users/ZXC/Documents/mcu project/ti-project/clllc_nonpowerSUIT
    6812                      .dwattr $C$DW$T$59, DW_AT_decl_line(0xe2)
TMS320C2000 Assembler PC v22.6.0 Mon Sep  2 11:55:45 2024

Copyright (c) 1996-2018 Texas Instruments Incorporated
clllc_hal.asm                                                        PAGE  144

    6813                      .dwattr $C$DW$T$59, DW_AT_decl_column(0x01)
    6814                      .dwendtag $C$DW$T$59
    6815              
    6816                      .dwendtag $C$DW$TU$59
    6817              
    6818              
    6819              $C$DW$TU$60     .dwtag  DW_TAG_type_unit
    6820                      .dwmtype  $C$DW$T$60
    6821              $C$DW$T$60      .dwtag  DW_TAG_typedef
    6822                      .dwattr $C$DW$T$60, DW_AT_name("EPWM_CurrentLink")
    6823                      .dwattr $C$DW$T$60, DW_AT_type(*$C$DW$T$59)
    6824                      .dwattr $C$DW$T$60, DW_AT_decl_file("C:/Users/ZXC/Documents/mcu project/ti-project/clllc_nonpowerSUIT
    6825                      .dwattr $C$DW$T$60, DW_AT_decl_line(0xeb)
    6826                      .dwattr $C$DW$T$60, DW_AT_decl_column(0x03)
    6827              
    6828                      .dwendtag $C$DW$TU$60
    6829              
    6830              
    6831              $C$DW$TU$61     .dwtag  DW_TAG_type_unit
    6832                      .dwmtype  $C$DW$T$61
    6833              
    6834              $C$DW$T$61      .dwtag  DW_TAG_enumeration_type
    6835                      .dwattr $C$DW$T$61, DW_AT_byte_size(0x01)
    6836              $C$DW$473       .dwtag  DW_TAG_enumerator
    6837                      .dwattr $C$DW$473, DW_AT_name("EPWM_LINK_TBPRD")
    6838                      .dwattr $C$DW$473, DW_AT_const_value(0x00)
    6839                      .dwattr $C$DW$473, DW_AT_decl_file("C:/Users/ZXC/Documents/mcu project/ti-project/clllc_nonpowerSUITE
    6840                      .dwattr $C$DW$473, DW_AT_decl_line(0xf5)
    6841                      .dwattr $C$DW$473, DW_AT_decl_column(0x06)
    6842              
    6843              $C$DW$474       .dwtag  DW_TAG_enumerator
    6844                      .dwattr $C$DW$474, DW_AT_name("EPWM_LINK_COMP_A")
    6845                      .dwattr $C$DW$474, DW_AT_const_value(0x04)
    6846                      .dwattr $C$DW$474, DW_AT_decl_file("C:/Users/ZXC/Documents/mcu project/ti-project/clllc_nonpowerSUITE
    6847                      .dwattr $C$DW$474, DW_AT_decl_line(0xf6)
    6848                      .dwattr $C$DW$474, DW_AT_decl_column(0x06)
    6849              
    6850              $C$DW$475       .dwtag  DW_TAG_enumerator
    6851                      .dwattr $C$DW$475, DW_AT_name("EPWM_LINK_COMP_B")
    6852                      .dwattr $C$DW$475, DW_AT_const_value(0x08)
    6853                      .dwattr $C$DW$475, DW_AT_decl_file("C:/Users/ZXC/Documents/mcu project/ti-project/clllc_nonpowerSUITE
    6854                      .dwattr $C$DW$475, DW_AT_decl_line(0xf7)
    6855                      .dwattr $C$DW$475, DW_AT_decl_column(0x06)
    6856              
    6857              $C$DW$476       .dwtag  DW_TAG_enumerator
    6858                      .dwattr $C$DW$476, DW_AT_name("EPWM_LINK_COMP_C")
    6859                      .dwattr $C$DW$476, DW_AT_const_value(0x0c)
    6860                      .dwattr $C$DW$476, DW_AT_decl_file("C:/Users/ZXC/Documents/mcu project/ti-project/clllc_nonpowerSUITE
    6861                      .dwattr $C$DW$476, DW_AT_decl_line(0xf8)
    6862                      .dwattr $C$DW$476, DW_AT_decl_column(0x06)
    6863              
    6864              $C$DW$477       .dwtag  DW_TAG_enumerator
    6865                      .dwattr $C$DW$477, DW_AT_name("EPWM_LINK_COMP_D")
    6866                      .dwattr $C$DW$477, DW_AT_const_value(0x10)
    6867                      .dwattr $C$DW$477, DW_AT_decl_file("C:/Users/ZXC/Documents/mcu project/ti-project/clllc_nonpowerSUITE
TMS320C2000 Assembler PC v22.6.0 Mon Sep  2 11:55:45 2024

Copyright (c) 1996-2018 Texas Instruments Incorporated
clllc_hal.asm                                                        PAGE  145

    6868                      .dwattr $C$DW$477, DW_AT_decl_line(0xf9)
    6869                      .dwattr $C$DW$477, DW_AT_decl_column(0x06)
    6870              
    6871              $C$DW$478       .dwtag  DW_TAG_enumerator
    6872                      .dwattr $C$DW$478, DW_AT_name("EPWM_LINK_GLDCTL2")
    6873                      .dwattr $C$DW$478, DW_AT_const_value(0x1c)
    6874                      .dwattr $C$DW$478, DW_AT_decl_file("C:/Users/ZXC/Documents/mcu project/ti-project/clllc_nonpowerSUITE
    6875                      .dwattr $C$DW$478, DW_AT_decl_line(0xfa)
    6876                      .dwattr $C$DW$478, DW_AT_decl_column(0x06)
    6877              
    6878                      .dwattr $C$DW$T$61, DW_AT_decl_file("C:/Users/ZXC/Documents/mcu project/ti-project/clllc_nonpowerSUIT
    6879                      .dwattr $C$DW$T$61, DW_AT_decl_line(0xf4)
    6880                      .dwattr $C$DW$T$61, DW_AT_decl_column(0x01)
    6881                      .dwendtag $C$DW$T$61
    6882              
    6883                      .dwendtag $C$DW$TU$61
    6884              
    6885              
    6886              $C$DW$TU$62     .dwtag  DW_TAG_type_unit
    6887                      .dwmtype  $C$DW$T$62
    6888              $C$DW$T$62      .dwtag  DW_TAG_typedef
    6889                      .dwattr $C$DW$T$62, DW_AT_name("EPWM_LinkComponent")
    6890                      .dwattr $C$DW$T$62, DW_AT_type(*$C$DW$T$61)
    6891                      .dwattr $C$DW$T$62, DW_AT_decl_file("C:/Users/ZXC/Documents/mcu project/ti-project/clllc_nonpowerSUIT
    6892                      .dwattr $C$DW$T$62, DW_AT_decl_line(0xfb)
    6893                      .dwattr $C$DW$T$62, DW_AT_decl_column(0x03)
    6894              
    6895                      .dwendtag $C$DW$TU$62
    6896              
    6897              
    6898              $C$DW$TU$63     .dwtag  DW_TAG_type_unit
    6899                      .dwmtype  $C$DW$T$63
    6900              
    6901              $C$DW$T$63      .dwtag  DW_TAG_enumeration_type
    6902                      .dwattr $C$DW$T$63, DW_AT_byte_size(0x01)
    6903              $C$DW$479       .dwtag  DW_TAG_enumerator
    6904                      .dwattr $C$DW$479, DW_AT_name("EPWM_COUNTER_COMPARE_A")
    6905                      .dwattr $C$DW$479, DW_AT_const_value(0x00)
    6906                      .dwattr $C$DW$479, DW_AT_decl_file("C:/Users/ZXC/Documents/mcu project/ti-project/clllc_nonpowerSUITE
    6907                      .dwattr $C$DW$479, DW_AT_decl_line(0x10a)
    6908                      .dwattr $C$DW$479, DW_AT_decl_column(0x05)
    6909              
    6910              $C$DW$480       .dwtag  DW_TAG_enumerator
    6911                      .dwattr $C$DW$480, DW_AT_name("EPWM_COUNTER_COMPARE_B")
    6912                      .dwattr $C$DW$480, DW_AT_const_value(0x02)
    6913                      .dwattr $C$DW$480, DW_AT_decl_file("C:/Users/ZXC/Documents/mcu project/ti-project/clllc_nonpowerSUITE
    6914                      .dwattr $C$DW$480, DW_AT_decl_line(0x10b)
    6915                      .dwattr $C$DW$480, DW_AT_decl_column(0x05)
    6916              
    6917              $C$DW$481       .dwtag  DW_TAG_enumerator
    6918                      .dwattr $C$DW$481, DW_AT_name("EPWM_COUNTER_COMPARE_C")
    6919                      .dwattr $C$DW$481, DW_AT_const_value(0x05)
    6920                      .dwattr $C$DW$481, DW_AT_decl_file("C:/Users/ZXC/Documents/mcu project/ti-project/clllc_nonpowerSUITE
    6921                      .dwattr $C$DW$481, DW_AT_decl_line(0x10c)
    6922                      .dwattr $C$DW$481, DW_AT_decl_column(0x05)
TMS320C2000 Assembler PC v22.6.0 Mon Sep  2 11:55:45 2024

Copyright (c) 1996-2018 Texas Instruments Incorporated
clllc_hal.asm                                                        PAGE  146

    6923              
    6924              $C$DW$482       .dwtag  DW_TAG_enumerator
    6925                      .dwattr $C$DW$482, DW_AT_name("EPWM_COUNTER_COMPARE_D")
    6926                      .dwattr $C$DW$482, DW_AT_const_value(0x07)
    6927                      .dwattr $C$DW$482, DW_AT_decl_file("C:/Users/ZXC/Documents/mcu project/ti-project/clllc_nonpowerSUITE
    6928                      .dwattr $C$DW$482, DW_AT_decl_line(0x10d)
    6929                      .dwattr $C$DW$482, DW_AT_decl_column(0x05)
    6930              
    6931                      .dwattr $C$DW$T$63, DW_AT_decl_file("C:/Users/ZXC/Documents/mcu project/ti-project/clllc_nonpowerSUIT
    6932                      .dwattr $C$DW$T$63, DW_AT_decl_line(0x109)
    6933                      .dwattr $C$DW$T$63, DW_AT_decl_column(0x01)
    6934                      .dwendtag $C$DW$T$63
    6935              
    6936                      .dwendtag $C$DW$TU$63
    6937              
    6938              
    6939              $C$DW$TU$64     .dwtag  DW_TAG_type_unit
    6940                      .dwmtype  $C$DW$T$64
    6941              $C$DW$T$64      .dwtag  DW_TAG_typedef
    6942                      .dwattr $C$DW$T$64, DW_AT_name("EPWM_CounterCompareModule")
    6943                      .dwattr $C$DW$T$64, DW_AT_type(*$C$DW$T$63)
    6944                      .dwattr $C$DW$T$64, DW_AT_decl_file("C:/Users/ZXC/Documents/mcu project/ti-project/clllc_nonpowerSUIT
    6945                      .dwattr $C$DW$T$64, DW_AT_decl_line(0x10e)
    6946                      .dwattr $C$DW$T$64, DW_AT_decl_column(0x03)
    6947              
    6948                      .dwendtag $C$DW$TU$64
    6949              
    6950              
    6951              $C$DW$TU$65     .dwtag  DW_TAG_type_unit
    6952                      .dwmtype  $C$DW$T$65
    6953              
    6954              $C$DW$T$65      .dwtag  DW_TAG_enumeration_type
    6955                      .dwattr $C$DW$T$65, DW_AT_byte_size(0x01)
    6956              $C$DW$483       .dwtag  DW_TAG_enumerator
    6957                      .dwattr $C$DW$483, DW_AT_name("EPWM_COMP_LOAD_ON_CNTR_ZERO")
    6958                      .dwattr $C$DW$483, DW_AT_const_value(0x00)
    6959                      .dwattr $C$DW$483, DW_AT_decl_file("C:/Users/ZXC/Documents/mcu project/ti-project/clllc_nonpowerSUITE
    6960                      .dwattr $C$DW$483, DW_AT_decl_line(0x119)
    6961                      .dwattr $C$DW$483, DW_AT_decl_column(0x05)
    6962              
    6963              $C$DW$484       .dwtag  DW_TAG_enumerator
    6964                      .dwattr $C$DW$484, DW_AT_name("EPWM_COMP_LOAD_ON_CNTR_PERIOD")
    6965                      .dwattr $C$DW$484, DW_AT_const_value(0x01)
    6966                      .dwattr $C$DW$484, DW_AT_decl_file("C:/Users/ZXC/Documents/mcu project/ti-project/clllc_nonpowerSUITE
    6967                      .dwattr $C$DW$484, DW_AT_decl_line(0x11b)
    6968                      .dwattr $C$DW$484, DW_AT_decl_column(0x05)
    6969              
    6970              $C$DW$485       .dwtag  DW_TAG_enumerator
    6971                      .dwattr $C$DW$485, DW_AT_name("EPWM_COMP_LOAD_ON_CNTR_ZERO_PERIOD")
    6972                      .dwattr $C$DW$485, DW_AT_const_value(0x02)
    6973                      .dwattr $C$DW$485, DW_AT_decl_file("C:/Users/ZXC/Documents/mcu project/ti-project/clllc_nonpowerSUITE
    6974                      .dwattr $C$DW$485, DW_AT_decl_line(0x11d)
    6975                      .dwattr $C$DW$485, DW_AT_decl_column(0x05)
    6976              
    6977              $C$DW$486       .dwtag  DW_TAG_enumerator
TMS320C2000 Assembler PC v22.6.0 Mon Sep  2 11:55:45 2024

Copyright (c) 1996-2018 Texas Instruments Incorporated
clllc_hal.asm                                                        PAGE  147

    6978                      .dwattr $C$DW$486, DW_AT_name("EPWM_COMP_LOAD_FREEZE")
    6979                      .dwattr $C$DW$486, DW_AT_const_value(0x03)
    6980                      .dwattr $C$DW$486, DW_AT_decl_file("C:/Users/ZXC/Documents/mcu project/ti-project/clllc_nonpowerSUITE
    6981                      .dwattr $C$DW$486, DW_AT_decl_line(0x11f)
    6982                      .dwattr $C$DW$486, DW_AT_decl_column(0x05)
    6983              
    6984              $C$DW$487       .dwtag  DW_TAG_enumerator
    6985                      .dwattr $C$DW$487, DW_AT_name("EPWM_COMP_LOAD_ON_SYNC_CNTR_ZERO")
    6986                      .dwattr $C$DW$487, DW_AT_const_value(0x04)
    6987                      .dwattr $C$DW$487, DW_AT_decl_file("C:/Users/ZXC/Documents/mcu project/ti-project/clllc_nonpowerSUITE
    6988                      .dwattr $C$DW$487, DW_AT_decl_line(0x121)
    6989                      .dwattr $C$DW$487, DW_AT_decl_column(0x05)
    6990              
    6991              $C$DW$488       .dwtag  DW_TAG_enumerator
    6992                      .dwattr $C$DW$488, DW_AT_name("EPWM_COMP_LOAD_ON_SYNC_CNTR_PERIOD")
    6993                      .dwattr $C$DW$488, DW_AT_const_value(0x05)
    6994                      .dwattr $C$DW$488, DW_AT_decl_file("C:/Users/ZXC/Documents/mcu project/ti-project/clllc_nonpowerSUITE
    6995                      .dwattr $C$DW$488, DW_AT_decl_line(0x123)
    6996                      .dwattr $C$DW$488, DW_AT_decl_column(0x05)
    6997              
    6998              $C$DW$489       .dwtag  DW_TAG_enumerator
    6999                      .dwattr $C$DW$489, DW_AT_name("EPWM_COMP_LOAD_ON_SYNC_CNTR_ZERO_PERIOD")
    7000                      .dwattr $C$DW$489, DW_AT_const_value(0x06)
    7001                      .dwattr $C$DW$489, DW_AT_decl_file("C:/Users/ZXC/Documents/mcu project/ti-project/clllc_nonpowerSUITE
    7002                      .dwattr $C$DW$489, DW_AT_decl_line(0x125)
    7003                      .dwattr $C$DW$489, DW_AT_decl_column(0x05)
    7004              
    7005              $C$DW$490       .dwtag  DW_TAG_enumerator
    7006                      .dwattr $C$DW$490, DW_AT_name("EPWM_COMP_LOAD_ON_SYNC_ONLY")
    7007                      .dwattr $C$DW$490, DW_AT_const_value(0x08)
    7008                      .dwattr $C$DW$490, DW_AT_decl_file("C:/Users/ZXC/Documents/mcu project/ti-project/clllc_nonpowerSUITE
    7009                      .dwattr $C$DW$490, DW_AT_decl_line(0x127)
    7010                      .dwattr $C$DW$490, DW_AT_decl_column(0x05)
    7011              
    7012                      .dwattr $C$DW$T$65, DW_AT_decl_file("C:/Users/ZXC/Documents/mcu project/ti-project/clllc_nonpowerSUIT
    7013                      .dwattr $C$DW$T$65, DW_AT_decl_line(0x117)
    7014                      .dwattr $C$DW$T$65, DW_AT_decl_column(0x01)
    7015                      .dwendtag $C$DW$T$65
    7016              
    7017                      .dwendtag $C$DW$TU$65
    7018              
    7019              
    7020              $C$DW$TU$66     .dwtag  DW_TAG_type_unit
    7021                      .dwmtype  $C$DW$T$66
    7022              $C$DW$T$66      .dwtag  DW_TAG_typedef
    7023                      .dwattr $C$DW$T$66, DW_AT_name("EPWM_CounterCompareLoadMode")
    7024                      .dwattr $C$DW$T$66, DW_AT_type(*$C$DW$T$65)
    7025                      .dwattr $C$DW$T$66, DW_AT_decl_file("C:/Users/ZXC/Documents/mcu project/ti-project/clllc_nonpowerSUIT
    7026                      .dwattr $C$DW$T$66, DW_AT_decl_line(0x128)
    7027                      .dwattr $C$DW$T$66, DW_AT_decl_column(0x03)
    7028              
    7029                      .dwendtag $C$DW$TU$66
    7030              
    7031              
    7032              $C$DW$TU$67     .dwtag  DW_TAG_type_unit
TMS320C2000 Assembler PC v22.6.0 Mon Sep  2 11:55:45 2024

Copyright (c) 1996-2018 Texas Instruments Incorporated
clllc_hal.asm                                                        PAGE  148

    7033                      .dwmtype  $C$DW$T$67
    7034              
    7035              $C$DW$T$67      .dwtag  DW_TAG_enumeration_type
    7036                      .dwattr $C$DW$T$67, DW_AT_byte_size(0x01)
    7037              $C$DW$491       .dwtag  DW_TAG_enumerator
    7038                      .dwattr $C$DW$491, DW_AT_name("EPWM_AQ_OUTPUT_A")
    7039                      .dwattr $C$DW$491, DW_AT_const_value(0x00)
    7040                      .dwattr $C$DW$491, DW_AT_decl_file("C:/Users/ZXC/Documents/mcu project/ti-project/clllc_nonpowerSUITE
    7041                      .dwattr $C$DW$491, DW_AT_decl_line(0x20d)
    7042                      .dwattr $C$DW$491, DW_AT_decl_column(0x05)
    7043              
    7044              $C$DW$492       .dwtag  DW_TAG_enumerator
    7045                      .dwattr $C$DW$492, DW_AT_name("EPWM_AQ_OUTPUT_B")
    7046                      .dwattr $C$DW$492, DW_AT_const_value(0x02)
    7047                      .dwattr $C$DW$492, DW_AT_decl_file("C:/Users/ZXC/Documents/mcu project/ti-project/clllc_nonpowerSUITE
    7048                      .dwattr $C$DW$492, DW_AT_decl_line(0x20e)
    7049                      .dwattr $C$DW$492, DW_AT_decl_column(0x05)
    7050              
    7051                      .dwattr $C$DW$T$67, DW_AT_decl_file("C:/Users/ZXC/Documents/mcu project/ti-project/clllc_nonpowerSUIT
    7052                      .dwattr $C$DW$T$67, DW_AT_decl_line(0x20c)
    7053                      .dwattr $C$DW$T$67, DW_AT_decl_column(0x01)
    7054                      .dwendtag $C$DW$T$67
    7055              
    7056                      .dwendtag $C$DW$TU$67
    7057              
    7058              
    7059              $C$DW$TU$68     .dwtag  DW_TAG_type_unit
    7060                      .dwmtype  $C$DW$T$68
    7061              $C$DW$T$68      .dwtag  DW_TAG_typedef
    7062                      .dwattr $C$DW$T$68, DW_AT_name("EPWM_ActionQualifierOutputModule")
    7063                      .dwattr $C$DW$T$68, DW_AT_type(*$C$DW$T$67)
    7064                      .dwattr $C$DW$T$68, DW_AT_decl_file("C:/Users/ZXC/Documents/mcu project/ti-project/clllc_nonpowerSUIT
    7065                      .dwattr $C$DW$T$68, DW_AT_decl_line(0x20f)
    7066                      .dwattr $C$DW$T$68, DW_AT_decl_column(0x03)
    7067              
    7068                      .dwendtag $C$DW$TU$68
    7069              
    7070              
    7071              $C$DW$TU$69     .dwtag  DW_TAG_type_unit
    7072                      .dwmtype  $C$DW$T$69
    7073              
    7074              $C$DW$T$69      .dwtag  DW_TAG_enumeration_type
    7075                      .dwattr $C$DW$T$69, DW_AT_byte_size(0x01)
    7076              $C$DW$493       .dwtag  DW_TAG_enumerator
    7077                      .dwattr $C$DW$493, DW_AT_name("EPWM_AQ_OUTPUT_NO_CHANGE")
    7078                      .dwattr $C$DW$493, DW_AT_const_value(0x00)
    7079                      .dwattr $C$DW$493, DW_AT_decl_file("C:/Users/ZXC/Documents/mcu project/ti-project/clllc_nonpowerSUITE
    7080                      .dwattr $C$DW$493, DW_AT_decl_line(0x18c)
    7081                      .dwattr $C$DW$493, DW_AT_decl_column(0x05)
    7082              
    7083              $C$DW$494       .dwtag  DW_TAG_enumerator
    7084                      .dwattr $C$DW$494, DW_AT_name("EPWM_AQ_OUTPUT_LOW")
    7085                      .dwattr $C$DW$494, DW_AT_const_value(0x01)
    7086                      .dwattr $C$DW$494, DW_AT_decl_file("C:/Users/ZXC/Documents/mcu project/ti-project/clllc_nonpowerSUITE
    7087                      .dwattr $C$DW$494, DW_AT_decl_line(0x18d)
TMS320C2000 Assembler PC v22.6.0 Mon Sep  2 11:55:45 2024

Copyright (c) 1996-2018 Texas Instruments Incorporated
clllc_hal.asm                                                        PAGE  149

    7088                      .dwattr $C$DW$494, DW_AT_decl_column(0x05)
    7089              
    7090              $C$DW$495       .dwtag  DW_TAG_enumerator
    7091                      .dwattr $C$DW$495, DW_AT_name("EPWM_AQ_OUTPUT_HIGH")
    7092                      .dwattr $C$DW$495, DW_AT_const_value(0x02)
    7093                      .dwattr $C$DW$495, DW_AT_decl_file("C:/Users/ZXC/Documents/mcu project/ti-project/clllc_nonpowerSUITE
    7094                      .dwattr $C$DW$495, DW_AT_decl_line(0x18e)
    7095                      .dwattr $C$DW$495, DW_AT_decl_column(0x05)
    7096              
    7097              $C$DW$496       .dwtag  DW_TAG_enumerator
    7098                      .dwattr $C$DW$496, DW_AT_name("EPWM_AQ_OUTPUT_TOGGLE")
    7099                      .dwattr $C$DW$496, DW_AT_const_value(0x03)
    7100                      .dwattr $C$DW$496, DW_AT_decl_file("C:/Users/ZXC/Documents/mcu project/ti-project/clllc_nonpowerSUITE
    7101                      .dwattr $C$DW$496, DW_AT_decl_line(0x18f)
    7102                      .dwattr $C$DW$496, DW_AT_decl_column(0x05)
    7103              
    7104                      .dwattr $C$DW$T$69, DW_AT_decl_file("C:/Users/ZXC/Documents/mcu project/ti-project/clllc_nonpowerSUIT
    7105                      .dwattr $C$DW$T$69, DW_AT_decl_line(0x18b)
    7106                      .dwattr $C$DW$T$69, DW_AT_decl_column(0x01)
    7107                      .dwendtag $C$DW$T$69
    7108              
    7109                      .dwendtag $C$DW$TU$69
    7110              
    7111              
    7112              $C$DW$TU$70     .dwtag  DW_TAG_type_unit
    7113                      .dwmtype  $C$DW$T$70
    7114              $C$DW$T$70      .dwtag  DW_TAG_typedef
    7115                      .dwattr $C$DW$T$70, DW_AT_name("EPWM_ActionQualifierOutput")
    7116                      .dwattr $C$DW$T$70, DW_AT_type(*$C$DW$T$69)
    7117                      .dwattr $C$DW$T$70, DW_AT_decl_file("C:/Users/ZXC/Documents/mcu project/ti-project/clllc_nonpowerSUIT
    7118                      .dwattr $C$DW$T$70, DW_AT_decl_line(0x190)
    7119                      .dwattr $C$DW$T$70, DW_AT_decl_column(0x03)
    7120              
    7121                      .dwendtag $C$DW$TU$70
    7122              
    7123              
    7124              $C$DW$TU$71     .dwtag  DW_TAG_type_unit
    7125                      .dwmtype  $C$DW$T$71
    7126              
    7127              $C$DW$T$71      .dwtag  DW_TAG_enumeration_type
    7128                      .dwattr $C$DW$T$71, DW_AT_byte_size(0x01)
    7129              $C$DW$497       .dwtag  DW_TAG_enumerator
    7130                      .dwattr $C$DW$497, DW_AT_name("EPWM_AQ_OUTPUT_ON_TIMEBASE_ZERO")
    7131                      .dwattr $C$DW$497, DW_AT_const_value(0x00)
    7132                      .dwattr $C$DW$497, DW_AT_decl_file("C:/Users/ZXC/Documents/mcu project/ti-project/clllc_nonpowerSUITE
    7133                      .dwattr $C$DW$497, DW_AT_decl_line(0x16f)
    7134                      .dwattr $C$DW$497, DW_AT_decl_column(0x05)
    7135              
    7136              $C$DW$498       .dwtag  DW_TAG_enumerator
    7137                      .dwattr $C$DW$498, DW_AT_name("EPWM_AQ_OUTPUT_ON_TIMEBASE_PERIOD")
    7138                      .dwattr $C$DW$498, DW_AT_const_value(0x02)
    7139                      .dwattr $C$DW$498, DW_AT_decl_file("C:/Users/ZXC/Documents/mcu project/ti-project/clllc_nonpowerSUITE
    7140                      .dwattr $C$DW$498, DW_AT_decl_line(0x171)
    7141                      .dwattr $C$DW$498, DW_AT_decl_column(0x05)
    7142              
TMS320C2000 Assembler PC v22.6.0 Mon Sep  2 11:55:45 2024

Copyright (c) 1996-2018 Texas Instruments Incorporated
clllc_hal.asm                                                        PAGE  150

    7143              $C$DW$499       .dwtag  DW_TAG_enumerator
    7144                      .dwattr $C$DW$499, DW_AT_name("EPWM_AQ_OUTPUT_ON_TIMEBASE_UP_CMPA")
    7145                      .dwattr $C$DW$499, DW_AT_const_value(0x04)
    7146                      .dwattr $C$DW$499, DW_AT_decl_file("C:/Users/ZXC/Documents/mcu project/ti-project/clllc_nonpowerSUITE
    7147                      .dwattr $C$DW$499, DW_AT_decl_line(0x173)
    7148                      .dwattr $C$DW$499, DW_AT_decl_column(0x05)
    7149              
    7150              $C$DW$500       .dwtag  DW_TAG_enumerator
    7151                      .dwattr $C$DW$500, DW_AT_name("EPWM_AQ_OUTPUT_ON_TIMEBASE_DOWN_CMPA")
    7152                      .dwattr $C$DW$500, DW_AT_const_value(0x06)
    7153                      .dwattr $C$DW$500, DW_AT_decl_file("C:/Users/ZXC/Documents/mcu project/ti-project/clllc_nonpowerSUITE
    7154                      .dwattr $C$DW$500, DW_AT_decl_line(0x175)
    7155                      .dwattr $C$DW$500, DW_AT_decl_column(0x05)
    7156              
    7157              $C$DW$501       .dwtag  DW_TAG_enumerator
    7158                      .dwattr $C$DW$501, DW_AT_name("EPWM_AQ_OUTPUT_ON_TIMEBASE_UP_CMPB")
    7159                      .dwattr $C$DW$501, DW_AT_const_value(0x08)
    7160                      .dwattr $C$DW$501, DW_AT_decl_file("C:/Users/ZXC/Documents/mcu project/ti-project/clllc_nonpowerSUITE
    7161                      .dwattr $C$DW$501, DW_AT_decl_line(0x177)
    7162                      .dwattr $C$DW$501, DW_AT_decl_column(0x05)
    7163              
    7164              $C$DW$502       .dwtag  DW_TAG_enumerator
    7165                      .dwattr $C$DW$502, DW_AT_name("EPWM_AQ_OUTPUT_ON_TIMEBASE_DOWN_CMPB")
    7166                      .dwattr $C$DW$502, DW_AT_const_value(0x0a)
    7167                      .dwattr $C$DW$502, DW_AT_decl_file("C:/Users/ZXC/Documents/mcu project/ti-project/clllc_nonpowerSUITE
    7168                      .dwattr $C$DW$502, DW_AT_decl_line(0x179)
    7169                      .dwattr $C$DW$502, DW_AT_decl_column(0x05)
    7170              
    7171              $C$DW$503       .dwtag  DW_TAG_enumerator
    7172                      .dwattr $C$DW$503, DW_AT_name("EPWM_AQ_OUTPUT_ON_T1_COUNT_UP")
    7173                      .dwattr $C$DW$503, DW_AT_const_value(0x01)
    7174                      .dwattr $C$DW$503, DW_AT_decl_file("C:/Users/ZXC/Documents/mcu project/ti-project/clllc_nonpowerSUITE
    7175                      .dwattr $C$DW$503, DW_AT_decl_line(0x17b)
    7176                      .dwattr $C$DW$503, DW_AT_decl_column(0x05)
    7177              
    7178              $C$DW$504       .dwtag  DW_TAG_enumerator
    7179                      .dwattr $C$DW$504, DW_AT_name("EPWM_AQ_OUTPUT_ON_T1_COUNT_DOWN")
    7180                      .dwattr $C$DW$504, DW_AT_const_value(0x03)
    7181                      .dwattr $C$DW$504, DW_AT_decl_file("C:/Users/ZXC/Documents/mcu project/ti-project/clllc_nonpowerSUITE
    7182                      .dwattr $C$DW$504, DW_AT_decl_line(0x17d)
    7183                      .dwattr $C$DW$504, DW_AT_decl_column(0x05)
    7184              
    7185              $C$DW$505       .dwtag  DW_TAG_enumerator
    7186                      .dwattr $C$DW$505, DW_AT_name("EPWM_AQ_OUTPUT_ON_T2_COUNT_UP")
    7187                      .dwattr $C$DW$505, DW_AT_const_value(0x05)
    7188                      .dwattr $C$DW$505, DW_AT_decl_file("C:/Users/ZXC/Documents/mcu project/ti-project/clllc_nonpowerSUITE
    7189                      .dwattr $C$DW$505, DW_AT_decl_line(0x17f)
    7190                      .dwattr $C$DW$505, DW_AT_decl_column(0x05)
    7191              
    7192              $C$DW$506       .dwtag  DW_TAG_enumerator
    7193                      .dwattr $C$DW$506, DW_AT_name("EPWM_AQ_OUTPUT_ON_T2_COUNT_DOWN")
    7194                      .dwattr $C$DW$506, DW_AT_const_value(0x07)
    7195                      .dwattr $C$DW$506, DW_AT_decl_file("C:/Users/ZXC/Documents/mcu project/ti-project/clllc_nonpowerSUITE
    7196                      .dwattr $C$DW$506, DW_AT_decl_line(0x181)
    7197                      .dwattr $C$DW$506, DW_AT_decl_column(0x05)
TMS320C2000 Assembler PC v22.6.0 Mon Sep  2 11:55:45 2024

Copyright (c) 1996-2018 Texas Instruments Incorporated
clllc_hal.asm                                                        PAGE  151

    7198              
    7199                      .dwattr $C$DW$T$71, DW_AT_decl_file("C:/Users/ZXC/Documents/mcu project/ti-project/clllc_nonpowerSUIT
    7200                      .dwattr $C$DW$T$71, DW_AT_decl_line(0x16d)
    7201                      .dwattr $C$DW$T$71, DW_AT_decl_column(0x01)
    7202                      .dwendtag $C$DW$T$71
    7203              
    7204                      .dwendtag $C$DW$TU$71
    7205              
    7206              
    7207              $C$DW$TU$72     .dwtag  DW_TAG_type_unit
    7208                      .dwmtype  $C$DW$T$72
    7209              $C$DW$T$72      .dwtag  DW_TAG_typedef
    7210                      .dwattr $C$DW$T$72, DW_AT_name("EPWM_ActionQualifierOutputEvent")
    7211                      .dwattr $C$DW$T$72, DW_AT_type(*$C$DW$T$71)
    7212                      .dwattr $C$DW$T$72, DW_AT_decl_file("C:/Users/ZXC/Documents/mcu project/ti-project/clllc_nonpowerSUIT
    7213                      .dwattr $C$DW$T$72, DW_AT_decl_line(0x182)
    7214                      .dwattr $C$DW$T$72, DW_AT_decl_column(0x03)
    7215              
    7216                      .dwendtag $C$DW$TU$72
    7217              
    7218              
    7219              $C$DW$TU$73     .dwtag  DW_TAG_type_unit
    7220                      .dwmtype  $C$DW$T$73
    7221              
    7222              $C$DW$T$73      .dwtag  DW_TAG_enumeration_type
    7223                      .dwattr $C$DW$T$73, DW_AT_byte_size(0x01)
    7224              $C$DW$507       .dwtag  DW_TAG_enumerator
    7225                      .dwattr $C$DW$507, DW_AT_name("EPWM_DB_RED")
    7226                      .dwattr $C$DW$507, DW_AT_const_value(0x01)
    7227                      .dwattr $C$DW$507, DW_AT_decl_file("C:/Users/ZXC/Documents/mcu project/ti-project/clllc_nonpowerSUITE
    7228                      .dwattr $C$DW$507, DW_AT_decl_line(0x237)
    7229                      .dwattr $C$DW$507, DW_AT_decl_column(0x05)
    7230              
    7231              $C$DW$508       .dwtag  DW_TAG_enumerator
    7232                      .dwattr $C$DW$508, DW_AT_name("EPWM_DB_FED")
    7233                      .dwattr $C$DW$508, DW_AT_const_value(0x00)
    7234                      .dwattr $C$DW$508, DW_AT_decl_file("C:/Users/ZXC/Documents/mcu project/ti-project/clllc_nonpowerSUITE
    7235                      .dwattr $C$DW$508, DW_AT_decl_line(0x238)
    7236                      .dwattr $C$DW$508, DW_AT_decl_column(0x05)
    7237              
    7238                      .dwattr $C$DW$T$73, DW_AT_decl_file("C:/Users/ZXC/Documents/mcu project/ti-project/clllc_nonpowerSUIT
    7239                      .dwattr $C$DW$T$73, DW_AT_decl_line(0x236)
    7240                      .dwattr $C$DW$T$73, DW_AT_decl_column(0x01)
    7241                      .dwendtag $C$DW$T$73
    7242              
    7243                      .dwendtag $C$DW$TU$73
    7244              
    7245              
    7246              $C$DW$TU$74     .dwtag  DW_TAG_type_unit
    7247                      .dwmtype  $C$DW$T$74
    7248              $C$DW$T$74      .dwtag  DW_TAG_typedef
    7249                      .dwattr $C$DW$T$74, DW_AT_name("EPWM_DeadBandDelayMode")
    7250                      .dwattr $C$DW$T$74, DW_AT_type(*$C$DW$T$73)
    7251                      .dwattr $C$DW$T$74, DW_AT_decl_file("C:/Users/ZXC/Documents/mcu project/ti-project/clllc_nonpowerSUIT
    7252                      .dwattr $C$DW$T$74, DW_AT_decl_line(0x239)
TMS320C2000 Assembler PC v22.6.0 Mon Sep  2 11:55:45 2024

Copyright (c) 1996-2018 Texas Instruments Incorporated
clllc_hal.asm                                                        PAGE  152

    7253                      .dwattr $C$DW$T$74, DW_AT_decl_column(0x03)
    7254              
    7255                      .dwendtag $C$DW$TU$74
    7256              
    7257              
    7258              $C$DW$TU$75     .dwtag  DW_TAG_type_unit
    7259                      .dwmtype  $C$DW$T$75
    7260              
    7261              $C$DW$T$75      .dwtag  DW_TAG_enumeration_type
    7262                      .dwattr $C$DW$T$75, DW_AT_byte_size(0x01)
    7263              $C$DW$509       .dwtag  DW_TAG_enumerator
    7264                      .dwattr $C$DW$509, DW_AT_name("EPWM_DB_POLARITY_ACTIVE_HIGH")
    7265                      .dwattr $C$DW$509, DW_AT_const_value(0x00)
    7266                      .dwattr $C$DW$509, DW_AT_decl_file("C:/Users/ZXC/Documents/mcu project/ti-project/clllc_nonpowerSUITE
    7267                      .dwattr $C$DW$509, DW_AT_decl_line(0x243)
    7268                      .dwattr $C$DW$509, DW_AT_decl_column(0x05)
    7269              
    7270              $C$DW$510       .dwtag  DW_TAG_enumerator
    7271                      .dwattr $C$DW$510, DW_AT_name("EPWM_DB_POLARITY_ACTIVE_LOW")
    7272                      .dwattr $C$DW$510, DW_AT_const_value(0x01)
    7273                      .dwattr $C$DW$510, DW_AT_decl_file("C:/Users/ZXC/Documents/mcu project/ti-project/clllc_nonpowerSUITE
    7274                      .dwattr $C$DW$510, DW_AT_decl_line(0x244)
    7275                      .dwattr $C$DW$510, DW_AT_decl_column(0x05)
    7276              
    7277                      .dwattr $C$DW$T$75, DW_AT_decl_file("C:/Users/ZXC/Documents/mcu project/ti-project/clllc_nonpowerSUIT
    7278                      .dwattr $C$DW$T$75, DW_AT_decl_line(0x242)
    7279                      .dwattr $C$DW$T$75, DW_AT_decl_column(0x01)
    7280                      .dwendtag $C$DW$T$75
    7281              
    7282                      .dwendtag $C$DW$TU$75
    7283              
    7284              
    7285              $C$DW$TU$76     .dwtag  DW_TAG_type_unit
    7286                      .dwmtype  $C$DW$T$76
    7287              $C$DW$T$76      .dwtag  DW_TAG_typedef
    7288                      .dwattr $C$DW$T$76, DW_AT_name("EPWM_DeadBandPolarity")
    7289                      .dwattr $C$DW$T$76, DW_AT_type(*$C$DW$T$75)
    7290                      .dwattr $C$DW$T$76, DW_AT_decl_file("C:/Users/ZXC/Documents/mcu project/ti-project/clllc_nonpowerSUIT
    7291                      .dwattr $C$DW$T$76, DW_AT_decl_line(0x245)
    7292                      .dwattr $C$DW$T$76, DW_AT_decl_column(0x03)
    7293              
    7294                      .dwendtag $C$DW$TU$76
    7295              
    7296              
    7297              $C$DW$TU$77     .dwtag  DW_TAG_type_unit
    7298                      .dwmtype  $C$DW$T$77
    7299              
    7300              $C$DW$T$77      .dwtag  DW_TAG_enumeration_type
    7301                      .dwattr $C$DW$T$77, DW_AT_byte_size(0x01)
    7302              $C$DW$511       .dwtag  DW_TAG_enumerator
    7303                      .dwattr $C$DW$511, DW_AT_name("EPWM_RED_LOAD_ON_CNTR_ZERO")
    7304                      .dwattr $C$DW$511, DW_AT_const_value(0x00)
    7305                      .dwattr $C$DW$511, DW_AT_decl_file("C:/Users/ZXC/Documents/mcu project/ti-project/clllc_nonpowerSUITE
    7306                      .dwattr $C$DW$511, DW_AT_decl_line(0x272)
    7307                      .dwattr $C$DW$511, DW_AT_decl_column(0x05)
TMS320C2000 Assembler PC v22.6.0 Mon Sep  2 11:55:45 2024

Copyright (c) 1996-2018 Texas Instruments Incorporated
clllc_hal.asm                                                        PAGE  153

    7308              
    7309              $C$DW$512       .dwtag  DW_TAG_enumerator
    7310                      .dwattr $C$DW$512, DW_AT_name("EPWM_RED_LOAD_ON_CNTR_PERIOD")
    7311                      .dwattr $C$DW$512, DW_AT_const_value(0x01)
    7312                      .dwattr $C$DW$512, DW_AT_decl_file("C:/Users/ZXC/Documents/mcu project/ti-project/clllc_nonpowerSUITE
    7313                      .dwattr $C$DW$512, DW_AT_decl_line(0x274)
    7314                      .dwattr $C$DW$512, DW_AT_decl_column(0x05)
    7315              
    7316              $C$DW$513       .dwtag  DW_TAG_enumerator
    7317                      .dwattr $C$DW$513, DW_AT_name("EPWM_RED_LOAD_ON_CNTR_ZERO_PERIOD")
    7318                      .dwattr $C$DW$513, DW_AT_const_value(0x02)
    7319                      .dwattr $C$DW$513, DW_AT_decl_file("C:/Users/ZXC/Documents/mcu project/ti-project/clllc_nonpowerSUITE
    7320                      .dwattr $C$DW$513, DW_AT_decl_line(0x276)
    7321                      .dwattr $C$DW$513, DW_AT_decl_column(0x05)
    7322              
    7323              $C$DW$514       .dwtag  DW_TAG_enumerator
    7324                      .dwattr $C$DW$514, DW_AT_name("EPWM_RED_LOAD_FREEZE")
    7325                      .dwattr $C$DW$514, DW_AT_const_value(0x03)
    7326                      .dwattr $C$DW$514, DW_AT_decl_file("C:/Users/ZXC/Documents/mcu project/ti-project/clllc_nonpowerSUITE
    7327                      .dwattr $C$DW$514, DW_AT_decl_line(0x278)
    7328                      .dwattr $C$DW$514, DW_AT_decl_column(0x05)
    7329              
    7330                      .dwattr $C$DW$T$77, DW_AT_decl_file("C:/Users/ZXC/Documents/mcu project/ti-project/clllc_nonpowerSUIT
    7331                      .dwattr $C$DW$T$77, DW_AT_decl_line(0x270)
    7332                      .dwattr $C$DW$T$77, DW_AT_decl_column(0x01)
    7333                      .dwendtag $C$DW$T$77
    7334              
    7335                      .dwendtag $C$DW$TU$77
    7336              
    7337              
    7338              $C$DW$TU$78     .dwtag  DW_TAG_type_unit
    7339                      .dwmtype  $C$DW$T$78
    7340              $C$DW$T$78      .dwtag  DW_TAG_typedef
    7341                      .dwattr $C$DW$T$78, DW_AT_name("EPWM_RisingEdgeDelayLoadMode")
    7342                      .dwattr $C$DW$T$78, DW_AT_type(*$C$DW$T$77)
    7343                      .dwattr $C$DW$T$78, DW_AT_decl_file("C:/Users/ZXC/Documents/mcu project/ti-project/clllc_nonpowerSUIT
    7344                      .dwattr $C$DW$T$78, DW_AT_decl_line(0x279)
    7345                      .dwattr $C$DW$T$78, DW_AT_decl_column(0x03)
    7346              
    7347                      .dwendtag $C$DW$TU$78
    7348              
    7349              
    7350              $C$DW$TU$79     .dwtag  DW_TAG_type_unit
    7351                      .dwmtype  $C$DW$T$79
    7352              
    7353              $C$DW$T$79      .dwtag  DW_TAG_enumeration_type
    7354                      .dwattr $C$DW$T$79, DW_AT_byte_size(0x01)
    7355              $C$DW$515       .dwtag  DW_TAG_enumerator
    7356                      .dwattr $C$DW$515, DW_AT_name("EPWM_FED_LOAD_ON_CNTR_ZERO")
    7357                      .dwattr $C$DW$515, DW_AT_const_value(0x00)
    7358                      .dwattr $C$DW$515, DW_AT_decl_file("C:/Users/ZXC/Documents/mcu project/ti-project/clllc_nonpowerSUITE
    7359                      .dwattr $C$DW$515, DW_AT_decl_line(0x284)
    7360                      .dwattr $C$DW$515, DW_AT_decl_column(0x05)
    7361              
    7362              $C$DW$516       .dwtag  DW_TAG_enumerator
TMS320C2000 Assembler PC v22.6.0 Mon Sep  2 11:55:45 2024

Copyright (c) 1996-2018 Texas Instruments Incorporated
clllc_hal.asm                                                        PAGE  154

    7363                      .dwattr $C$DW$516, DW_AT_name("EPWM_FED_LOAD_ON_CNTR_PERIOD")
    7364                      .dwattr $C$DW$516, DW_AT_const_value(0x01)
    7365                      .dwattr $C$DW$516, DW_AT_decl_file("C:/Users/ZXC/Documents/mcu project/ti-project/clllc_nonpowerSUITE
    7366                      .dwattr $C$DW$516, DW_AT_decl_line(0x286)
    7367                      .dwattr $C$DW$516, DW_AT_decl_column(0x05)
    7368              
    7369              $C$DW$517       .dwtag  DW_TAG_enumerator
    7370                      .dwattr $C$DW$517, DW_AT_name("EPWM_FED_LOAD_ON_CNTR_ZERO_PERIOD")
    7371                      .dwattr $C$DW$517, DW_AT_const_value(0x02)
    7372                      .dwattr $C$DW$517, DW_AT_decl_file("C:/Users/ZXC/Documents/mcu project/ti-project/clllc_nonpowerSUITE
    7373                      .dwattr $C$DW$517, DW_AT_decl_line(0x288)
    7374                      .dwattr $C$DW$517, DW_AT_decl_column(0x05)
    7375              
    7376              $C$DW$518       .dwtag  DW_TAG_enumerator
    7377                      .dwattr $C$DW$518, DW_AT_name("EPWM_FED_LOAD_FREEZE")
    7378                      .dwattr $C$DW$518, DW_AT_const_value(0x03)
    7379                      .dwattr $C$DW$518, DW_AT_decl_file("C:/Users/ZXC/Documents/mcu project/ti-project/clllc_nonpowerSUITE
    7380                      .dwattr $C$DW$518, DW_AT_decl_line(0x28a)
    7381                      .dwattr $C$DW$518, DW_AT_decl_column(0x05)
    7382              
    7383                      .dwattr $C$DW$T$79, DW_AT_decl_file("C:/Users/ZXC/Documents/mcu project/ti-project/clllc_nonpowerSUIT
    7384                      .dwattr $C$DW$T$79, DW_AT_decl_line(0x282)
    7385                      .dwattr $C$DW$T$79, DW_AT_decl_column(0x01)
    7386                      .dwendtag $C$DW$T$79
    7387              
    7388                      .dwendtag $C$DW$TU$79
    7389              
    7390              
    7391              $C$DW$TU$80     .dwtag  DW_TAG_type_unit
    7392                      .dwmtype  $C$DW$T$80
    7393              $C$DW$T$80      .dwtag  DW_TAG_typedef
    7394                      .dwattr $C$DW$T$80, DW_AT_name("EPWM_FallingEdgeDelayLoadMode")
    7395                      .dwattr $C$DW$T$80, DW_AT_type(*$C$DW$T$79)
    7396                      .dwattr $C$DW$T$80, DW_AT_decl_file("C:/Users/ZXC/Documents/mcu project/ti-project/clllc_nonpowerSUIT
    7397                      .dwattr $C$DW$T$80, DW_AT_decl_line(0x28b)
    7398                      .dwattr $C$DW$T$80, DW_AT_decl_column(0x03)
    7399              
    7400                      .dwendtag $C$DW$TU$80
    7401              
    7402              
    7403              $C$DW$TU$81     .dwtag  DW_TAG_type_unit
    7404                      .dwmtype  $C$DW$T$81
    7405              
    7406              $C$DW$T$81      .dwtag  DW_TAG_enumeration_type
    7407                      .dwattr $C$DW$T$81, DW_AT_byte_size(0x01)
    7408              $C$DW$519       .dwtag  DW_TAG_enumerator
    7409                      .dwattr $C$DW$519, DW_AT_name("EPWM_DB_COUNTER_CLOCK_FULL_CYCLE")
    7410                      .dwattr $C$DW$519, DW_AT_const_value(0x00)
    7411                      .dwattr $C$DW$519, DW_AT_decl_file("C:/Users/ZXC/Documents/mcu project/ti-project/clllc_nonpowerSUITE
    7412                      .dwattr $C$DW$519, DW_AT_decl_line(0x296)
    7413                      .dwattr $C$DW$519, DW_AT_decl_column(0x05)
    7414              
    7415              $C$DW$520       .dwtag  DW_TAG_enumerator
    7416                      .dwattr $C$DW$520, DW_AT_name("EPWM_DB_COUNTER_CLOCK_HALF_CYCLE")
    7417                      .dwattr $C$DW$520, DW_AT_const_value(0x01)
TMS320C2000 Assembler PC v22.6.0 Mon Sep  2 11:55:45 2024

Copyright (c) 1996-2018 Texas Instruments Incorporated
clllc_hal.asm                                                        PAGE  155

    7418                      .dwattr $C$DW$520, DW_AT_decl_file("C:/Users/ZXC/Documents/mcu project/ti-project/clllc_nonpowerSUITE
    7419                      .dwattr $C$DW$520, DW_AT_decl_line(0x298)
    7420                      .dwattr $C$DW$520, DW_AT_decl_column(0x05)
    7421              
    7422                      .dwattr $C$DW$T$81, DW_AT_decl_file("C:/Users/ZXC/Documents/mcu project/ti-project/clllc_nonpowerSUIT
    7423                      .dwattr $C$DW$T$81, DW_AT_decl_line(0x294)
    7424                      .dwattr $C$DW$T$81, DW_AT_decl_column(0x01)
    7425                      .dwendtag $C$DW$T$81
    7426              
    7427                      .dwendtag $C$DW$TU$81
    7428              
    7429              
    7430              $C$DW$TU$82     .dwtag  DW_TAG_type_unit
    7431                      .dwmtype  $C$DW$T$82
    7432              $C$DW$T$82      .dwtag  DW_TAG_typedef
    7433                      .dwattr $C$DW$T$82, DW_AT_name("EPWM_DeadBandClockMode")
    7434                      .dwattr $C$DW$T$82, DW_AT_type(*$C$DW$T$81)
    7435                      .dwattr $C$DW$T$82, DW_AT_decl_file("C:/Users/ZXC/Documents/mcu project/ti-project/clllc_nonpowerSUIT
    7436                      .dwattr $C$DW$T$82, DW_AT_decl_line(0x299)
    7437                      .dwattr $C$DW$T$82, DW_AT_decl_column(0x03)
    7438              
    7439                      .dwendtag $C$DW$TU$82
    7440              
    7441              
    7442              $C$DW$TU$83     .dwtag  DW_TAG_type_unit
    7443                      .dwmtype  $C$DW$T$83
    7444              
    7445              $C$DW$T$83      .dwtag  DW_TAG_enumeration_type
    7446                      .dwattr $C$DW$T$83, DW_AT_byte_size(0x01)
    7447              $C$DW$521       .dwtag  DW_TAG_enumerator
    7448                      .dwattr $C$DW$521, DW_AT_name("EPWM_TZ_DC_OUTPUT_A1")
    7449                      .dwattr $C$DW$521, DW_AT_const_value(0x00)
    7450                      .dwattr $C$DW$521, DW_AT_decl_file("C:/Users/ZXC/Documents/mcu project/ti-project/clllc_nonpowerSUITE
    7451                      .dwattr $C$DW$521, DW_AT_decl_line(0x2dd)
    7452                      .dwattr $C$DW$521, DW_AT_decl_column(0x05)
    7453              
    7454              $C$DW$522       .dwtag  DW_TAG_enumerator
    7455                      .dwattr $C$DW$522, DW_AT_name("EPWM_TZ_DC_OUTPUT_A2")
    7456                      .dwattr $C$DW$522, DW_AT_const_value(0x03)
    7457                      .dwattr $C$DW$522, DW_AT_decl_file("C:/Users/ZXC/Documents/mcu project/ti-project/clllc_nonpowerSUITE
    7458                      .dwattr $C$DW$522, DW_AT_decl_line(0x2de)
    7459                      .dwattr $C$DW$522, DW_AT_decl_column(0x05)
    7460              
    7461              $C$DW$523       .dwtag  DW_TAG_enumerator
    7462                      .dwattr $C$DW$523, DW_AT_name("EPWM_TZ_DC_OUTPUT_B1")
    7463                      .dwattr $C$DW$523, DW_AT_const_value(0x06)
    7464                      .dwattr $C$DW$523, DW_AT_decl_file("C:/Users/ZXC/Documents/mcu project/ti-project/clllc_nonpowerSUITE
    7465                      .dwattr $C$DW$523, DW_AT_decl_line(0x2df)
    7466                      .dwattr $C$DW$523, DW_AT_decl_column(0x05)
    7467              
    7468              $C$DW$524       .dwtag  DW_TAG_enumerator
    7469                      .dwattr $C$DW$524, DW_AT_name("EPWM_TZ_DC_OUTPUT_B2")
    7470                      .dwattr $C$DW$524, DW_AT_const_value(0x09)
    7471                      .dwattr $C$DW$524, DW_AT_decl_file("C:/Users/ZXC/Documents/mcu project/ti-project/clllc_nonpowerSUITE
    7472                      .dwattr $C$DW$524, DW_AT_decl_line(0x2e0)
TMS320C2000 Assembler PC v22.6.0 Mon Sep  2 11:55:45 2024

Copyright (c) 1996-2018 Texas Instruments Incorporated
clllc_hal.asm                                                        PAGE  156

    7473                      .dwattr $C$DW$524, DW_AT_decl_column(0x05)
    7474              
    7475                      .dwattr $C$DW$T$83, DW_AT_decl_file("C:/Users/ZXC/Documents/mcu project/ti-project/clllc_nonpowerSUIT
    7476                      .dwattr $C$DW$T$83, DW_AT_decl_line(0x2dc)
    7477                      .dwattr $C$DW$T$83, DW_AT_decl_column(0x01)
    7478                      .dwendtag $C$DW$T$83
    7479              
    7480                      .dwendtag $C$DW$TU$83
    7481              
    7482              
    7483              $C$DW$TU$84     .dwtag  DW_TAG_type_unit
    7484                      .dwmtype  $C$DW$T$84
    7485              $C$DW$T$84      .dwtag  DW_TAG_typedef
    7486                      .dwattr $C$DW$T$84, DW_AT_name("EPWM_TripZoneDigitalCompareOutput")
    7487                      .dwattr $C$DW$T$84, DW_AT_type(*$C$DW$T$83)
    7488                      .dwattr $C$DW$T$84, DW_AT_decl_file("C:/Users/ZXC/Documents/mcu project/ti-project/clllc_nonpowerSUIT
    7489                      .dwattr $C$DW$T$84, DW_AT_decl_line(0x2e1)
    7490                      .dwattr $C$DW$T$84, DW_AT_decl_column(0x03)
    7491              
    7492                      .dwendtag $C$DW$TU$84
    7493              
    7494              
    7495              $C$DW$TU$85     .dwtag  DW_TAG_type_unit
    7496                      .dwmtype  $C$DW$T$85
    7497              
    7498              $C$DW$T$85      .dwtag  DW_TAG_enumeration_type
    7499                      .dwattr $C$DW$T$85, DW_AT_byte_size(0x01)
    7500              $C$DW$525       .dwtag  DW_TAG_enumerator
    7501                      .dwattr $C$DW$525, DW_AT_name("EPWM_TZ_EVENT_DC_DISABLED")
    7502                      .dwattr $C$DW$525, DW_AT_const_value(0x00)
    7503                      .dwattr $C$DW$525, DW_AT_decl_file("C:/Users/ZXC/Documents/mcu project/ti-project/clllc_nonpowerSUITE
    7504                      .dwattr $C$DW$525, DW_AT_decl_line(0x2eb)
    7505                      .dwattr $C$DW$525, DW_AT_decl_column(0x05)
    7506              
    7507              $C$DW$526       .dwtag  DW_TAG_enumerator
    7508                      .dwattr $C$DW$526, DW_AT_name("EPWM_TZ_EVENT_DCXH_LOW")
    7509                      .dwattr $C$DW$526, DW_AT_const_value(0x01)
    7510                      .dwattr $C$DW$526, DW_AT_decl_file("C:/Users/ZXC/Documents/mcu project/ti-project/clllc_nonpowerSUITE
    7511                      .dwattr $C$DW$526, DW_AT_decl_line(0x2ec)
    7512                      .dwattr $C$DW$526, DW_AT_decl_column(0x05)
    7513              
    7514              $C$DW$527       .dwtag  DW_TAG_enumerator
    7515                      .dwattr $C$DW$527, DW_AT_name("EPWM_TZ_EVENT_DCXH_HIGH")
    7516                      .dwattr $C$DW$527, DW_AT_const_value(0x02)
    7517                      .dwattr $C$DW$527, DW_AT_decl_file("C:/Users/ZXC/Documents/mcu project/ti-project/clllc_nonpowerSUITE
    7518                      .dwattr $C$DW$527, DW_AT_decl_line(0x2ed)
    7519                      .dwattr $C$DW$527, DW_AT_decl_column(0x05)
    7520              
    7521              $C$DW$528       .dwtag  DW_TAG_enumerator
    7522                      .dwattr $C$DW$528, DW_AT_name("EPWM_TZ_EVENT_DCXL_LOW")
    7523                      .dwattr $C$DW$528, DW_AT_const_value(0x03)
    7524                      .dwattr $C$DW$528, DW_AT_decl_file("C:/Users/ZXC/Documents/mcu project/ti-project/clllc_nonpowerSUITE
    7525                      .dwattr $C$DW$528, DW_AT_decl_line(0x2ee)
    7526                      .dwattr $C$DW$528, DW_AT_decl_column(0x05)
    7527              
TMS320C2000 Assembler PC v22.6.0 Mon Sep  2 11:55:45 2024

Copyright (c) 1996-2018 Texas Instruments Incorporated
clllc_hal.asm                                                        PAGE  157

    7528              $C$DW$529       .dwtag  DW_TAG_enumerator
    7529                      .dwattr $C$DW$529, DW_AT_name("EPWM_TZ_EVENT_DCXL_HIGH")
    7530                      .dwattr $C$DW$529, DW_AT_const_value(0x04)
    7531                      .dwattr $C$DW$529, DW_AT_decl_file("C:/Users/ZXC/Documents/mcu project/ti-project/clllc_nonpowerSUITE
    7532                      .dwattr $C$DW$529, DW_AT_decl_line(0x2ef)
    7533                      .dwattr $C$DW$529, DW_AT_decl_column(0x05)
    7534              
    7535              $C$DW$530       .dwtag  DW_TAG_enumerator
    7536                      .dwattr $C$DW$530, DW_AT_name("EPWM_TZ_EVENT_DCXL_HIGH_DCXH_LOW")
    7537                      .dwattr $C$DW$530, DW_AT_const_value(0x05)
    7538                      .dwattr $C$DW$530, DW_AT_decl_file("C:/Users/ZXC/Documents/mcu project/ti-project/clllc_nonpowerSUITE
    7539                      .dwattr $C$DW$530, DW_AT_decl_line(0x2f0)
    7540                      .dwattr $C$DW$530, DW_AT_decl_column(0x05)
    7541              
    7542                      .dwattr $C$DW$T$85, DW_AT_decl_file("C:/Users/ZXC/Documents/mcu project/ti-project/clllc_nonpowerSUIT
    7543                      .dwattr $C$DW$T$85, DW_AT_decl_line(0x2ea)
    7544                      .dwattr $C$DW$T$85, DW_AT_decl_column(0x01)
    7545                      .dwendtag $C$DW$T$85
    7546              
    7547                      .dwendtag $C$DW$TU$85
    7548              
    7549              
    7550              $C$DW$TU$86     .dwtag  DW_TAG_type_unit
    7551                      .dwmtype  $C$DW$T$86
    7552              $C$DW$T$86      .dwtag  DW_TAG_typedef
    7553                      .dwattr $C$DW$T$86, DW_AT_name("EPWM_TripZoneDigitalCompareOutputEvent")
    7554                      .dwattr $C$DW$T$86, DW_AT_type(*$C$DW$T$85)
    7555                      .dwattr $C$DW$T$86, DW_AT_decl_file("C:/Users/ZXC/Documents/mcu project/ti-project/clllc_nonpowerSUIT
    7556                      .dwattr $C$DW$T$86, DW_AT_decl_line(0x2f1)
    7557                      .dwattr $C$DW$T$86, DW_AT_decl_column(0x03)
    7558              
    7559                      .dwendtag $C$DW$TU$86
    7560              
    7561              
    7562              $C$DW$TU$87     .dwtag  DW_TAG_type_unit
    7563                      .dwmtype  $C$DW$T$87
    7564              
    7565              $C$DW$T$87      .dwtag  DW_TAG_enumeration_type
    7566                      .dwattr $C$DW$T$87, DW_AT_byte_size(0x01)
    7567              $C$DW$531       .dwtag  DW_TAG_enumerator
    7568                      .dwattr $C$DW$531, DW_AT_name("EPWM_TZ_ACTION_EVENT_TZA")
    7569                      .dwattr $C$DW$531, DW_AT_const_value(0x00)
    7570                      .dwattr $C$DW$531, DW_AT_decl_file("C:/Users/ZXC/Documents/mcu project/ti-project/clllc_nonpowerSUITE
    7571                      .dwattr $C$DW$531, DW_AT_decl_line(0x2fb)
    7572                      .dwattr $C$DW$531, DW_AT_decl_column(0x05)
    7573              
    7574              $C$DW$532       .dwtag  DW_TAG_enumerator
    7575                      .dwattr $C$DW$532, DW_AT_name("EPWM_TZ_ACTION_EVENT_TZB")
    7576                      .dwattr $C$DW$532, DW_AT_const_value(0x02)
    7577                      .dwattr $C$DW$532, DW_AT_decl_file("C:/Users/ZXC/Documents/mcu project/ti-project/clllc_nonpowerSUITE
    7578                      .dwattr $C$DW$532, DW_AT_decl_line(0x2fc)
    7579                      .dwattr $C$DW$532, DW_AT_decl_column(0x05)
    7580              
    7581              $C$DW$533       .dwtag  DW_TAG_enumerator
    7582                      .dwattr $C$DW$533, DW_AT_name("EPWM_TZ_ACTION_EVENT_DCAEVT1")
TMS320C2000 Assembler PC v22.6.0 Mon Sep  2 11:55:45 2024

Copyright (c) 1996-2018 Texas Instruments Incorporated
clllc_hal.asm                                                        PAGE  158

    7583                      .dwattr $C$DW$533, DW_AT_const_value(0x04)
    7584                      .dwattr $C$DW$533, DW_AT_decl_file("C:/Users/ZXC/Documents/mcu project/ti-project/clllc_nonpowerSUITE
    7585                      .dwattr $C$DW$533, DW_AT_decl_line(0x2fd)
    7586                      .dwattr $C$DW$533, DW_AT_decl_column(0x05)
    7587              
    7588              $C$DW$534       .dwtag  DW_TAG_enumerator
    7589                      .dwattr $C$DW$534, DW_AT_name("EPWM_TZ_ACTION_EVENT_DCAEVT2")
    7590                      .dwattr $C$DW$534, DW_AT_const_value(0x06)
    7591                      .dwattr $C$DW$534, DW_AT_decl_file("C:/Users/ZXC/Documents/mcu project/ti-project/clllc_nonpowerSUITE
    7592                      .dwattr $C$DW$534, DW_AT_decl_line(0x2fe)
    7593                      .dwattr $C$DW$534, DW_AT_decl_column(0x05)
    7594              
    7595              $C$DW$535       .dwtag  DW_TAG_enumerator
    7596                      .dwattr $C$DW$535, DW_AT_name("EPWM_TZ_ACTION_EVENT_DCBEVT1")
    7597                      .dwattr $C$DW$535, DW_AT_const_value(0x08)
    7598                      .dwattr $C$DW$535, DW_AT_decl_file("C:/Users/ZXC/Documents/mcu project/ti-project/clllc_nonpowerSUITE
    7599                      .dwattr $C$DW$535, DW_AT_decl_line(0x2ff)
    7600                      .dwattr $C$DW$535, DW_AT_decl_column(0x05)
    7601              
    7602              $C$DW$536       .dwtag  DW_TAG_enumerator
    7603                      .dwattr $C$DW$536, DW_AT_name("EPWM_TZ_ACTION_EVENT_DCBEVT2")
    7604                      .dwattr $C$DW$536, DW_AT_const_value(0x0a)
    7605                      .dwattr $C$DW$536, DW_AT_decl_file("C:/Users/ZXC/Documents/mcu project/ti-project/clllc_nonpowerSUITE
    7606                      .dwattr $C$DW$536, DW_AT_decl_line(0x300)
    7607                      .dwattr $C$DW$536, DW_AT_decl_column(0x05)
    7608              
    7609                      .dwattr $C$DW$T$87, DW_AT_decl_file("C:/Users/ZXC/Documents/mcu project/ti-project/clllc_nonpowerSUIT
    7610                      .dwattr $C$DW$T$87, DW_AT_decl_line(0x2fa)
    7611                      .dwattr $C$DW$T$87, DW_AT_decl_column(0x01)
    7612                      .dwendtag $C$DW$T$87
    7613              
    7614                      .dwendtag $C$DW$TU$87
    7615              
    7616              
    7617              $C$DW$TU$88     .dwtag  DW_TAG_type_unit
    7618                      .dwmtype  $C$DW$T$88
    7619              $C$DW$T$88      .dwtag  DW_TAG_typedef
    7620                      .dwattr $C$DW$T$88, DW_AT_name("EPWM_TripZoneEvent")
    7621                      .dwattr $C$DW$T$88, DW_AT_type(*$C$DW$T$87)
    7622                      .dwattr $C$DW$T$88, DW_AT_decl_file("C:/Users/ZXC/Documents/mcu project/ti-project/clllc_nonpowerSUIT
    7623                      .dwattr $C$DW$T$88, DW_AT_decl_line(0x301)
    7624                      .dwattr $C$DW$T$88, DW_AT_decl_column(0x03)
    7625              
    7626                      .dwendtag $C$DW$TU$88
    7627              
    7628              
    7629              $C$DW$TU$89     .dwtag  DW_TAG_type_unit
    7630                      .dwmtype  $C$DW$T$89
    7631              
    7632              $C$DW$T$89      .dwtag  DW_TAG_enumeration_type
    7633                      .dwattr $C$DW$T$89, DW_AT_byte_size(0x01)
    7634              $C$DW$537       .dwtag  DW_TAG_enumerator
    7635                      .dwattr $C$DW$537, DW_AT_name("EPWM_TZ_ACTION_HIGH_Z")
    7636                      .dwattr $C$DW$537, DW_AT_const_value(0x00)
    7637                      .dwattr $C$DW$537, DW_AT_decl_file("C:/Users/ZXC/Documents/mcu project/ti-project/clllc_nonpowerSUITE
TMS320C2000 Assembler PC v22.6.0 Mon Sep  2 11:55:45 2024

Copyright (c) 1996-2018 Texas Instruments Incorporated
clllc_hal.asm                                                        PAGE  159

    7638                      .dwattr $C$DW$537, DW_AT_decl_line(0x30b)
    7639                      .dwattr $C$DW$537, DW_AT_decl_column(0x05)
    7640              
    7641              $C$DW$538       .dwtag  DW_TAG_enumerator
    7642                      .dwattr $C$DW$538, DW_AT_name("EPWM_TZ_ACTION_HIGH")
    7643                      .dwattr $C$DW$538, DW_AT_const_value(0x01)
    7644                      .dwattr $C$DW$538, DW_AT_decl_file("C:/Users/ZXC/Documents/mcu project/ti-project/clllc_nonpowerSUITE
    7645                      .dwattr $C$DW$538, DW_AT_decl_line(0x30c)
    7646                      .dwattr $C$DW$538, DW_AT_decl_column(0x05)
    7647              
    7648              $C$DW$539       .dwtag  DW_TAG_enumerator
    7649                      .dwattr $C$DW$539, DW_AT_name("EPWM_TZ_ACTION_LOW")
    7650                      .dwattr $C$DW$539, DW_AT_const_value(0x02)
    7651                      .dwattr $C$DW$539, DW_AT_decl_file("C:/Users/ZXC/Documents/mcu project/ti-project/clllc_nonpowerSUITE
    7652                      .dwattr $C$DW$539, DW_AT_decl_line(0x30d)
    7653                      .dwattr $C$DW$539, DW_AT_decl_column(0x05)
    7654              
    7655              $C$DW$540       .dwtag  DW_TAG_enumerator
    7656                      .dwattr $C$DW$540, DW_AT_name("EPWM_TZ_ACTION_DISABLE")
    7657                      .dwattr $C$DW$540, DW_AT_const_value(0x03)
    7658                      .dwattr $C$DW$540, DW_AT_decl_file("C:/Users/ZXC/Documents/mcu project/ti-project/clllc_nonpowerSUITE
    7659                      .dwattr $C$DW$540, DW_AT_decl_line(0x30e)
    7660                      .dwattr $C$DW$540, DW_AT_decl_column(0x05)
    7661              
    7662                      .dwattr $C$DW$T$89, DW_AT_decl_file("C:/Users/ZXC/Documents/mcu project/ti-project/clllc_nonpowerSUIT
    7663                      .dwattr $C$DW$T$89, DW_AT_decl_line(0x30a)
    7664                      .dwattr $C$DW$T$89, DW_AT_decl_column(0x01)
    7665                      .dwendtag $C$DW$T$89
    7666              
    7667                      .dwendtag $C$DW$TU$89
    7668              
    7669              
    7670              $C$DW$TU$90     .dwtag  DW_TAG_type_unit
    7671                      .dwmtype  $C$DW$T$90
    7672              $C$DW$T$90      .dwtag  DW_TAG_typedef
    7673                      .dwattr $C$DW$T$90, DW_AT_name("EPWM_TripZoneAction")
    7674                      .dwattr $C$DW$T$90, DW_AT_type(*$C$DW$T$89)
    7675                      .dwattr $C$DW$T$90, DW_AT_decl_file("C:/Users/ZXC/Documents/mcu project/ti-project/clllc_nonpowerSUIT
    7676                      .dwattr $C$DW$T$90, DW_AT_decl_line(0x30f)
    7677                      .dwattr $C$DW$T$90, DW_AT_decl_column(0x03)
    7678              
    7679                      .dwendtag $C$DW$TU$90
    7680              
    7681              
    7682              $C$DW$TU$91     .dwtag  DW_TAG_type_unit
    7683                      .dwmtype  $C$DW$T$91
    7684              
    7685              $C$DW$T$91      .dwtag  DW_TAG_enumeration_type
    7686                      .dwattr $C$DW$T$91, DW_AT_byte_size(0x01)
    7687              $C$DW$541       .dwtag  DW_TAG_enumerator
    7688                      .dwattr $C$DW$541, DW_AT_name("EPWM_TZ_ADV_ACTION_EVENT_DCxEVT1_U")
    7689                      .dwattr $C$DW$541, DW_AT_const_value(0x00)
    7690                      .dwattr $C$DW$541, DW_AT_decl_file("C:/Users/ZXC/Documents/mcu project/ti-project/clllc_nonpowerSUITE
    7691                      .dwattr $C$DW$541, DW_AT_decl_line(0x33d)
    7692                      .dwattr $C$DW$541, DW_AT_decl_column(0x05)
TMS320C2000 Assembler PC v22.6.0 Mon Sep  2 11:55:45 2024

Copyright (c) 1996-2018 Texas Instruments Incorporated
clllc_hal.asm                                                        PAGE  160

    7693              
    7694              $C$DW$542       .dwtag  DW_TAG_enumerator
    7695                      .dwattr $C$DW$542, DW_AT_name("EPWM_TZ_ADV_ACTION_EVENT_DCxEVT1_D")
    7696                      .dwattr $C$DW$542, DW_AT_const_value(0x03)
    7697                      .dwattr $C$DW$542, DW_AT_decl_file("C:/Users/ZXC/Documents/mcu project/ti-project/clllc_nonpowerSUITE
    7698                      .dwattr $C$DW$542, DW_AT_decl_line(0x33f)
    7699                      .dwattr $C$DW$542, DW_AT_decl_column(0x05)
    7700              
    7701              $C$DW$543       .dwtag  DW_TAG_enumerator
    7702                      .dwattr $C$DW$543, DW_AT_name("EPWM_TZ_ADV_ACTION_EVENT_DCxEVT2_U")
    7703                      .dwattr $C$DW$543, DW_AT_const_value(0x06)
    7704                      .dwattr $C$DW$543, DW_AT_decl_file("C:/Users/ZXC/Documents/mcu project/ti-project/clllc_nonpowerSUITE
    7705                      .dwattr $C$DW$543, DW_AT_decl_line(0x341)
    7706                      .dwattr $C$DW$543, DW_AT_decl_column(0x05)
    7707              
    7708              $C$DW$544       .dwtag  DW_TAG_enumerator
    7709                      .dwattr $C$DW$544, DW_AT_name("EPWM_TZ_ADV_ACTION_EVENT_DCxEVT2_D")
    7710                      .dwattr $C$DW$544, DW_AT_const_value(0x09)
    7711                      .dwattr $C$DW$544, DW_AT_decl_file("C:/Users/ZXC/Documents/mcu project/ti-project/clllc_nonpowerSUITE
    7712                      .dwattr $C$DW$544, DW_AT_decl_line(0x343)
    7713                      .dwattr $C$DW$544, DW_AT_decl_column(0x05)
    7714              
    7715                      .dwattr $C$DW$T$91, DW_AT_decl_file("C:/Users/ZXC/Documents/mcu project/ti-project/clllc_nonpowerSUIT
    7716                      .dwattr $C$DW$T$91, DW_AT_decl_line(0x33b)
    7717                      .dwattr $C$DW$T$91, DW_AT_decl_column(0x01)
    7718                      .dwendtag $C$DW$T$91
    7719              
    7720                      .dwendtag $C$DW$TU$91
    7721              
    7722              
    7723              $C$DW$TU$92     .dwtag  DW_TAG_type_unit
    7724                      .dwmtype  $C$DW$T$92
    7725              $C$DW$T$92      .dwtag  DW_TAG_typedef
    7726                      .dwattr $C$DW$T$92, DW_AT_name("EPWM_TripZoneAdvDigitalCompareEvent")
    7727                      .dwattr $C$DW$T$92, DW_AT_type(*$C$DW$T$91)
    7728                      .dwattr $C$DW$T$92, DW_AT_decl_file("C:/Users/ZXC/Documents/mcu project/ti-project/clllc_nonpowerSUIT
    7729                      .dwattr $C$DW$T$92, DW_AT_decl_line(0x344)
    7730                      .dwattr $C$DW$T$92, DW_AT_decl_column(0x03)
    7731              
    7732                      .dwendtag $C$DW$TU$92
    7733              
    7734              
    7735              $C$DW$TU$93     .dwtag  DW_TAG_type_unit
    7736                      .dwmtype  $C$DW$T$93
    7737              
    7738              $C$DW$T$93      .dwtag  DW_TAG_enumeration_type
    7739                      .dwattr $C$DW$T$93, DW_AT_byte_size(0x01)
    7740              $C$DW$545       .dwtag  DW_TAG_enumerator
    7741                      .dwattr $C$DW$545, DW_AT_name("EPWM_TZ_ADV_ACTION_HIGH_Z")
    7742                      .dwattr $C$DW$545, DW_AT_const_value(0x00)
    7743                      .dwattr $C$DW$545, DW_AT_decl_file("C:/Users/ZXC/Documents/mcu project/ti-project/clllc_nonpowerSUITE
    7744                      .dwattr $C$DW$545, DW_AT_decl_line(0x32c)
    7745                      .dwattr $C$DW$545, DW_AT_decl_column(0x05)
    7746              
    7747              $C$DW$546       .dwtag  DW_TAG_enumerator
TMS320C2000 Assembler PC v22.6.0 Mon Sep  2 11:55:45 2024

Copyright (c) 1996-2018 Texas Instruments Incorporated
clllc_hal.asm                                                        PAGE  161

    7748                      .dwattr $C$DW$546, DW_AT_name("EPWM_TZ_ADV_ACTION_HIGH")
    7749                      .dwattr $C$DW$546, DW_AT_const_value(0x01)
    7750                      .dwattr $C$DW$546, DW_AT_decl_file("C:/Users/ZXC/Documents/mcu project/ti-project/clllc_nonpowerSUITE
    7751                      .dwattr $C$DW$546, DW_AT_decl_line(0x32d)
    7752                      .dwattr $C$DW$546, DW_AT_decl_column(0x05)
    7753              
    7754              $C$DW$547       .dwtag  DW_TAG_enumerator
    7755                      .dwattr $C$DW$547, DW_AT_name("EPWM_TZ_ADV_ACTION_LOW")
    7756                      .dwattr $C$DW$547, DW_AT_const_value(0x02)
    7757                      .dwattr $C$DW$547, DW_AT_decl_file("C:/Users/ZXC/Documents/mcu project/ti-project/clllc_nonpowerSUITE
    7758                      .dwattr $C$DW$547, DW_AT_decl_line(0x32e)
    7759                      .dwattr $C$DW$547, DW_AT_decl_column(0x05)
    7760              
    7761              $C$DW$548       .dwtag  DW_TAG_enumerator
    7762                      .dwattr $C$DW$548, DW_AT_name("EPWM_TZ_ADV_ACTION_TOGGLE")
    7763                      .dwattr $C$DW$548, DW_AT_const_value(0x03)
    7764                      .dwattr $C$DW$548, DW_AT_decl_file("C:/Users/ZXC/Documents/mcu project/ti-project/clllc_nonpowerSUITE
    7765                      .dwattr $C$DW$548, DW_AT_decl_line(0x32f)
    7766                      .dwattr $C$DW$548, DW_AT_decl_column(0x05)
    7767              
    7768              $C$DW$549       .dwtag  DW_TAG_enumerator
    7769                      .dwattr $C$DW$549, DW_AT_name("EPWM_TZ_ADV_ACTION_DISABLE")
    7770                      .dwattr $C$DW$549, DW_AT_const_value(0x07)
    7771                      .dwattr $C$DW$549, DW_AT_decl_file("C:/Users/ZXC/Documents/mcu project/ti-project/clllc_nonpowerSUITE
    7772                      .dwattr $C$DW$549, DW_AT_decl_line(0x330)
    7773                      .dwattr $C$DW$549, DW_AT_decl_column(0x05)
    7774              
    7775                      .dwattr $C$DW$T$93, DW_AT_decl_file("C:/Users/ZXC/Documents/mcu project/ti-project/clllc_nonpowerSUIT
    7776                      .dwattr $C$DW$T$93, DW_AT_decl_line(0x32b)
    7777                      .dwattr $C$DW$T$93, DW_AT_decl_column(0x01)
    7778                      .dwendtag $C$DW$T$93
    7779              
    7780                      .dwendtag $C$DW$TU$93
    7781              
    7782              
    7783              $C$DW$TU$94     .dwtag  DW_TAG_type_unit
    7784                      .dwmtype  $C$DW$T$94
    7785              $C$DW$T$94      .dwtag  DW_TAG_typedef
    7786                      .dwattr $C$DW$T$94, DW_AT_name("EPWM_TripZoneAdvancedAction")
    7787                      .dwattr $C$DW$T$94, DW_AT_type(*$C$DW$T$93)
    7788                      .dwattr $C$DW$T$94, DW_AT_decl_file("C:/Users/ZXC/Documents/mcu project/ti-project/clllc_nonpowerSUIT
    7789                      .dwattr $C$DW$T$94, DW_AT_decl_line(0x331)
    7790                      .dwattr $C$DW$T$94, DW_AT_decl_column(0x03)
    7791              
    7792                      .dwendtag $C$DW$TU$94
    7793              
    7794              
    7795              $C$DW$TU$95     .dwtag  DW_TAG_type_unit
    7796                      .dwmtype  $C$DW$T$95
    7797              
    7798              $C$DW$T$95      .dwtag  DW_TAG_enumeration_type
    7799                      .dwattr $C$DW$T$95, DW_AT_byte_size(0x01)
    7800              $C$DW$550       .dwtag  DW_TAG_enumerator
    7801                      .dwattr $C$DW$550, DW_AT_name("EPWM_TZ_CBC_PULSE_CLR_CNTR_ZERO")
    7802                      .dwattr $C$DW$550, DW_AT_const_value(0x00)
TMS320C2000 Assembler PC v22.6.0 Mon Sep  2 11:55:45 2024

Copyright (c) 1996-2018 Texas Instruments Incorporated
clllc_hal.asm                                                        PAGE  162

    7803                      .dwattr $C$DW$550, DW_AT_decl_file("C:/Users/ZXC/Documents/mcu project/ti-project/clllc_nonpowerSUITE
    7804                      .dwattr $C$DW$550, DW_AT_decl_line(0x3cb)
    7805                      .dwattr $C$DW$550, DW_AT_decl_column(0x05)
    7806              
    7807              $C$DW$551       .dwtag  DW_TAG_enumerator
    7808                      .dwattr $C$DW$551, DW_AT_name("EPWM_TZ_CBC_PULSE_CLR_CNTR_PERIOD")
    7809                      .dwattr $C$DW$551, DW_AT_const_value(0x01)
    7810                      .dwattr $C$DW$551, DW_AT_decl_file("C:/Users/ZXC/Documents/mcu project/ti-project/clllc_nonpowerSUITE
    7811                      .dwattr $C$DW$551, DW_AT_decl_line(0x3cd)
    7812                      .dwattr $C$DW$551, DW_AT_decl_column(0x05)
    7813              
    7814              $C$DW$552       .dwtag  DW_TAG_enumerator
    7815                      .dwattr $C$DW$552, DW_AT_name("EPWM_TZ_CBC_PULSE_CLR_CNTR_ZERO_PERIOD")
    7816                      .dwattr $C$DW$552, DW_AT_const_value(0x02)
    7817                      .dwattr $C$DW$552, DW_AT_decl_file("C:/Users/ZXC/Documents/mcu project/ti-project/clllc_nonpowerSUITE
    7818                      .dwattr $C$DW$552, DW_AT_decl_line(0x3cf)
    7819                      .dwattr $C$DW$552, DW_AT_decl_column(0x05)
    7820              
    7821                      .dwattr $C$DW$T$95, DW_AT_decl_file("C:/Users/ZXC/Documents/mcu project/ti-project/clllc_nonpowerSUIT
    7822                      .dwattr $C$DW$T$95, DW_AT_decl_line(0x3c9)
    7823                      .dwattr $C$DW$T$95, DW_AT_decl_column(0x01)
    7824                      .dwendtag $C$DW$T$95
    7825              
    7826                      .dwendtag $C$DW$TU$95
    7827              
    7828              
    7829              $C$DW$TU$96     .dwtag  DW_TAG_type_unit
    7830                      .dwmtype  $C$DW$T$96
    7831              $C$DW$T$96      .dwtag  DW_TAG_typedef
    7832                      .dwattr $C$DW$T$96, DW_AT_name("EPWM_CycleByCycleTripZoneClearMode")
    7833                      .dwattr $C$DW$T$96, DW_AT_type(*$C$DW$T$95)
    7834                      .dwattr $C$DW$T$96, DW_AT_decl_file("C:/Users/ZXC/Documents/mcu project/ti-project/clllc_nonpowerSUIT
    7835                      .dwattr $C$DW$T$96, DW_AT_decl_line(0x3d0)
    7836                      .dwattr $C$DW$T$96, DW_AT_decl_column(0x03)
    7837              
    7838                      .dwendtag $C$DW$TU$96
    7839              
    7840              
    7841              $C$DW$TU$97     .dwtag  DW_TAG_type_unit
    7842                      .dwmtype  $C$DW$T$97
    7843              
    7844              $C$DW$T$97      .dwtag  DW_TAG_enumeration_type
    7845                      .dwattr $C$DW$T$97, DW_AT_byte_size(0x01)
    7846              $C$DW$553       .dwtag  DW_TAG_enumerator
    7847                      .dwattr $C$DW$553, DW_AT_name("EPWM_SOC_A")
    7848                      .dwattr $C$DW$553, DW_AT_const_value(0x00)
    7849                      .dwattr $C$DW$553, DW_AT_decl_file("C:/Users/ZXC/Documents/mcu project/ti-project/clllc_nonpowerSUITE
    7850                      .dwattr $C$DW$553, DW_AT_decl_line(0x423)
    7851                      .dwattr $C$DW$553, DW_AT_decl_column(0x05)
    7852              
    7853              $C$DW$554       .dwtag  DW_TAG_enumerator
    7854                      .dwattr $C$DW$554, DW_AT_name("EPWM_SOC_B")
    7855                      .dwattr $C$DW$554, DW_AT_const_value(0x01)
    7856                      .dwattr $C$DW$554, DW_AT_decl_file("C:/Users/ZXC/Documents/mcu project/ti-project/clllc_nonpowerSUITE
    7857                      .dwattr $C$DW$554, DW_AT_decl_line(0x424)
TMS320C2000 Assembler PC v22.6.0 Mon Sep  2 11:55:45 2024

Copyright (c) 1996-2018 Texas Instruments Incorporated
clllc_hal.asm                                                        PAGE  163

    7858                      .dwattr $C$DW$554, DW_AT_decl_column(0x05)
    7859              
    7860                      .dwattr $C$DW$T$97, DW_AT_decl_file("C:/Users/ZXC/Documents/mcu project/ti-project/clllc_nonpowerSUIT
    7861                      .dwattr $C$DW$T$97, DW_AT_decl_line(0x422)
    7862                      .dwattr $C$DW$T$97, DW_AT_decl_column(0x01)
    7863                      .dwendtag $C$DW$T$97
    7864              
    7865                      .dwendtag $C$DW$TU$97
    7866              
    7867              
    7868              $C$DW$TU$98     .dwtag  DW_TAG_type_unit
    7869                      .dwmtype  $C$DW$T$98
    7870              $C$DW$T$98      .dwtag  DW_TAG_typedef
    7871                      .dwattr $C$DW$T$98, DW_AT_name("EPWM_ADCStartOfConversionType")
    7872                      .dwattr $C$DW$T$98, DW_AT_type(*$C$DW$T$97)
    7873                      .dwattr $C$DW$T$98, DW_AT_decl_file("C:/Users/ZXC/Documents/mcu project/ti-project/clllc_nonpowerSUIT
    7874                      .dwattr $C$DW$T$98, DW_AT_decl_line(0x425)
    7875                      .dwattr $C$DW$T$98, DW_AT_decl_column(0x03)
    7876              
    7877                      .dwendtag $C$DW$TU$98
    7878              
    7879              
    7880              $C$DW$TU$99     .dwtag  DW_TAG_type_unit
    7881                      .dwmtype  $C$DW$T$99
    7882              
    7883              $C$DW$T$99      .dwtag  DW_TAG_enumeration_type
    7884                      .dwattr $C$DW$T$99, DW_AT_byte_size(0x01)
    7885              $C$DW$555       .dwtag  DW_TAG_enumerator
    7886                      .dwattr $C$DW$555, DW_AT_name("EPWM_SOC_DCxEVT1")
    7887                      .dwattr $C$DW$555, DW_AT_const_value(0x00)
    7888                      .dwattr $C$DW$555, DW_AT_decl_file("C:/Users/ZXC/Documents/mcu project/ti-project/clllc_nonpowerSUITE
    7889                      .dwattr $C$DW$555, DW_AT_decl_line(0x430)
    7890                      .dwattr $C$DW$555, DW_AT_decl_column(0x05)
    7891              
    7892              $C$DW$556       .dwtag  DW_TAG_enumerator
    7893                      .dwattr $C$DW$556, DW_AT_name("EPWM_SOC_TBCTR_ZERO")
    7894                      .dwattr $C$DW$556, DW_AT_const_value(0x01)
    7895                      .dwattr $C$DW$556, DW_AT_decl_file("C:/Users/ZXC/Documents/mcu project/ti-project/clllc_nonpowerSUITE
    7896                      .dwattr $C$DW$556, DW_AT_decl_line(0x432)
    7897                      .dwattr $C$DW$556, DW_AT_decl_column(0x05)
    7898              
    7899              $C$DW$557       .dwtag  DW_TAG_enumerator
    7900                      .dwattr $C$DW$557, DW_AT_name("EPWM_SOC_TBCTR_PERIOD")
    7901                      .dwattr $C$DW$557, DW_AT_const_value(0x02)
    7902                      .dwattr $C$DW$557, DW_AT_decl_file("C:/Users/ZXC/Documents/mcu project/ti-project/clllc_nonpowerSUITE
    7903                      .dwattr $C$DW$557, DW_AT_decl_line(0x434)
    7904                      .dwattr $C$DW$557, DW_AT_decl_column(0x05)
    7905              
    7906              $C$DW$558       .dwtag  DW_TAG_enumerator
    7907                      .dwattr $C$DW$558, DW_AT_name("EPWM_SOC_TBCTR_ZERO_OR_PERIOD")
    7908                      .dwattr $C$DW$558, DW_AT_const_value(0x03)
    7909                      .dwattr $C$DW$558, DW_AT_decl_file("C:/Users/ZXC/Documents/mcu project/ti-project/clllc_nonpowerSUITE
    7910                      .dwattr $C$DW$558, DW_AT_decl_line(0x436)
    7911                      .dwattr $C$DW$558, DW_AT_decl_column(0x05)
    7912              
TMS320C2000 Assembler PC v22.6.0 Mon Sep  2 11:55:45 2024

Copyright (c) 1996-2018 Texas Instruments Incorporated
clllc_hal.asm                                                        PAGE  164

    7913              $C$DW$559       .dwtag  DW_TAG_enumerator
    7914                      .dwattr $C$DW$559, DW_AT_name("EPWM_SOC_TBCTR_U_CMPA")
    7915                      .dwattr $C$DW$559, DW_AT_const_value(0x04)
    7916                      .dwattr $C$DW$559, DW_AT_decl_file("C:/Users/ZXC/Documents/mcu project/ti-project/clllc_nonpowerSUITE
    7917                      .dwattr $C$DW$559, DW_AT_decl_line(0x438)
    7918                      .dwattr $C$DW$559, DW_AT_decl_column(0x05)
    7919              
    7920              $C$DW$560       .dwtag  DW_TAG_enumerator
    7921                      .dwattr $C$DW$560, DW_AT_name("EPWM_SOC_TBCTR_U_CMPC")
    7922                      .dwattr $C$DW$560, DW_AT_const_value(0x08)
    7923                      .dwattr $C$DW$560, DW_AT_decl_file("C:/Users/ZXC/Documents/mcu project/ti-project/clllc_nonpowerSUITE
    7924                      .dwattr $C$DW$560, DW_AT_decl_line(0x43a)
    7925                      .dwattr $C$DW$560, DW_AT_decl_column(0x05)
    7926              
    7927              $C$DW$561       .dwtag  DW_TAG_enumerator
    7928                      .dwattr $C$DW$561, DW_AT_name("EPWM_SOC_TBCTR_D_CMPA")
    7929                      .dwattr $C$DW$561, DW_AT_const_value(0x05)
    7930                      .dwattr $C$DW$561, DW_AT_decl_file("C:/Users/ZXC/Documents/mcu project/ti-project/clllc_nonpowerSUITE
    7931                      .dwattr $C$DW$561, DW_AT_decl_line(0x43c)
    7932                      .dwattr $C$DW$561, DW_AT_decl_column(0x05)
    7933              
    7934              $C$DW$562       .dwtag  DW_TAG_enumerator
    7935                      .dwattr $C$DW$562, DW_AT_name("EPWM_SOC_TBCTR_D_CMPC")
    7936                      .dwattr $C$DW$562, DW_AT_const_value(0x0a)
    7937                      .dwattr $C$DW$562, DW_AT_decl_file("C:/Users/ZXC/Documents/mcu project/ti-project/clllc_nonpowerSUITE
    7938                      .dwattr $C$DW$562, DW_AT_decl_line(0x43e)
    7939                      .dwattr $C$DW$562, DW_AT_decl_column(0x05)
    7940              
    7941              $C$DW$563       .dwtag  DW_TAG_enumerator
    7942                      .dwattr $C$DW$563, DW_AT_name("EPWM_SOC_TBCTR_U_CMPB")
    7943                      .dwattr $C$DW$563, DW_AT_const_value(0x06)
    7944                      .dwattr $C$DW$563, DW_AT_decl_file("C:/Users/ZXC/Documents/mcu project/ti-project/clllc_nonpowerSUITE
    7945                      .dwattr $C$DW$563, DW_AT_decl_line(0x440)
    7946                      .dwattr $C$DW$563, DW_AT_decl_column(0x05)
    7947              
    7948              $C$DW$564       .dwtag  DW_TAG_enumerator
    7949                      .dwattr $C$DW$564, DW_AT_name("EPWM_SOC_TBCTR_U_CMPD")
    7950                      .dwattr $C$DW$564, DW_AT_const_value(0x0c)
    7951                      .dwattr $C$DW$564, DW_AT_decl_file("C:/Users/ZXC/Documents/mcu project/ti-project/clllc_nonpowerSUITE
    7952                      .dwattr $C$DW$564, DW_AT_decl_line(0x442)
    7953                      .dwattr $C$DW$564, DW_AT_decl_column(0x05)
    7954              
    7955              $C$DW$565       .dwtag  DW_TAG_enumerator
    7956                      .dwattr $C$DW$565, DW_AT_name("EPWM_SOC_TBCTR_D_CMPB")
    7957                      .dwattr $C$DW$565, DW_AT_const_value(0x07)
    7958                      .dwattr $C$DW$565, DW_AT_decl_file("C:/Users/ZXC/Documents/mcu project/ti-project/clllc_nonpowerSUITE
    7959                      .dwattr $C$DW$565, DW_AT_decl_line(0x444)
    7960                      .dwattr $C$DW$565, DW_AT_decl_column(0x05)
    7961              
    7962              $C$DW$566       .dwtag  DW_TAG_enumerator
    7963                      .dwattr $C$DW$566, DW_AT_name("EPWM_SOC_TBCTR_D_CMPD")
    7964                      .dwattr $C$DW$566, DW_AT_const_value(0x0e)
    7965                      .dwattr $C$DW$566, DW_AT_decl_file("C:/Users/ZXC/Documents/mcu project/ti-project/clllc_nonpowerSUITE
    7966                      .dwattr $C$DW$566, DW_AT_decl_line(0x446)
    7967                      .dwattr $C$DW$566, DW_AT_decl_column(0x05)
TMS320C2000 Assembler PC v22.6.0 Mon Sep  2 11:55:45 2024

Copyright (c) 1996-2018 Texas Instruments Incorporated
clllc_hal.asm                                                        PAGE  165

    7968              
    7969                      .dwattr $C$DW$T$99, DW_AT_decl_file("C:/Users/ZXC/Documents/mcu project/ti-project/clllc_nonpowerSUIT
    7970                      .dwattr $C$DW$T$99, DW_AT_decl_line(0x42e)
    7971                      .dwattr $C$DW$T$99, DW_AT_decl_column(0x01)
    7972                      .dwendtag $C$DW$T$99
    7973              
    7974                      .dwendtag $C$DW$TU$99
    7975              
    7976              
    7977              $C$DW$TU$100    .dwtag  DW_TAG_type_unit
    7978                      .dwmtype  $C$DW$T$100
    7979              $C$DW$T$100     .dwtag  DW_TAG_typedef
    7980                      .dwattr $C$DW$T$100, DW_AT_name("EPWM_ADCStartOfConversionSource")
    7981                      .dwattr $C$DW$T$100, DW_AT_type(*$C$DW$T$99)
    7982                      .dwattr $C$DW$T$100, DW_AT_decl_file("C:/Users/ZXC/Documents/mcu project/ti-project/clllc_nonpowerSUI
    7983                      .dwattr $C$DW$T$100, DW_AT_decl_line(0x447)
    7984                      .dwattr $C$DW$T$100, DW_AT_decl_column(0x03)
    7985              
    7986                      .dwendtag $C$DW$TU$100
    7987              
    7988              
    7989              $C$DW$TU$101    .dwtag  DW_TAG_type_unit
    7990                      .dwmtype  $C$DW$T$101
    7991              
    7992              $C$DW$T$101     .dwtag  DW_TAG_enumeration_type
    7993                      .dwattr $C$DW$T$101, DW_AT_byte_size(0x01)
    7994              $C$DW$567       .dwtag  DW_TAG_enumerator
    7995                      .dwattr $C$DW$567, DW_AT_name("EPWM_DC_TRIP_TRIPIN1")
    7996                      .dwattr $C$DW$567, DW_AT_const_value(0x00)
    7997                      .dwattr $C$DW$567, DW_AT_decl_file("C:/Users/ZXC/Documents/mcu project/ti-project/clllc_nonpowerSUITE
    7998                      .dwattr $C$DW$567, DW_AT_decl_line(0x464)
    7999                      .dwattr $C$DW$567, DW_AT_decl_column(0x05)
    8000              
    8001              $C$DW$568       .dwtag  DW_TAG_enumerator
    8002                      .dwattr $C$DW$568, DW_AT_name("EPWM_DC_TRIP_TRIPIN2")
    8003                      .dwattr $C$DW$568, DW_AT_const_value(0x01)
    8004                      .dwattr $C$DW$568, DW_AT_decl_file("C:/Users/ZXC/Documents/mcu project/ti-project/clllc_nonpowerSUITE
    8005                      .dwattr $C$DW$568, DW_AT_decl_line(0x465)
    8006                      .dwattr $C$DW$568, DW_AT_decl_column(0x05)
    8007              
    8008              $C$DW$569       .dwtag  DW_TAG_enumerator
    8009                      .dwattr $C$DW$569, DW_AT_name("EPWM_DC_TRIP_TRIPIN3")
    8010                      .dwattr $C$DW$569, DW_AT_const_value(0x02)
    8011                      .dwattr $C$DW$569, DW_AT_decl_file("C:/Users/ZXC/Documents/mcu project/ti-project/clllc_nonpowerSUITE
    8012                      .dwattr $C$DW$569, DW_AT_decl_line(0x466)
    8013                      .dwattr $C$DW$569, DW_AT_decl_column(0x05)
    8014              
    8015              $C$DW$570       .dwtag  DW_TAG_enumerator
    8016                      .dwattr $C$DW$570, DW_AT_name("EPWM_DC_TRIP_TRIPIN4")
    8017                      .dwattr $C$DW$570, DW_AT_const_value(0x03)
    8018                      .dwattr $C$DW$570, DW_AT_decl_file("C:/Users/ZXC/Documents/mcu project/ti-project/clllc_nonpowerSUITE
    8019                      .dwattr $C$DW$570, DW_AT_decl_line(0x467)
    8020                      .dwattr $C$DW$570, DW_AT_decl_column(0x05)
    8021              
    8022              $C$DW$571       .dwtag  DW_TAG_enumerator
TMS320C2000 Assembler PC v22.6.0 Mon Sep  2 11:55:45 2024

Copyright (c) 1996-2018 Texas Instruments Incorporated
clllc_hal.asm                                                        PAGE  166

    8023                      .dwattr $C$DW$571, DW_AT_name("EPWM_DC_TRIP_TRIPIN5")
    8024                      .dwattr $C$DW$571, DW_AT_const_value(0x04)
    8025                      .dwattr $C$DW$571, DW_AT_decl_file("C:/Users/ZXC/Documents/mcu project/ti-project/clllc_nonpowerSUITE
    8026                      .dwattr $C$DW$571, DW_AT_decl_line(0x468)
    8027                      .dwattr $C$DW$571, DW_AT_decl_column(0x05)
    8028              
    8029              $C$DW$572       .dwtag  DW_TAG_enumerator
    8030                      .dwattr $C$DW$572, DW_AT_name("EPWM_DC_TRIP_TRIPIN6")
    8031                      .dwattr $C$DW$572, DW_AT_const_value(0x05)
    8032                      .dwattr $C$DW$572, DW_AT_decl_file("C:/Users/ZXC/Documents/mcu project/ti-project/clllc_nonpowerSUITE
    8033                      .dwattr $C$DW$572, DW_AT_decl_line(0x469)
    8034                      .dwattr $C$DW$572, DW_AT_decl_column(0x05)
    8035              
    8036              $C$DW$573       .dwtag  DW_TAG_enumerator
    8037                      .dwattr $C$DW$573, DW_AT_name("EPWM_DC_TRIP_TRIPIN7")
    8038                      .dwattr $C$DW$573, DW_AT_const_value(0x06)
    8039                      .dwattr $C$DW$573, DW_AT_decl_file("C:/Users/ZXC/Documents/mcu project/ti-project/clllc_nonpowerSUITE
    8040                      .dwattr $C$DW$573, DW_AT_decl_line(0x46a)
    8041                      .dwattr $C$DW$573, DW_AT_decl_column(0x05)
    8042              
    8043              $C$DW$574       .dwtag  DW_TAG_enumerator
    8044                      .dwattr $C$DW$574, DW_AT_name("EPWM_DC_TRIP_TRIPIN8")
    8045                      .dwattr $C$DW$574, DW_AT_const_value(0x07)
    8046                      .dwattr $C$DW$574, DW_AT_decl_file("C:/Users/ZXC/Documents/mcu project/ti-project/clllc_nonpowerSUITE
    8047                      .dwattr $C$DW$574, DW_AT_decl_line(0x46b)
    8048                      .dwattr $C$DW$574, DW_AT_decl_column(0x05)
    8049              
    8050              $C$DW$575       .dwtag  DW_TAG_enumerator
    8051                      .dwattr $C$DW$575, DW_AT_name("EPWM_DC_TRIP_TRIPIN9")
    8052                      .dwattr $C$DW$575, DW_AT_const_value(0x08)
    8053                      .dwattr $C$DW$575, DW_AT_decl_file("C:/Users/ZXC/Documents/mcu project/ti-project/clllc_nonpowerSUITE
    8054                      .dwattr $C$DW$575, DW_AT_decl_line(0x46c)
    8055                      .dwattr $C$DW$575, DW_AT_decl_column(0x05)
    8056              
    8057              $C$DW$576       .dwtag  DW_TAG_enumerator
    8058                      .dwattr $C$DW$576, DW_AT_name("EPWM_DC_TRIP_TRIPIN10")
    8059                      .dwattr $C$DW$576, DW_AT_const_value(0x09)
    8060                      .dwattr $C$DW$576, DW_AT_decl_file("C:/Users/ZXC/Documents/mcu project/ti-project/clllc_nonpowerSUITE
    8061                      .dwattr $C$DW$576, DW_AT_decl_line(0x46d)
    8062                      .dwattr $C$DW$576, DW_AT_decl_column(0x05)
    8063              
    8064              $C$DW$577       .dwtag  DW_TAG_enumerator
    8065                      .dwattr $C$DW$577, DW_AT_name("EPWM_DC_TRIP_TRIPIN11")
    8066                      .dwattr $C$DW$577, DW_AT_const_value(0x0a)
    8067                      .dwattr $C$DW$577, DW_AT_decl_file("C:/Users/ZXC/Documents/mcu project/ti-project/clllc_nonpowerSUITE
    8068                      .dwattr $C$DW$577, DW_AT_decl_line(0x46e)
    8069                      .dwattr $C$DW$577, DW_AT_decl_column(0x05)
    8070              
    8071              $C$DW$578       .dwtag  DW_TAG_enumerator
    8072                      .dwattr $C$DW$578, DW_AT_name("EPWM_DC_TRIP_TRIPIN12")
    8073                      .dwattr $C$DW$578, DW_AT_const_value(0x0b)
    8074                      .dwattr $C$DW$578, DW_AT_decl_file("C:/Users/ZXC/Documents/mcu project/ti-project/clllc_nonpowerSUITE
    8075                      .dwattr $C$DW$578, DW_AT_decl_line(0x46f)
    8076                      .dwattr $C$DW$578, DW_AT_decl_column(0x05)
    8077              
TMS320C2000 Assembler PC v22.6.0 Mon Sep  2 11:55:45 2024

Copyright (c) 1996-2018 Texas Instruments Incorporated
clllc_hal.asm                                                        PAGE  167

    8078              $C$DW$579       .dwtag  DW_TAG_enumerator
    8079                      .dwattr $C$DW$579, DW_AT_name("EPWM_DC_TRIP_TRIPIN14")
    8080                      .dwattr $C$DW$579, DW_AT_const_value(0x0d)
    8081                      .dwattr $C$DW$579, DW_AT_decl_file("C:/Users/ZXC/Documents/mcu project/ti-project/clllc_nonpowerSUITE
    8082                      .dwattr $C$DW$579, DW_AT_decl_line(0x470)
    8083                      .dwattr $C$DW$579, DW_AT_decl_column(0x05)
    8084              
    8085              $C$DW$580       .dwtag  DW_TAG_enumerator
    8086                      .dwattr $C$DW$580, DW_AT_name("EPWM_DC_TRIP_TRIPIN15")
    8087                      .dwattr $C$DW$580, DW_AT_const_value(0x0e)
    8088                      .dwattr $C$DW$580, DW_AT_decl_file("C:/Users/ZXC/Documents/mcu project/ti-project/clllc_nonpowerSUITE
    8089                      .dwattr $C$DW$580, DW_AT_decl_line(0x471)
    8090                      .dwattr $C$DW$580, DW_AT_decl_column(0x05)
    8091              
    8092              $C$DW$581       .dwtag  DW_TAG_enumerator
    8093                      .dwattr $C$DW$581, DW_AT_name("EPWM_DC_TRIP_COMBINATION")
    8094                      .dwattr $C$DW$581, DW_AT_const_value(0x0f)
    8095                      .dwattr $C$DW$581, DW_AT_decl_file("C:/Users/ZXC/Documents/mcu project/ti-project/clllc_nonpowerSUITE
    8096                      .dwattr $C$DW$581, DW_AT_decl_line(0x472)
    8097                      .dwattr $C$DW$581, DW_AT_decl_column(0x05)
    8098              
    8099                      .dwattr $C$DW$T$101, DW_AT_decl_file("C:/Users/ZXC/Documents/mcu project/ti-project/clllc_nonpowerSUI
    8100                      .dwattr $C$DW$T$101, DW_AT_decl_line(0x463)
    8101                      .dwattr $C$DW$T$101, DW_AT_decl_column(0x01)
    8102                      .dwendtag $C$DW$T$101
    8103              
    8104                      .dwendtag $C$DW$TU$101
    8105              
    8106              
    8107              $C$DW$TU$102    .dwtag  DW_TAG_type_unit
    8108                      .dwmtype  $C$DW$T$102
    8109              $C$DW$T$102     .dwtag  DW_TAG_typedef
    8110                      .dwattr $C$DW$T$102, DW_AT_name("EPWM_DigitalCompareTripInput")
    8111                      .dwattr $C$DW$T$102, DW_AT_type(*$C$DW$T$101)
    8112                      .dwattr $C$DW$T$102, DW_AT_decl_file("C:/Users/ZXC/Documents/mcu project/ti-project/clllc_nonpowerSUI
    8113                      .dwattr $C$DW$T$102, DW_AT_decl_line(0x473)
    8114                      .dwattr $C$DW$T$102, DW_AT_decl_column(0x03)
    8115              
    8116                      .dwendtag $C$DW$TU$102
    8117              
    8118              
    8119              $C$DW$TU$103    .dwtag  DW_TAG_type_unit
    8120                      .dwmtype  $C$DW$T$103
    8121              
    8122              $C$DW$T$103     .dwtag  DW_TAG_enumeration_type
    8123                      .dwattr $C$DW$T$103, DW_AT_byte_size(0x01)
    8124              $C$DW$582       .dwtag  DW_TAG_enumerator
    8125                      .dwattr $C$DW$582, DW_AT_name("EPWM_DC_TYPE_DCAH")
    8126                      .dwattr $C$DW$582, DW_AT_const_value(0x00)
    8127                      .dwattr $C$DW$582, DW_AT_decl_file("C:/Users/ZXC/Documents/mcu project/ti-project/clllc_nonpowerSUITE
    8128                      .dwattr $C$DW$582, DW_AT_decl_line(0x456)
    8129                      .dwattr $C$DW$582, DW_AT_decl_column(0x05)
    8130              
    8131              $C$DW$583       .dwtag  DW_TAG_enumerator
    8132                      .dwattr $C$DW$583, DW_AT_name("EPWM_DC_TYPE_DCAL")
TMS320C2000 Assembler PC v22.6.0 Mon Sep  2 11:55:45 2024

Copyright (c) 1996-2018 Texas Instruments Incorporated
clllc_hal.asm                                                        PAGE  168

    8133                      .dwattr $C$DW$583, DW_AT_const_value(0x01)
    8134                      .dwattr $C$DW$583, DW_AT_decl_file("C:/Users/ZXC/Documents/mcu project/ti-project/clllc_nonpowerSUITE
    8135                      .dwattr $C$DW$583, DW_AT_decl_line(0x457)
    8136                      .dwattr $C$DW$583, DW_AT_decl_column(0x05)
    8137              
    8138              $C$DW$584       .dwtag  DW_TAG_enumerator
    8139                      .dwattr $C$DW$584, DW_AT_name("EPWM_DC_TYPE_DCBH")
    8140                      .dwattr $C$DW$584, DW_AT_const_value(0x02)
    8141                      .dwattr $C$DW$584, DW_AT_decl_file("C:/Users/ZXC/Documents/mcu project/ti-project/clllc_nonpowerSUITE
    8142                      .dwattr $C$DW$584, DW_AT_decl_line(0x458)
    8143                      .dwattr $C$DW$584, DW_AT_decl_column(0x05)
    8144              
    8145              $C$DW$585       .dwtag  DW_TAG_enumerator
    8146                      .dwattr $C$DW$585, DW_AT_name("EPWM_DC_TYPE_DCBL")
    8147                      .dwattr $C$DW$585, DW_AT_const_value(0x03)
    8148                      .dwattr $C$DW$585, DW_AT_decl_file("C:/Users/ZXC/Documents/mcu project/ti-project/clllc_nonpowerSUITE
    8149                      .dwattr $C$DW$585, DW_AT_decl_line(0x459)
    8150                      .dwattr $C$DW$585, DW_AT_decl_column(0x05)
    8151              
    8152                      .dwattr $C$DW$T$103, DW_AT_decl_file("C:/Users/ZXC/Documents/mcu project/ti-project/clllc_nonpowerSUI
    8153                      .dwattr $C$DW$T$103, DW_AT_decl_line(0x455)
    8154                      .dwattr $C$DW$T$103, DW_AT_decl_column(0x01)
    8155                      .dwendtag $C$DW$T$103
    8156              
    8157                      .dwendtag $C$DW$TU$103
    8158              
    8159              
    8160              $C$DW$TU$104    .dwtag  DW_TAG_type_unit
    8161                      .dwmtype  $C$DW$T$104
    8162              $C$DW$T$104     .dwtag  DW_TAG_typedef
    8163                      .dwattr $C$DW$T$104, DW_AT_name("EPWM_DigitalCompareType")
    8164                      .dwattr $C$DW$T$104, DW_AT_type(*$C$DW$T$103)
    8165                      .dwattr $C$DW$T$104, DW_AT_decl_file("C:/Users/ZXC/Documents/mcu project/ti-project/clllc_nonpowerSUI
    8166                      .dwattr $C$DW$T$104, DW_AT_decl_line(0x45a)
    8167                      .dwattr $C$DW$T$104, DW_AT_decl_column(0x03)
    8168              
    8169                      .dwendtag $C$DW$TU$104
    8170              
    8171              
    8172              $C$DW$TU$105    .dwtag  DW_TAG_type_unit
    8173                      .dwmtype  $C$DW$T$105
    8174              
    8175              $C$DW$T$105     .dwtag  DW_TAG_enumeration_type
    8176                      .dwattr $C$DW$T$105, DW_AT_byte_size(0x01)
    8177              $C$DW$586       .dwtag  DW_TAG_enumerator
    8178                      .dwattr $C$DW$586, DW_AT_name("EPWM_DC_WINDOW_START_TBCTR_PERIOD")
    8179                      .dwattr $C$DW$586, DW_AT_const_value(0x00)
    8180                      .dwattr $C$DW$586, DW_AT_decl_file("C:/Users/ZXC/Documents/mcu project/ti-project/clllc_nonpowerSUITE
    8181                      .dwattr $C$DW$586, DW_AT_decl_line(0x4b0)
    8182                      .dwattr $C$DW$586, DW_AT_decl_column(0x05)
    8183              
    8184              $C$DW$587       .dwtag  DW_TAG_enumerator
    8185                      .dwattr $C$DW$587, DW_AT_name("EPWM_DC_WINDOW_START_TBCTR_ZERO")
    8186                      .dwattr $C$DW$587, DW_AT_const_value(0x01)
    8187                      .dwattr $C$DW$587, DW_AT_decl_file("C:/Users/ZXC/Documents/mcu project/ti-project/clllc_nonpowerSUITE
TMS320C2000 Assembler PC v22.6.0 Mon Sep  2 11:55:45 2024

Copyright (c) 1996-2018 Texas Instruments Incorporated
clllc_hal.asm                                                        PAGE  169

    8188                      .dwattr $C$DW$587, DW_AT_decl_line(0x4b2)
    8189                      .dwattr $C$DW$587, DW_AT_decl_column(0x05)
    8190              
    8191              $C$DW$588       .dwtag  DW_TAG_enumerator
    8192                      .dwattr $C$DW$588, DW_AT_name("EPWM_DC_WINDOW_START_TBCTR_ZERO_PERIOD")
    8193                      .dwattr $C$DW$588, DW_AT_const_value(0x02)
    8194                      .dwattr $C$DW$588, DW_AT_decl_file("C:/Users/ZXC/Documents/mcu project/ti-project/clllc_nonpowerSUITE
    8195                      .dwattr $C$DW$588, DW_AT_decl_line(0x4b4)
    8196                      .dwattr $C$DW$588, DW_AT_decl_column(0x05)
    8197              
    8198                      .dwattr $C$DW$T$105, DW_AT_decl_file("C:/Users/ZXC/Documents/mcu project/ti-project/clllc_nonpowerSUI
    8199                      .dwattr $C$DW$T$105, DW_AT_decl_line(0x4ae)
    8200                      .dwattr $C$DW$T$105, DW_AT_decl_column(0x01)
    8201                      .dwendtag $C$DW$T$105
    8202              
    8203                      .dwendtag $C$DW$TU$105
    8204              
    8205              
    8206              $C$DW$TU$106    .dwtag  DW_TAG_type_unit
    8207                      .dwmtype  $C$DW$T$106
    8208              $C$DW$T$106     .dwtag  DW_TAG_typedef
    8209                      .dwattr $C$DW$T$106, DW_AT_name("EPWM_DigitalCompareBlankingPulse")
    8210                      .dwattr $C$DW$T$106, DW_AT_type(*$C$DW$T$105)
    8211                      .dwattr $C$DW$T$106, DW_AT_decl_file("C:/Users/ZXC/Documents/mcu project/ti-project/clllc_nonpowerSUI
    8212                      .dwattr $C$DW$T$106, DW_AT_decl_line(0x4b5)
    8213                      .dwattr $C$DW$T$106, DW_AT_decl_column(0x03)
    8214              
    8215                      .dwendtag $C$DW$TU$106
    8216              
    8217              
    8218              $C$DW$TU$107    .dwtag  DW_TAG_type_unit
    8219                      .dwmtype  $C$DW$T$107
    8220              
    8221              $C$DW$T$107     .dwtag  DW_TAG_enumeration_type
    8222                      .dwattr $C$DW$T$107, DW_AT_byte_size(0x01)
    8223              $C$DW$589       .dwtag  DW_TAG_enumerator
    8224                      .dwattr $C$DW$589, DW_AT_name("EPWM_DC_MODULE_A")
    8225                      .dwattr $C$DW$589, DW_AT_const_value(0x00)
    8226                      .dwattr $C$DW$589, DW_AT_decl_file("C:/Users/ZXC/Documents/mcu project/ti-project/clllc_nonpowerSUITE
    8227                      .dwattr $C$DW$589, DW_AT_decl_line(0x4cf)
    8228                      .dwattr $C$DW$589, DW_AT_decl_column(0x05)
    8229              
    8230              $C$DW$590       .dwtag  DW_TAG_enumerator
    8231                      .dwattr $C$DW$590, DW_AT_name("EPWM_DC_MODULE_B")
    8232                      .dwattr $C$DW$590, DW_AT_const_value(0x01)
    8233                      .dwattr $C$DW$590, DW_AT_decl_file("C:/Users/ZXC/Documents/mcu project/ti-project/clllc_nonpowerSUITE
    8234                      .dwattr $C$DW$590, DW_AT_decl_line(0x4d0)
    8235                      .dwattr $C$DW$590, DW_AT_decl_column(0x05)
    8236              
    8237                      .dwattr $C$DW$T$107, DW_AT_decl_file("C:/Users/ZXC/Documents/mcu project/ti-project/clllc_nonpowerSUI
    8238                      .dwattr $C$DW$T$107, DW_AT_decl_line(0x4ce)
    8239                      .dwattr $C$DW$T$107, DW_AT_decl_column(0x01)
    8240                      .dwendtag $C$DW$T$107
    8241              
    8242                      .dwendtag $C$DW$TU$107
TMS320C2000 Assembler PC v22.6.0 Mon Sep  2 11:55:45 2024

Copyright (c) 1996-2018 Texas Instruments Incorporated
clllc_hal.asm                                                        PAGE  170

    8243              
    8244              
    8245              $C$DW$TU$108    .dwtag  DW_TAG_type_unit
    8246                      .dwmtype  $C$DW$T$108
    8247              $C$DW$T$108     .dwtag  DW_TAG_typedef
    8248                      .dwattr $C$DW$T$108, DW_AT_name("EPWM_DigitalCompareModule")
    8249                      .dwattr $C$DW$T$108, DW_AT_type(*$C$DW$T$107)
    8250                      .dwattr $C$DW$T$108, DW_AT_decl_file("C:/Users/ZXC/Documents/mcu project/ti-project/clllc_nonpowerSUI
    8251                      .dwattr $C$DW$T$108, DW_AT_decl_line(0x4d1)
    8252                      .dwattr $C$DW$T$108, DW_AT_decl_column(0x03)
    8253              
    8254                      .dwendtag $C$DW$TU$108
    8255              
    8256              
    8257              $C$DW$TU$109    .dwtag  DW_TAG_type_unit
    8258                      .dwmtype  $C$DW$T$109
    8259              
    8260              $C$DW$T$109     .dwtag  DW_TAG_enumeration_type
    8261                      .dwattr $C$DW$T$109, DW_AT_byte_size(0x01)
    8262              $C$DW$591       .dwtag  DW_TAG_enumerator
    8263                      .dwattr $C$DW$591, DW_AT_name("EPWM_DC_EVENT_1")
    8264                      .dwattr $C$DW$591, DW_AT_const_value(0x00)
    8265                      .dwattr $C$DW$591, DW_AT_decl_file("C:/Users/ZXC/Documents/mcu project/ti-project/clllc_nonpowerSUITE
    8266                      .dwattr $C$DW$591, DW_AT_decl_line(0x4db)
    8267                      .dwattr $C$DW$591, DW_AT_decl_column(0x05)
    8268              
    8269              $C$DW$592       .dwtag  DW_TAG_enumerator
    8270                      .dwattr $C$DW$592, DW_AT_name("EPWM_DC_EVENT_2")
    8271                      .dwattr $C$DW$592, DW_AT_const_value(0x01)
    8272                      .dwattr $C$DW$592, DW_AT_decl_file("C:/Users/ZXC/Documents/mcu project/ti-project/clllc_nonpowerSUITE
    8273                      .dwattr $C$DW$592, DW_AT_decl_line(0x4dc)
    8274                      .dwattr $C$DW$592, DW_AT_decl_column(0x05)
    8275              
    8276                      .dwattr $C$DW$T$109, DW_AT_decl_file("C:/Users/ZXC/Documents/mcu project/ti-project/clllc_nonpowerSUI
    8277                      .dwattr $C$DW$T$109, DW_AT_decl_line(0x4da)
    8278                      .dwattr $C$DW$T$109, DW_AT_decl_column(0x01)
    8279                      .dwendtag $C$DW$T$109
    8280              
    8281                      .dwendtag $C$DW$TU$109
    8282              
    8283              
    8284              $C$DW$TU$110    .dwtag  DW_TAG_type_unit
    8285                      .dwmtype  $C$DW$T$110
    8286              $C$DW$T$110     .dwtag  DW_TAG_typedef
    8287                      .dwattr $C$DW$T$110, DW_AT_name("EPWM_DigitalCompareEvent")
    8288                      .dwattr $C$DW$T$110, DW_AT_type(*$C$DW$T$109)
    8289                      .dwattr $C$DW$T$110, DW_AT_decl_file("C:/Users/ZXC/Documents/mcu project/ti-project/clllc_nonpowerSUI
    8290                      .dwattr $C$DW$T$110, DW_AT_decl_line(0x4dd)
    8291                      .dwattr $C$DW$T$110, DW_AT_decl_column(0x03)
    8292              
    8293                      .dwendtag $C$DW$TU$110
    8294              
    8295              
    8296              $C$DW$TU$111    .dwtag  DW_TAG_type_unit
    8297                      .dwmtype  $C$DW$T$111
TMS320C2000 Assembler PC v22.6.0 Mon Sep  2 11:55:45 2024

Copyright (c) 1996-2018 Texas Instruments Incorporated
clllc_hal.asm                                                        PAGE  171

    8298              
    8299              $C$DW$T$111     .dwtag  DW_TAG_enumeration_type
    8300                      .dwattr $C$DW$T$111, DW_AT_byte_size(0x01)
    8301              $C$DW$593       .dwtag  DW_TAG_enumerator
    8302                      .dwattr $C$DW$593, DW_AT_name("EPWM_DC_EVENT_SOURCE_ORIG_SIGNAL")
    8303                      .dwattr $C$DW$593, DW_AT_const_value(0x00)
    8304                      .dwattr $C$DW$593, DW_AT_decl_file("C:/Users/ZXC/Documents/mcu project/ti-project/clllc_nonpowerSUITE
    8305                      .dwattr $C$DW$593, DW_AT_decl_line(0x4e8)
    8306                      .dwattr $C$DW$593, DW_AT_decl_column(0x05)
    8307              
    8308              $C$DW$594       .dwtag  DW_TAG_enumerator
    8309                      .dwattr $C$DW$594, DW_AT_name("EPWM_DC_EVENT_SOURCE_FILT_SIGNAL")
    8310                      .dwattr $C$DW$594, DW_AT_const_value(0x01)
    8311                      .dwattr $C$DW$594, DW_AT_decl_file("C:/Users/ZXC/Documents/mcu project/ti-project/clllc_nonpowerSUITE
    8312                      .dwattr $C$DW$594, DW_AT_decl_line(0x4ea)
    8313                      .dwattr $C$DW$594, DW_AT_decl_column(0x05)
    8314              
    8315                      .dwattr $C$DW$T$111, DW_AT_decl_file("C:/Users/ZXC/Documents/mcu project/ti-project/clllc_nonpowerSUI
    8316                      .dwattr $C$DW$T$111, DW_AT_decl_line(0x4e6)
    8317                      .dwattr $C$DW$T$111, DW_AT_decl_column(0x01)
    8318                      .dwendtag $C$DW$T$111
    8319              
    8320                      .dwendtag $C$DW$TU$111
    8321              
    8322              
    8323              $C$DW$TU$112    .dwtag  DW_TAG_type_unit
    8324                      .dwmtype  $C$DW$T$112
    8325              $C$DW$T$112     .dwtag  DW_TAG_typedef
    8326                      .dwattr $C$DW$T$112, DW_AT_name("EPWM_DigitalCompareEventSource")
    8327                      .dwattr $C$DW$T$112, DW_AT_type(*$C$DW$T$111)
    8328                      .dwattr $C$DW$T$112, DW_AT_decl_file("C:/Users/ZXC/Documents/mcu project/ti-project/clllc_nonpowerSUI
    8329                      .dwattr $C$DW$T$112, DW_AT_decl_line(0x4eb)
    8330                      .dwattr $C$DW$T$112, DW_AT_decl_column(0x03)
    8331              
    8332                      .dwendtag $C$DW$TU$112
    8333              
    8334              
    8335              $C$DW$TU$113    .dwtag  DW_TAG_type_unit
    8336                      .dwmtype  $C$DW$T$113
    8337              
    8338              $C$DW$T$113     .dwtag  DW_TAG_enumeration_type
    8339                      .dwattr $C$DW$T$113, DW_AT_byte_size(0x01)
    8340              $C$DW$595       .dwtag  DW_TAG_enumerator
    8341                      .dwattr $C$DW$595, DW_AT_name("EPWM_DC_EVENT_INPUT_SYNCED")
    8342                      .dwattr $C$DW$595, DW_AT_const_value(0x00)
    8343                      .dwattr $C$DW$595, DW_AT_decl_file("C:/Users/ZXC/Documents/mcu project/ti-project/clllc_nonpowerSUITE
    8344                      .dwattr $C$DW$595, DW_AT_decl_line(0x4f6)
    8345                      .dwattr $C$DW$595, DW_AT_decl_column(0x05)
    8346              
    8347              $C$DW$596       .dwtag  DW_TAG_enumerator
    8348                      .dwattr $C$DW$596, DW_AT_name("EPWM_DC_EVENT_INPUT_NOT_SYNCED")
    8349                      .dwattr $C$DW$596, DW_AT_const_value(0x01)
    8350                      .dwattr $C$DW$596, DW_AT_decl_file("C:/Users/ZXC/Documents/mcu project/ti-project/clllc_nonpowerSUITE
    8351                      .dwattr $C$DW$596, DW_AT_decl_line(0x4f8)
    8352                      .dwattr $C$DW$596, DW_AT_decl_column(0x05)
TMS320C2000 Assembler PC v22.6.0 Mon Sep  2 11:55:45 2024

Copyright (c) 1996-2018 Texas Instruments Incorporated
clllc_hal.asm                                                        PAGE  172

    8353              
    8354                      .dwattr $C$DW$T$113, DW_AT_decl_file("C:/Users/ZXC/Documents/mcu project/ti-project/clllc_nonpowerSUI
    8355                      .dwattr $C$DW$T$113, DW_AT_decl_line(0x4f4)
    8356                      .dwattr $C$DW$T$113, DW_AT_decl_column(0x01)
    8357                      .dwendtag $C$DW$T$113
    8358              
    8359                      .dwendtag $C$DW$TU$113
    8360              
    8361              
    8362              $C$DW$TU$114    .dwtag  DW_TAG_type_unit
    8363                      .dwmtype  $C$DW$T$114
    8364              $C$DW$T$114     .dwtag  DW_TAG_typedef
    8365                      .dwattr $C$DW$T$114, DW_AT_name("EPWM_DigitalCompareSyncMode")
    8366                      .dwattr $C$DW$T$114, DW_AT_type(*$C$DW$T$113)
    8367                      .dwattr $C$DW$T$114, DW_AT_decl_file("C:/Users/ZXC/Documents/mcu project/ti-project/clllc_nonpowerSUI
    8368                      .dwattr $C$DW$T$114, DW_AT_decl_line(0x4f9)
    8369                      .dwattr $C$DW$T$114, DW_AT_decl_column(0x03)
    8370              
    8371                      .dwendtag $C$DW$TU$114
    8372              
    8373              
    8374              $C$DW$TU$115    .dwtag  DW_TAG_type_unit
    8375                      .dwmtype  $C$DW$T$115
    8376              
    8377              $C$DW$T$115     .dwtag  DW_TAG_enumeration_type
    8378                      .dwattr $C$DW$T$115, DW_AT_byte_size(0x01)
    8379              $C$DW$597       .dwtag  DW_TAG_enumerator
    8380                      .dwattr $C$DW$597, DW_AT_name("XBAR_OUTPUT1")
    8381                      .dwattr $C$DW$597, DW_AT_const_value(0x00)
    8382                      .dwattr $C$DW$597, DW_AT_decl_file("C:\Users\ZXC\Documents\mcu project\ti-project\clllc_nonpowerSUITE
    8383                      .dwattr $C$DW$597, DW_AT_decl_line(0x98)
    8384                      .dwattr $C$DW$597, DW_AT_decl_column(0x05)
    8385              
    8386              $C$DW$598       .dwtag  DW_TAG_enumerator
    8387                      .dwattr $C$DW$598, DW_AT_name("XBAR_OUTPUT2")
    8388                      .dwattr $C$DW$598, DW_AT_const_value(0x02)
    8389                      .dwattr $C$DW$598, DW_AT_decl_file("C:\Users\ZXC\Documents\mcu project\ti-project\clllc_nonpowerSUITE
    8390                      .dwattr $C$DW$598, DW_AT_decl_line(0x99)
    8391                      .dwattr $C$DW$598, DW_AT_decl_column(0x05)
    8392              
    8393              $C$DW$599       .dwtag  DW_TAG_enumerator
    8394                      .dwattr $C$DW$599, DW_AT_name("XBAR_OUTPUT3")
    8395                      .dwattr $C$DW$599, DW_AT_const_value(0x04)
    8396                      .dwattr $C$DW$599, DW_AT_decl_file("C:\Users\ZXC\Documents\mcu project\ti-project\clllc_nonpowerSUITE
    8397                      .dwattr $C$DW$599, DW_AT_decl_line(0x9a)
    8398                      .dwattr $C$DW$599, DW_AT_decl_column(0x05)
    8399              
    8400              $C$DW$600       .dwtag  DW_TAG_enumerator
    8401                      .dwattr $C$DW$600, DW_AT_name("XBAR_OUTPUT4")
    8402                      .dwattr $C$DW$600, DW_AT_const_value(0x06)
    8403                      .dwattr $C$DW$600, DW_AT_decl_file("C:\Users\ZXC\Documents\mcu project\ti-project\clllc_nonpowerSUITE
    8404                      .dwattr $C$DW$600, DW_AT_decl_line(0x9b)
    8405                      .dwattr $C$DW$600, DW_AT_decl_column(0x05)
    8406              
    8407              $C$DW$601       .dwtag  DW_TAG_enumerator
TMS320C2000 Assembler PC v22.6.0 Mon Sep  2 11:55:45 2024

Copyright (c) 1996-2018 Texas Instruments Incorporated
clllc_hal.asm                                                        PAGE  173

    8408                      .dwattr $C$DW$601, DW_AT_name("XBAR_OUTPUT5")
    8409                      .dwattr $C$DW$601, DW_AT_const_value(0x08)
    8410                      .dwattr $C$DW$601, DW_AT_decl_file("C:\Users\ZXC\Documents\mcu project\ti-project\clllc_nonpowerSUITE
    8411                      .dwattr $C$DW$601, DW_AT_decl_line(0x9c)
    8412                      .dwattr $C$DW$601, DW_AT_decl_column(0x05)
    8413              
    8414              $C$DW$602       .dwtag  DW_TAG_enumerator
    8415                      .dwattr $C$DW$602, DW_AT_name("XBAR_OUTPUT6")
    8416                      .dwattr $C$DW$602, DW_AT_const_value(0x0a)
    8417                      .dwattr $C$DW$602, DW_AT_decl_file("C:\Users\ZXC\Documents\mcu project\ti-project\clllc_nonpowerSUITE
    8418                      .dwattr $C$DW$602, DW_AT_decl_line(0x9d)
    8419                      .dwattr $C$DW$602, DW_AT_decl_column(0x05)
    8420              
    8421              $C$DW$603       .dwtag  DW_TAG_enumerator
    8422                      .dwattr $C$DW$603, DW_AT_name("XBAR_OUTPUT7")
    8423                      .dwattr $C$DW$603, DW_AT_const_value(0x0c)
    8424                      .dwattr $C$DW$603, DW_AT_decl_file("C:\Users\ZXC\Documents\mcu project\ti-project\clllc_nonpowerSUITE
    8425                      .dwattr $C$DW$603, DW_AT_decl_line(0x9e)
    8426                      .dwattr $C$DW$603, DW_AT_decl_column(0x05)
    8427              
    8428              $C$DW$604       .dwtag  DW_TAG_enumerator
    8429                      .dwattr $C$DW$604, DW_AT_name("XBAR_OUTPUT8")
    8430                      .dwattr $C$DW$604, DW_AT_const_value(0x0e)
    8431                      .dwattr $C$DW$604, DW_AT_decl_file("C:\Users\ZXC\Documents\mcu project\ti-project\clllc_nonpowerSUITE
    8432                      .dwattr $C$DW$604, DW_AT_decl_line(0x9f)
    8433                      .dwattr $C$DW$604, DW_AT_decl_column(0x05)
    8434              
    8435                      .dwattr $C$DW$T$115, DW_AT_decl_file("C:\Users\ZXC\Documents\mcu project\ti-project\clllc_nonpowerSUI
    8436                      .dwattr $C$DW$T$115, DW_AT_decl_line(0x97)
    8437                      .dwattr $C$DW$T$115, DW_AT_decl_column(0x01)
    8438                      .dwendtag $C$DW$T$115
    8439              
    8440                      .dwendtag $C$DW$TU$115
    8441              
    8442              
    8443              $C$DW$TU$116    .dwtag  DW_TAG_type_unit
    8444                      .dwmtype  $C$DW$T$116
    8445              $C$DW$T$116     .dwtag  DW_TAG_typedef
    8446                      .dwattr $C$DW$T$116, DW_AT_name("XBAR_OutputNum")
    8447                      .dwattr $C$DW$T$116, DW_AT_type(*$C$DW$T$115)
    8448                      .dwattr $C$DW$T$116, DW_AT_decl_file("C:\Users\ZXC\Documents\mcu project\ti-project\clllc_nonpowerSUI
    8449                      .dwattr $C$DW$T$116, DW_AT_decl_line(0xa0)
    8450                      .dwattr $C$DW$T$116, DW_AT_decl_column(0x03)
    8451              
    8452                      .dwendtag $C$DW$TU$116
    8453              
    8454              
    8455              $C$DW$TU$117    .dwtag  DW_TAG_type_unit
    8456                      .dwmtype  $C$DW$T$117
    8457              
    8458              $C$DW$T$117     .dwtag  DW_TAG_enumeration_type
    8459                      .dwattr $C$DW$T$117, DW_AT_byte_size(0x01)
    8460              $C$DW$605       .dwtag  DW_TAG_enumerator
    8461                      .dwattr $C$DW$605, DW_AT_name("XBAR_TRIP4")
    8462                      .dwattr $C$DW$605, DW_AT_const_value(0x00)
TMS320C2000 Assembler PC v22.6.0 Mon Sep  2 11:55:45 2024

Copyright (c) 1996-2018 Texas Instruments Incorporated
clllc_hal.asm                                                        PAGE  174

    8463                      .dwattr $C$DW$605, DW_AT_decl_file("C:\Users\ZXC\Documents\mcu project\ti-project\clllc_nonpowerSUITE
    8464                      .dwattr $C$DW$605, DW_AT_decl_line(0xab)
    8465                      .dwattr $C$DW$605, DW_AT_decl_column(0x05)
    8466              
    8467              $C$DW$606       .dwtag  DW_TAG_enumerator
    8468                      .dwattr $C$DW$606, DW_AT_name("XBAR_TRIP5")
    8469                      .dwattr $C$DW$606, DW_AT_const_value(0x02)
    8470                      .dwattr $C$DW$606, DW_AT_decl_file("C:\Users\ZXC\Documents\mcu project\ti-project\clllc_nonpowerSUITE
    8471                      .dwattr $C$DW$606, DW_AT_decl_line(0xac)
    8472                      .dwattr $C$DW$606, DW_AT_decl_column(0x05)
    8473              
    8474              $C$DW$607       .dwtag  DW_TAG_enumerator
    8475                      .dwattr $C$DW$607, DW_AT_name("XBAR_TRIP7")
    8476                      .dwattr $C$DW$607, DW_AT_const_value(0x04)
    8477                      .dwattr $C$DW$607, DW_AT_decl_file("C:\Users\ZXC\Documents\mcu project\ti-project\clllc_nonpowerSUITE
    8478                      .dwattr $C$DW$607, DW_AT_decl_line(0xad)
    8479                      .dwattr $C$DW$607, DW_AT_decl_column(0x05)
    8480              
    8481              $C$DW$608       .dwtag  DW_TAG_enumerator
    8482                      .dwattr $C$DW$608, DW_AT_name("XBAR_TRIP8")
    8483                      .dwattr $C$DW$608, DW_AT_const_value(0x06)
    8484                      .dwattr $C$DW$608, DW_AT_decl_file("C:\Users\ZXC\Documents\mcu project\ti-project\clllc_nonpowerSUITE
    8485                      .dwattr $C$DW$608, DW_AT_decl_line(0xae)
    8486                      .dwattr $C$DW$608, DW_AT_decl_column(0x05)
    8487              
    8488              $C$DW$609       .dwtag  DW_TAG_enumerator
    8489                      .dwattr $C$DW$609, DW_AT_name("XBAR_TRIP9")
    8490                      .dwattr $C$DW$609, DW_AT_const_value(0x08)
    8491                      .dwattr $C$DW$609, DW_AT_decl_file("C:\Users\ZXC\Documents\mcu project\ti-project\clllc_nonpowerSUITE
    8492                      .dwattr $C$DW$609, DW_AT_decl_line(0xaf)
    8493                      .dwattr $C$DW$609, DW_AT_decl_column(0x05)
    8494              
    8495              $C$DW$610       .dwtag  DW_TAG_enumerator
    8496                      .dwattr $C$DW$610, DW_AT_name("XBAR_TRIP10")
    8497                      .dwattr $C$DW$610, DW_AT_const_value(0x0a)
    8498                      .dwattr $C$DW$610, DW_AT_decl_file("C:\Users\ZXC\Documents\mcu project\ti-project\clllc_nonpowerSUITE
    8499                      .dwattr $C$DW$610, DW_AT_decl_line(0xb0)
    8500                      .dwattr $C$DW$610, DW_AT_decl_column(0x05)
    8501              
    8502              $C$DW$611       .dwtag  DW_TAG_enumerator
    8503                      .dwattr $C$DW$611, DW_AT_name("XBAR_TRIP11")
    8504                      .dwattr $C$DW$611, DW_AT_const_value(0x0c)
    8505                      .dwattr $C$DW$611, DW_AT_decl_file("C:\Users\ZXC\Documents\mcu project\ti-project\clllc_nonpowerSUITE
    8506                      .dwattr $C$DW$611, DW_AT_decl_line(0xb1)
    8507                      .dwattr $C$DW$611, DW_AT_decl_column(0x05)
    8508              
    8509              $C$DW$612       .dwtag  DW_TAG_enumerator
    8510                      .dwattr $C$DW$612, DW_AT_name("XBAR_TRIP12")
    8511                      .dwattr $C$DW$612, DW_AT_const_value(0x0e)
    8512                      .dwattr $C$DW$612, DW_AT_decl_file("C:\Users\ZXC\Documents\mcu project\ti-project\clllc_nonpowerSUITE
    8513                      .dwattr $C$DW$612, DW_AT_decl_line(0xb2)
    8514                      .dwattr $C$DW$612, DW_AT_decl_column(0x05)
    8515              
    8516                      .dwattr $C$DW$T$117, DW_AT_decl_file("C:\Users\ZXC\Documents\mcu project\ti-project\clllc_nonpowerSUI
    8517                      .dwattr $C$DW$T$117, DW_AT_decl_line(0xaa)
TMS320C2000 Assembler PC v22.6.0 Mon Sep  2 11:55:45 2024

Copyright (c) 1996-2018 Texas Instruments Incorporated
clllc_hal.asm                                                        PAGE  175

    8518                      .dwattr $C$DW$T$117, DW_AT_decl_column(0x01)
    8519                      .dwendtag $C$DW$T$117
    8520              
    8521                      .dwendtag $C$DW$TU$117
    8522              
    8523              
    8524              $C$DW$TU$118    .dwtag  DW_TAG_type_unit
    8525                      .dwmtype  $C$DW$T$118
    8526              $C$DW$T$118     .dwtag  DW_TAG_typedef
    8527                      .dwattr $C$DW$T$118, DW_AT_name("XBAR_TripNum")
    8528                      .dwattr $C$DW$T$118, DW_AT_type(*$C$DW$T$117)
    8529                      .dwattr $C$DW$T$118, DW_AT_decl_file("C:\Users\ZXC\Documents\mcu project\ti-project\clllc_nonpowerSUI
    8530                      .dwattr $C$DW$T$118, DW_AT_decl_line(0xb3)
    8531                      .dwattr $C$DW$T$118, DW_AT_decl_column(0x03)
    8532              
    8533                      .dwendtag $C$DW$TU$118
    8534              
    8535              
    8536              $C$DW$TU$119    .dwtag  DW_TAG_type_unit
    8537                      .dwmtype  $C$DW$T$119
    8538              
    8539              $C$DW$T$119     .dwtag  DW_TAG_enumeration_type
    8540                      .dwattr $C$DW$T$119, DW_AT_byte_size(0x01)
    8541              $C$DW$613       .dwtag  DW_TAG_enumerator
    8542                      .dwattr $C$DW$613, DW_AT_name("XBAR_OUT_MUX00_CMPSS1_CTRIPOUTH")
    8543                      .dwattr $C$DW$613, DW_AT_const_value(0x00)
    8544                      .dwattr $C$DW$613, DW_AT_decl_file("C:\Users\ZXC\Documents\mcu project\ti-project\clllc_nonpowerSUITE
    8545                      .dwattr $C$DW$613, DW_AT_decl_line(0xec)
    8546                      .dwattr $C$DW$613, DW_AT_decl_column(0x05)
    8547              
    8548              $C$DW$614       .dwtag  DW_TAG_enumerator
    8549                      .dwattr $C$DW$614, DW_AT_name("XBAR_OUT_MUX00_CMPSS1_CTRIPOUTH_OR_L")
    8550                      .dwattr $C$DW$614, DW_AT_const_value(0x01)
    8551                      .dwattr $C$DW$614, DW_AT_decl_file("C:\Users\ZXC\Documents\mcu project\ti-project\clllc_nonpowerSUITE
    8552                      .dwattr $C$DW$614, DW_AT_decl_line(0xed)
    8553                      .dwattr $C$DW$614, DW_AT_decl_column(0x05)
    8554              
    8555              $C$DW$615       .dwtag  DW_TAG_enumerator
    8556                      .dwattr $C$DW$615, DW_AT_name("XBAR_OUT_MUX00_ADCAEVT1")
    8557                      .dwattr $C$DW$615, DW_AT_const_value(0x02)
    8558                      .dwattr $C$DW$615, DW_AT_decl_file("C:\Users\ZXC\Documents\mcu project\ti-project\clllc_nonpowerSUITE
    8559                      .dwattr $C$DW$615, DW_AT_decl_line(0xee)
    8560                      .dwattr $C$DW$615, DW_AT_decl_column(0x05)
    8561              
    8562              $C$DW$616       .dwtag  DW_TAG_enumerator
    8563                      .dwattr $C$DW$616, DW_AT_name("XBAR_OUT_MUX00_ECAP1_OUT")
    8564                      .dwattr $C$DW$616, DW_AT_const_value(0x03)
    8565                      .dwattr $C$DW$616, DW_AT_decl_file("C:\Users\ZXC\Documents\mcu project\ti-project\clllc_nonpowerSUITE
    8566                      .dwattr $C$DW$616, DW_AT_decl_line(0xef)
    8567                      .dwattr $C$DW$616, DW_AT_decl_column(0x05)
    8568              
    8569              $C$DW$617       .dwtag  DW_TAG_enumerator
    8570                      .dwattr $C$DW$617, DW_AT_name("XBAR_OUT_MUX01_CMPSS1_CTRIPOUTL")
    8571                      .dwattr $C$DW$617, DW_AT_const_value(0x200)
    8572                      .dwattr $C$DW$617, DW_AT_decl_file("C:\Users\ZXC\Documents\mcu project\ti-project\clllc_nonpowerSUITE
TMS320C2000 Assembler PC v22.6.0 Mon Sep  2 11:55:45 2024

Copyright (c) 1996-2018 Texas Instruments Incorporated
clllc_hal.asm                                                        PAGE  176

    8573                      .dwattr $C$DW$617, DW_AT_decl_line(0xf0)
    8574                      .dwattr $C$DW$617, DW_AT_decl_column(0x05)
    8575              
    8576              $C$DW$618       .dwtag  DW_TAG_enumerator
    8577                      .dwattr $C$DW$618, DW_AT_name("XBAR_OUT_MUX01_INPUTXBAR1")
    8578                      .dwattr $C$DW$618, DW_AT_const_value(0x201)
    8579                      .dwattr $C$DW$618, DW_AT_decl_file("C:\Users\ZXC\Documents\mcu project\ti-project\clllc_nonpowerSUITE
    8580                      .dwattr $C$DW$618, DW_AT_decl_line(0xf1)
    8581                      .dwattr $C$DW$618, DW_AT_decl_column(0x05)
    8582              
    8583              $C$DW$619       .dwtag  DW_TAG_enumerator
    8584                      .dwattr $C$DW$619, DW_AT_name("XBAR_OUT_MUX01_CLB1_OUT4")
    8585                      .dwattr $C$DW$619, DW_AT_const_value(0x202)
    8586                      .dwattr $C$DW$619, DW_AT_decl_file("C:\Users\ZXC\Documents\mcu project\ti-project\clllc_nonpowerSUITE
    8587                      .dwattr $C$DW$619, DW_AT_decl_line(0xf2)
    8588                      .dwattr $C$DW$619, DW_AT_decl_column(0x05)
    8589              
    8590              $C$DW$620       .dwtag  DW_TAG_enumerator
    8591                      .dwattr $C$DW$620, DW_AT_name("XBAR_OUT_MUX01_ADCCEVT1")
    8592                      .dwattr $C$DW$620, DW_AT_const_value(0x203)
    8593                      .dwattr $C$DW$620, DW_AT_decl_file("C:\Users\ZXC\Documents\mcu project\ti-project\clllc_nonpowerSUITE
    8594                      .dwattr $C$DW$620, DW_AT_decl_line(0xf3)
    8595                      .dwattr $C$DW$620, DW_AT_decl_column(0x05)
    8596              
    8597              $C$DW$621       .dwtag  DW_TAG_enumerator
    8598                      .dwattr $C$DW$621, DW_AT_name("XBAR_OUT_MUX02_CMPSS2_CTRIPOUTH")
    8599                      .dwattr $C$DW$621, DW_AT_const_value(0x400)
    8600                      .dwattr $C$DW$621, DW_AT_decl_file("C:\Users\ZXC\Documents\mcu project\ti-project\clllc_nonpowerSUITE
    8601                      .dwattr $C$DW$621, DW_AT_decl_line(0xf4)
    8602                      .dwattr $C$DW$621, DW_AT_decl_column(0x05)
    8603              
    8604              $C$DW$622       .dwtag  DW_TAG_enumerator
    8605                      .dwattr $C$DW$622, DW_AT_name("XBAR_OUT_MUX02_CMPSS2_CTRIPOUTH_OR_L")
    8606                      .dwattr $C$DW$622, DW_AT_const_value(0x401)
    8607                      .dwattr $C$DW$622, DW_AT_decl_file("C:\Users\ZXC\Documents\mcu project\ti-project\clllc_nonpowerSUITE
    8608                      .dwattr $C$DW$622, DW_AT_decl_line(0xf5)
    8609                      .dwattr $C$DW$622, DW_AT_decl_column(0x05)
    8610              
    8611              $C$DW$623       .dwtag  DW_TAG_enumerator
    8612                      .dwattr $C$DW$623, DW_AT_name("XBAR_OUT_MUX02_ADCAEVT2")
    8613                      .dwattr $C$DW$623, DW_AT_const_value(0x402)
    8614                      .dwattr $C$DW$623, DW_AT_decl_file("C:\Users\ZXC\Documents\mcu project\ti-project\clllc_nonpowerSUITE
    8615                      .dwattr $C$DW$623, DW_AT_decl_line(0xf6)
    8616                      .dwattr $C$DW$623, DW_AT_decl_column(0x05)
    8617              
    8618              $C$DW$624       .dwtag  DW_TAG_enumerator
    8619                      .dwattr $C$DW$624, DW_AT_name("XBAR_OUT_MUX02_ECAP2_OUT")
    8620                      .dwattr $C$DW$624, DW_AT_const_value(0x403)
    8621                      .dwattr $C$DW$624, DW_AT_decl_file("C:\Users\ZXC\Documents\mcu project\ti-project\clllc_nonpowerSUITE
    8622                      .dwattr $C$DW$624, DW_AT_decl_line(0xf7)
    8623                      .dwattr $C$DW$624, DW_AT_decl_column(0x05)
    8624              
    8625              $C$DW$625       .dwtag  DW_TAG_enumerator
    8626                      .dwattr $C$DW$625, DW_AT_name("XBAR_OUT_MUX03_CMPSS2_CTRIPOUTL")
    8627                      .dwattr $C$DW$625, DW_AT_const_value(0x600)
TMS320C2000 Assembler PC v22.6.0 Mon Sep  2 11:55:45 2024

Copyright (c) 1996-2018 Texas Instruments Incorporated
clllc_hal.asm                                                        PAGE  177

    8628                      .dwattr $C$DW$625, DW_AT_decl_file("C:\Users\ZXC\Documents\mcu project\ti-project\clllc_nonpowerSUITE
    8629                      .dwattr $C$DW$625, DW_AT_decl_line(0xf8)
    8630                      .dwattr $C$DW$625, DW_AT_decl_column(0x05)
    8631              
    8632              $C$DW$626       .dwtag  DW_TAG_enumerator
    8633                      .dwattr $C$DW$626, DW_AT_name("XBAR_OUT_MUX03_INPUTXBAR2")
    8634                      .dwattr $C$DW$626, DW_AT_const_value(0x601)
    8635                      .dwattr $C$DW$626, DW_AT_decl_file("C:\Users\ZXC\Documents\mcu project\ti-project\clllc_nonpowerSUITE
    8636                      .dwattr $C$DW$626, DW_AT_decl_line(0xf9)
    8637                      .dwattr $C$DW$626, DW_AT_decl_column(0x05)
    8638              
    8639              $C$DW$627       .dwtag  DW_TAG_enumerator
    8640                      .dwattr $C$DW$627, DW_AT_name("XBAR_OUT_MUX03_CLB1_OUT5")
    8641                      .dwattr $C$DW$627, DW_AT_const_value(0x602)
    8642                      .dwattr $C$DW$627, DW_AT_decl_file("C:\Users\ZXC\Documents\mcu project\ti-project\clllc_nonpowerSUITE
    8643                      .dwattr $C$DW$627, DW_AT_decl_line(0xfa)
    8644                      .dwattr $C$DW$627, DW_AT_decl_column(0x05)
    8645              
    8646              $C$DW$628       .dwtag  DW_TAG_enumerator
    8647                      .dwattr $C$DW$628, DW_AT_name("XBAR_OUT_MUX03_ADCCEVT2")
    8648                      .dwattr $C$DW$628, DW_AT_const_value(0x603)
    8649                      .dwattr $C$DW$628, DW_AT_decl_file("C:\Users\ZXC\Documents\mcu project\ti-project\clllc_nonpowerSUITE
    8650                      .dwattr $C$DW$628, DW_AT_decl_line(0xfb)
    8651                      .dwattr $C$DW$628, DW_AT_decl_column(0x05)
    8652              
    8653              $C$DW$629       .dwtag  DW_TAG_enumerator
    8654                      .dwattr $C$DW$629, DW_AT_name("XBAR_OUT_MUX04_CMPSS3_CTRIPOUTH")
    8655                      .dwattr $C$DW$629, DW_AT_const_value(0x800)
    8656                      .dwattr $C$DW$629, DW_AT_decl_file("C:\Users\ZXC\Documents\mcu project\ti-project\clllc_nonpowerSUITE
    8657                      .dwattr $C$DW$629, DW_AT_decl_line(0xfc)
    8658                      .dwattr $C$DW$629, DW_AT_decl_column(0x05)
    8659              
    8660              $C$DW$630       .dwtag  DW_TAG_enumerator
    8661                      .dwattr $C$DW$630, DW_AT_name("XBAR_OUT_MUX04_CMPSS3_CTRIPOUTH_OR_L")
    8662                      .dwattr $C$DW$630, DW_AT_const_value(0x801)
    8663                      .dwattr $C$DW$630, DW_AT_decl_file("C:\Users\ZXC\Documents\mcu project\ti-project\clllc_nonpowerSUITE
    8664                      .dwattr $C$DW$630, DW_AT_decl_line(0xfd)
    8665                      .dwattr $C$DW$630, DW_AT_decl_column(0x05)
    8666              
    8667              $C$DW$631       .dwtag  DW_TAG_enumerator
    8668                      .dwattr $C$DW$631, DW_AT_name("XBAR_OUT_MUX04_ADCAEVT3")
    8669                      .dwattr $C$DW$631, DW_AT_const_value(0x802)
    8670                      .dwattr $C$DW$631, DW_AT_decl_file("C:\Users\ZXC\Documents\mcu project\ti-project\clllc_nonpowerSUITE
    8671                      .dwattr $C$DW$631, DW_AT_decl_line(0xfe)
    8672                      .dwattr $C$DW$631, DW_AT_decl_column(0x05)
    8673              
    8674              $C$DW$632       .dwtag  DW_TAG_enumerator
    8675                      .dwattr $C$DW$632, DW_AT_name("XBAR_OUT_MUX04_ECAP3_OUT")
    8676                      .dwattr $C$DW$632, DW_AT_const_value(0x803)
    8677                      .dwattr $C$DW$632, DW_AT_decl_file("C:\Users\ZXC\Documents\mcu project\ti-project\clllc_nonpowerSUITE
    8678                      .dwattr $C$DW$632, DW_AT_decl_line(0xff)
    8679                      .dwattr $C$DW$632, DW_AT_decl_column(0x05)
    8680              
    8681              $C$DW$633       .dwtag  DW_TAG_enumerator
    8682                      .dwattr $C$DW$633, DW_AT_name("XBAR_OUT_MUX05_CMPSS3_CTRIPOUTL")
TMS320C2000 Assembler PC v22.6.0 Mon Sep  2 11:55:45 2024

Copyright (c) 1996-2018 Texas Instruments Incorporated
clllc_hal.asm                                                        PAGE  178

    8683                      .dwattr $C$DW$633, DW_AT_const_value(0xa00)
    8684                      .dwattr $C$DW$633, DW_AT_decl_file("C:\Users\ZXC\Documents\mcu project\ti-project\clllc_nonpowerSUITE
    8685                      .dwattr $C$DW$633, DW_AT_decl_line(0x100)
    8686                      .dwattr $C$DW$633, DW_AT_decl_column(0x05)
    8687              
    8688              $C$DW$634       .dwtag  DW_TAG_enumerator
    8689                      .dwattr $C$DW$634, DW_AT_name("XBAR_OUT_MUX05_INPUTXBAR3")
    8690                      .dwattr $C$DW$634, DW_AT_const_value(0xa01)
    8691                      .dwattr $C$DW$634, DW_AT_decl_file("C:\Users\ZXC\Documents\mcu project\ti-project\clllc_nonpowerSUITE
    8692                      .dwattr $C$DW$634, DW_AT_decl_line(0x101)
    8693                      .dwattr $C$DW$634, DW_AT_decl_column(0x05)
    8694              
    8695              $C$DW$635       .dwtag  DW_TAG_enumerator
    8696                      .dwattr $C$DW$635, DW_AT_name("XBAR_OUT_MUX05_CLB2_OUT4")
    8697                      .dwattr $C$DW$635, DW_AT_const_value(0xa02)
    8698                      .dwattr $C$DW$635, DW_AT_decl_file("C:\Users\ZXC\Documents\mcu project\ti-project\clllc_nonpowerSUITE
    8699                      .dwattr $C$DW$635, DW_AT_decl_line(0x102)
    8700                      .dwattr $C$DW$635, DW_AT_decl_column(0x05)
    8701              
    8702              $C$DW$636       .dwtag  DW_TAG_enumerator
    8703                      .dwattr $C$DW$636, DW_AT_name("XBAR_OUT_MUX05_ADCCEVT3")
    8704                      .dwattr $C$DW$636, DW_AT_const_value(0xa03)
    8705                      .dwattr $C$DW$636, DW_AT_decl_file("C:\Users\ZXC\Documents\mcu project\ti-project\clllc_nonpowerSUITE
    8706                      .dwattr $C$DW$636, DW_AT_decl_line(0x103)
    8707                      .dwattr $C$DW$636, DW_AT_decl_column(0x05)
    8708              
    8709              $C$DW$637       .dwtag  DW_TAG_enumerator
    8710                      .dwattr $C$DW$637, DW_AT_name("XBAR_OUT_MUX06_CMPSS4_CTRIPOUTH")
    8711                      .dwattr $C$DW$637, DW_AT_const_value(0xc00)
    8712                      .dwattr $C$DW$637, DW_AT_decl_file("C:\Users\ZXC\Documents\mcu project\ti-project\clllc_nonpowerSUITE
    8713                      .dwattr $C$DW$637, DW_AT_decl_line(0x104)
    8714                      .dwattr $C$DW$637, DW_AT_decl_column(0x05)
    8715              
    8716              $C$DW$638       .dwtag  DW_TAG_enumerator
    8717                      .dwattr $C$DW$638, DW_AT_name("XBAR_OUT_MUX06_CMPSS4_CTRIPOUTH_OR_L")
    8718                      .dwattr $C$DW$638, DW_AT_const_value(0xc01)
    8719                      .dwattr $C$DW$638, DW_AT_decl_file("C:\Users\ZXC\Documents\mcu project\ti-project\clllc_nonpowerSUITE
    8720                      .dwattr $C$DW$638, DW_AT_decl_line(0x105)
    8721                      .dwattr $C$DW$638, DW_AT_decl_column(0x05)
    8722              
    8723              $C$DW$639       .dwtag  DW_TAG_enumerator
    8724                      .dwattr $C$DW$639, DW_AT_name("XBAR_OUT_MUX06_ADCAEVT4")
    8725                      .dwattr $C$DW$639, DW_AT_const_value(0xc02)
    8726                      .dwattr $C$DW$639, DW_AT_decl_file("C:\Users\ZXC\Documents\mcu project\ti-project\clllc_nonpowerSUITE
    8727                      .dwattr $C$DW$639, DW_AT_decl_line(0x106)
    8728                      .dwattr $C$DW$639, DW_AT_decl_column(0x05)
    8729              
    8730              $C$DW$640       .dwtag  DW_TAG_enumerator
    8731                      .dwattr $C$DW$640, DW_AT_name("XBAR_OUT_MUX06_ECAP4_OUT")
    8732                      .dwattr $C$DW$640, DW_AT_const_value(0xc03)
    8733                      .dwattr $C$DW$640, DW_AT_decl_file("C:\Users\ZXC\Documents\mcu project\ti-project\clllc_nonpowerSUITE
    8734                      .dwattr $C$DW$640, DW_AT_decl_line(0x107)
    8735                      .dwattr $C$DW$640, DW_AT_decl_column(0x05)
    8736              
    8737              $C$DW$641       .dwtag  DW_TAG_enumerator
TMS320C2000 Assembler PC v22.6.0 Mon Sep  2 11:55:45 2024

Copyright (c) 1996-2018 Texas Instruments Incorporated
clllc_hal.asm                                                        PAGE  179

    8738                      .dwattr $C$DW$641, DW_AT_name("XBAR_OUT_MUX07_CMPSS4_CTRIPOUTL")
    8739                      .dwattr $C$DW$641, DW_AT_const_value(0xe00)
    8740                      .dwattr $C$DW$641, DW_AT_decl_file("C:\Users\ZXC\Documents\mcu project\ti-project\clllc_nonpowerSUITE
    8741                      .dwattr $C$DW$641, DW_AT_decl_line(0x108)
    8742                      .dwattr $C$DW$641, DW_AT_decl_column(0x05)
    8743              
    8744              $C$DW$642       .dwtag  DW_TAG_enumerator
    8745                      .dwattr $C$DW$642, DW_AT_name("XBAR_OUT_MUX07_INPUTXBAR4")
    8746                      .dwattr $C$DW$642, DW_AT_const_value(0xe01)
    8747                      .dwattr $C$DW$642, DW_AT_decl_file("C:\Users\ZXC\Documents\mcu project\ti-project\clllc_nonpowerSUITE
    8748                      .dwattr $C$DW$642, DW_AT_decl_line(0x109)
    8749                      .dwattr $C$DW$642, DW_AT_decl_column(0x05)
    8750              
    8751              $C$DW$643       .dwtag  DW_TAG_enumerator
    8752                      .dwattr $C$DW$643, DW_AT_name("XBAR_OUT_MUX07_CLB2_OUT5")
    8753                      .dwattr $C$DW$643, DW_AT_const_value(0xe02)
    8754                      .dwattr $C$DW$643, DW_AT_decl_file("C:\Users\ZXC\Documents\mcu project\ti-project\clllc_nonpowerSUITE
    8755                      .dwattr $C$DW$643, DW_AT_decl_line(0x10a)
    8756                      .dwattr $C$DW$643, DW_AT_decl_column(0x05)
    8757              
    8758              $C$DW$644       .dwtag  DW_TAG_enumerator
    8759                      .dwattr $C$DW$644, DW_AT_name("XBAR_OUT_MUX07_ADCCEVT4")
    8760                      .dwattr $C$DW$644, DW_AT_const_value(0xe03)
    8761                      .dwattr $C$DW$644, DW_AT_decl_file("C:\Users\ZXC\Documents\mcu project\ti-project\clllc_nonpowerSUITE
    8762                      .dwattr $C$DW$644, DW_AT_decl_line(0x10b)
    8763                      .dwattr $C$DW$644, DW_AT_decl_column(0x05)
    8764              
    8765              $C$DW$645       .dwtag  DW_TAG_enumerator
    8766                      .dwattr $C$DW$645, DW_AT_name("XBAR_OUT_MUX08_CMPSS5_CTRIPOUTH")
    8767                      .dwattr $C$DW$645, DW_AT_const_value(0x1000)
    8768                      .dwattr $C$DW$645, DW_AT_decl_file("C:\Users\ZXC\Documents\mcu project\ti-project\clllc_nonpowerSUITE
    8769                      .dwattr $C$DW$645, DW_AT_decl_line(0x10c)
    8770                      .dwattr $C$DW$645, DW_AT_decl_column(0x05)
    8771              
    8772              $C$DW$646       .dwtag  DW_TAG_enumerator
    8773                      .dwattr $C$DW$646, DW_AT_name("XBAR_OUT_MUX08_CMPSS5_CTRIPOUTH_OR_L")
    8774                      .dwattr $C$DW$646, DW_AT_const_value(0x1001)
    8775                      .dwattr $C$DW$646, DW_AT_decl_file("C:\Users\ZXC\Documents\mcu project\ti-project\clllc_nonpowerSUITE
    8776                      .dwattr $C$DW$646, DW_AT_decl_line(0x10d)
    8777                      .dwattr $C$DW$646, DW_AT_decl_column(0x05)
    8778              
    8779              $C$DW$647       .dwtag  DW_TAG_enumerator
    8780                      .dwattr $C$DW$647, DW_AT_name("XBAR_OUT_MUX08_ADCBEVT1")
    8781                      .dwattr $C$DW$647, DW_AT_const_value(0x1002)
    8782                      .dwattr $C$DW$647, DW_AT_decl_file("C:\Users\ZXC\Documents\mcu project\ti-project\clllc_nonpowerSUITE
    8783                      .dwattr $C$DW$647, DW_AT_decl_line(0x10e)
    8784                      .dwattr $C$DW$647, DW_AT_decl_column(0x05)
    8785              
    8786              $C$DW$648       .dwtag  DW_TAG_enumerator
    8787                      .dwattr $C$DW$648, DW_AT_name("XBAR_OUT_MUX08_ECAP5_OUT")
    8788                      .dwattr $C$DW$648, DW_AT_const_value(0x1003)
    8789                      .dwattr $C$DW$648, DW_AT_decl_file("C:\Users\ZXC\Documents\mcu project\ti-project\clllc_nonpowerSUITE
    8790                      .dwattr $C$DW$648, DW_AT_decl_line(0x10f)
    8791                      .dwattr $C$DW$648, DW_AT_decl_column(0x05)
    8792              
TMS320C2000 Assembler PC v22.6.0 Mon Sep  2 11:55:45 2024

Copyright (c) 1996-2018 Texas Instruments Incorporated
clllc_hal.asm                                                        PAGE  180

    8793              $C$DW$649       .dwtag  DW_TAG_enumerator
    8794                      .dwattr $C$DW$649, DW_AT_name("XBAR_OUT_MUX09_CMPSS5_CTRIPOUTL")
    8795                      .dwattr $C$DW$649, DW_AT_const_value(0x1200)
    8796                      .dwattr $C$DW$649, DW_AT_decl_file("C:\Users\ZXC\Documents\mcu project\ti-project\clllc_nonpowerSUITE
    8797                      .dwattr $C$DW$649, DW_AT_decl_line(0x110)
    8798                      .dwattr $C$DW$649, DW_AT_decl_column(0x05)
    8799              
    8800              $C$DW$650       .dwtag  DW_TAG_enumerator
    8801                      .dwattr $C$DW$650, DW_AT_name("XBAR_OUT_MUX09_INPUTXBAR5")
    8802                      .dwattr $C$DW$650, DW_AT_const_value(0x1201)
    8803                      .dwattr $C$DW$650, DW_AT_decl_file("C:\Users\ZXC\Documents\mcu project\ti-project\clllc_nonpowerSUITE
    8804                      .dwattr $C$DW$650, DW_AT_decl_line(0x111)
    8805                      .dwattr $C$DW$650, DW_AT_decl_column(0x05)
    8806              
    8807              $C$DW$651       .dwtag  DW_TAG_enumerator
    8808                      .dwattr $C$DW$651, DW_AT_name("XBAR_OUT_MUX09_CLB3_OUT4")
    8809                      .dwattr $C$DW$651, DW_AT_const_value(0x1202)
    8810                      .dwattr $C$DW$651, DW_AT_decl_file("C:\Users\ZXC\Documents\mcu project\ti-project\clllc_nonpowerSUITE
    8811                      .dwattr $C$DW$651, DW_AT_decl_line(0x112)
    8812                      .dwattr $C$DW$651, DW_AT_decl_column(0x05)
    8813              
    8814              $C$DW$652       .dwtag  DW_TAG_enumerator
    8815                      .dwattr $C$DW$652, DW_AT_name("XBAR_OUT_MUX10_CMPSS6_CTRIPOUTH")
    8816                      .dwattr $C$DW$652, DW_AT_const_value(0x1400)
    8817                      .dwattr $C$DW$652, DW_AT_decl_file("C:\Users\ZXC\Documents\mcu project\ti-project\clllc_nonpowerSUITE
    8818                      .dwattr $C$DW$652, DW_AT_decl_line(0x113)
    8819                      .dwattr $C$DW$652, DW_AT_decl_column(0x05)
    8820              
    8821              $C$DW$653       .dwtag  DW_TAG_enumerator
    8822                      .dwattr $C$DW$653, DW_AT_name("XBAR_OUT_MUX10_CMPSS6_CTRIPOUTH_OR_L")
    8823                      .dwattr $C$DW$653, DW_AT_const_value(0x1401)
    8824                      .dwattr $C$DW$653, DW_AT_decl_file("C:\Users\ZXC\Documents\mcu project\ti-project\clllc_nonpowerSUITE
    8825                      .dwattr $C$DW$653, DW_AT_decl_line(0x114)
    8826                      .dwattr $C$DW$653, DW_AT_decl_column(0x05)
    8827              
    8828              $C$DW$654       .dwtag  DW_TAG_enumerator
    8829                      .dwattr $C$DW$654, DW_AT_name("XBAR_OUT_MUX10_ADCBEVT2")
    8830                      .dwattr $C$DW$654, DW_AT_const_value(0x1402)
    8831                      .dwattr $C$DW$654, DW_AT_decl_file("C:\Users\ZXC\Documents\mcu project\ti-project\clllc_nonpowerSUITE
    8832                      .dwattr $C$DW$654, DW_AT_decl_line(0x115)
    8833                      .dwattr $C$DW$654, DW_AT_decl_column(0x05)
    8834              
    8835              $C$DW$655       .dwtag  DW_TAG_enumerator
    8836                      .dwattr $C$DW$655, DW_AT_name("XBAR_OUT_MUX10_ECAP6_OUT")
    8837                      .dwattr $C$DW$655, DW_AT_const_value(0x1403)
    8838                      .dwattr $C$DW$655, DW_AT_decl_file("C:\Users\ZXC\Documents\mcu project\ti-project\clllc_nonpowerSUITE
    8839                      .dwattr $C$DW$655, DW_AT_decl_line(0x116)
    8840                      .dwattr $C$DW$655, DW_AT_decl_column(0x05)
    8841              
    8842              $C$DW$656       .dwtag  DW_TAG_enumerator
    8843                      .dwattr $C$DW$656, DW_AT_name("XBAR_OUT_MUX11_CMPSS6_CTRIPOUTL")
    8844                      .dwattr $C$DW$656, DW_AT_const_value(0x1600)
    8845                      .dwattr $C$DW$656, DW_AT_decl_file("C:\Users\ZXC\Documents\mcu project\ti-project\clllc_nonpowerSUITE
    8846                      .dwattr $C$DW$656, DW_AT_decl_line(0x117)
    8847                      .dwattr $C$DW$656, DW_AT_decl_column(0x05)
TMS320C2000 Assembler PC v22.6.0 Mon Sep  2 11:55:45 2024

Copyright (c) 1996-2018 Texas Instruments Incorporated
clllc_hal.asm                                                        PAGE  181

    8848              
    8849              $C$DW$657       .dwtag  DW_TAG_enumerator
    8850                      .dwattr $C$DW$657, DW_AT_name("XBAR_OUT_MUX11_INPUTXBAR6")
    8851                      .dwattr $C$DW$657, DW_AT_const_value(0x1601)
    8852                      .dwattr $C$DW$657, DW_AT_decl_file("C:\Users\ZXC\Documents\mcu project\ti-project\clllc_nonpowerSUITE
    8853                      .dwattr $C$DW$657, DW_AT_decl_line(0x118)
    8854                      .dwattr $C$DW$657, DW_AT_decl_column(0x05)
    8855              
    8856              $C$DW$658       .dwtag  DW_TAG_enumerator
    8857                      .dwattr $C$DW$658, DW_AT_name("XBAR_OUT_MUX11_CLB3_OUT5")
    8858                      .dwattr $C$DW$658, DW_AT_const_value(0x1602)
    8859                      .dwattr $C$DW$658, DW_AT_decl_file("C:\Users\ZXC\Documents\mcu project\ti-project\clllc_nonpowerSUITE
    8860                      .dwattr $C$DW$658, DW_AT_decl_line(0x119)
    8861                      .dwattr $C$DW$658, DW_AT_decl_column(0x05)
    8862              
    8863              $C$DW$659       .dwtag  DW_TAG_enumerator
    8864                      .dwattr $C$DW$659, DW_AT_name("XBAR_OUT_MUX12_CMPSS7_CTRIPOUTH")
    8865                      .dwattr $C$DW$659, DW_AT_const_value(0x1800)
    8866                      .dwattr $C$DW$659, DW_AT_decl_file("C:\Users\ZXC\Documents\mcu project\ti-project\clllc_nonpowerSUITE
    8867                      .dwattr $C$DW$659, DW_AT_decl_line(0x11a)
    8868                      .dwattr $C$DW$659, DW_AT_decl_column(0x05)
    8869              
    8870              $C$DW$660       .dwtag  DW_TAG_enumerator
    8871                      .dwattr $C$DW$660, DW_AT_name("XBAR_OUT_MUX12_CMPSS7_CTRIPOUTH_OR_L")
    8872                      .dwattr $C$DW$660, DW_AT_const_value(0x1801)
    8873                      .dwattr $C$DW$660, DW_AT_decl_file("C:\Users\ZXC\Documents\mcu project\ti-project\clllc_nonpowerSUITE
    8874                      .dwattr $C$DW$660, DW_AT_decl_line(0x11b)
    8875                      .dwattr $C$DW$660, DW_AT_decl_column(0x05)
    8876              
    8877              $C$DW$661       .dwtag  DW_TAG_enumerator
    8878                      .dwattr $C$DW$661, DW_AT_name("XBAR_OUT_MUX12_ADCBEVT3")
    8879                      .dwattr $C$DW$661, DW_AT_const_value(0x1802)
    8880                      .dwattr $C$DW$661, DW_AT_decl_file("C:\Users\ZXC\Documents\mcu project\ti-project\clllc_nonpowerSUITE
    8881                      .dwattr $C$DW$661, DW_AT_decl_line(0x11c)
    8882                      .dwattr $C$DW$661, DW_AT_decl_column(0x05)
    8883              
    8884              $C$DW$662       .dwtag  DW_TAG_enumerator
    8885                      .dwattr $C$DW$662, DW_AT_name("XBAR_OUT_MUX12_ECAP7_OUT")
    8886                      .dwattr $C$DW$662, DW_AT_const_value(0x1803)
    8887                      .dwattr $C$DW$662, DW_AT_decl_file("C:\Users\ZXC\Documents\mcu project\ti-project\clllc_nonpowerSUITE
    8888                      .dwattr $C$DW$662, DW_AT_decl_line(0x11d)
    8889                      .dwattr $C$DW$662, DW_AT_decl_column(0x05)
    8890              
    8891              $C$DW$663       .dwtag  DW_TAG_enumerator
    8892                      .dwattr $C$DW$663, DW_AT_name("XBAR_OUT_MUX13_CMPSS7_CTRIPOUTL")
    8893                      .dwattr $C$DW$663, DW_AT_const_value(0x1a00)
    8894                      .dwattr $C$DW$663, DW_AT_decl_file("C:\Users\ZXC\Documents\mcu project\ti-project\clllc_nonpowerSUITE
    8895                      .dwattr $C$DW$663, DW_AT_decl_line(0x11e)
    8896                      .dwattr $C$DW$663, DW_AT_decl_column(0x05)
    8897              
    8898              $C$DW$664       .dwtag  DW_TAG_enumerator
    8899                      .dwattr $C$DW$664, DW_AT_name("XBAR_OUT_MUX13_ADCSOCA")
    8900                      .dwattr $C$DW$664, DW_AT_const_value(0x1a01)
    8901                      .dwattr $C$DW$664, DW_AT_decl_file("C:\Users\ZXC\Documents\mcu project\ti-project\clllc_nonpowerSUITE
    8902                      .dwattr $C$DW$664, DW_AT_decl_line(0x11f)
TMS320C2000 Assembler PC v22.6.0 Mon Sep  2 11:55:45 2024

Copyright (c) 1996-2018 Texas Instruments Incorporated
clllc_hal.asm                                                        PAGE  182

    8903                      .dwattr $C$DW$664, DW_AT_decl_column(0x05)
    8904              
    8905              $C$DW$665       .dwtag  DW_TAG_enumerator
    8906                      .dwattr $C$DW$665, DW_AT_name("XBAR_OUT_MUX13_CLB4_OUT4")
    8907                      .dwattr $C$DW$665, DW_AT_const_value(0x1a02)
    8908                      .dwattr $C$DW$665, DW_AT_decl_file("C:\Users\ZXC\Documents\mcu project\ti-project\clllc_nonpowerSUITE
    8909                      .dwattr $C$DW$665, DW_AT_decl_line(0x120)
    8910                      .dwattr $C$DW$665, DW_AT_decl_column(0x05)
    8911              
    8912              $C$DW$666       .dwtag  DW_TAG_enumerator
    8913                      .dwattr $C$DW$666, DW_AT_name("XBAR_OUT_MUX14_ADCBEVT4")
    8914                      .dwattr $C$DW$666, DW_AT_const_value(0x1c02)
    8915                      .dwattr $C$DW$666, DW_AT_decl_file("C:\Users\ZXC\Documents\mcu project\ti-project\clllc_nonpowerSUITE
    8916                      .dwattr $C$DW$666, DW_AT_decl_line(0x121)
    8917                      .dwattr $C$DW$666, DW_AT_decl_column(0x05)
    8918              
    8919              $C$DW$667       .dwtag  DW_TAG_enumerator
    8920                      .dwattr $C$DW$667, DW_AT_name("XBAR_OUT_MUX14_EXTSYNCOUT")
    8921                      .dwattr $C$DW$667, DW_AT_const_value(0x1c03)
    8922                      .dwattr $C$DW$667, DW_AT_decl_file("C:\Users\ZXC\Documents\mcu project\ti-project\clllc_nonpowerSUITE
    8923                      .dwattr $C$DW$667, DW_AT_decl_line(0x122)
    8924                      .dwattr $C$DW$667, DW_AT_decl_column(0x05)
    8925              
    8926              $C$DW$668       .dwtag  DW_TAG_enumerator
    8927                      .dwattr $C$DW$668, DW_AT_name("XBAR_OUT_MUX15_ADCSOCB")
    8928                      .dwattr $C$DW$668, DW_AT_const_value(0x1e01)
    8929                      .dwattr $C$DW$668, DW_AT_decl_file("C:\Users\ZXC\Documents\mcu project\ti-project\clllc_nonpowerSUITE
    8930                      .dwattr $C$DW$668, DW_AT_decl_line(0x123)
    8931                      .dwattr $C$DW$668, DW_AT_decl_column(0x05)
    8932              
    8933              $C$DW$669       .dwtag  DW_TAG_enumerator
    8934                      .dwattr $C$DW$669, DW_AT_name("XBAR_OUT_MUX15_CLB4_OUT5")
    8935                      .dwattr $C$DW$669, DW_AT_const_value(0x1e02)
    8936                      .dwattr $C$DW$669, DW_AT_decl_file("C:\Users\ZXC\Documents\mcu project\ti-project\clllc_nonpowerSUITE
    8937                      .dwattr $C$DW$669, DW_AT_decl_line(0x124)
    8938                      .dwattr $C$DW$669, DW_AT_decl_column(0x05)
    8939              
    8940              $C$DW$670       .dwtag  DW_TAG_enumerator
    8941                      .dwattr $C$DW$670, DW_AT_name("XBAR_OUT_MUX16_SD1FLT1_COMPH")
    8942                      .dwattr $C$DW$670, DW_AT_const_value(0x2000)
    8943                      .dwattr $C$DW$670, DW_AT_decl_file("C:\Users\ZXC\Documents\mcu project\ti-project\clllc_nonpowerSUITE
    8944                      .dwattr $C$DW$670, DW_AT_decl_line(0x125)
    8945                      .dwattr $C$DW$670, DW_AT_decl_column(0x05)
    8946              
    8947              $C$DW$671       .dwtag  DW_TAG_enumerator
    8948                      .dwattr $C$DW$671, DW_AT_name("XBAR_OUT_MUX16_SD1FLT1_COMPH_OR_COMPL")
    8949                      .dwattr $C$DW$671, DW_AT_const_value(0x2001)
    8950                      .dwattr $C$DW$671, DW_AT_decl_file("C:\Users\ZXC\Documents\mcu project\ti-project\clllc_nonpowerSUITE
    8951                      .dwattr $C$DW$671, DW_AT_decl_line(0x126)
    8952                      .dwattr $C$DW$671, DW_AT_decl_column(0x05)
    8953              
    8954              $C$DW$672       .dwtag  DW_TAG_enumerator
    8955                      .dwattr $C$DW$672, DW_AT_name("XBAR_OUT_MUX17_SD1FLT1_COMPL")
    8956                      .dwattr $C$DW$672, DW_AT_const_value(0x2200)
    8957                      .dwattr $C$DW$672, DW_AT_decl_file("C:\Users\ZXC\Documents\mcu project\ti-project\clllc_nonpowerSUITE
TMS320C2000 Assembler PC v22.6.0 Mon Sep  2 11:55:45 2024

Copyright (c) 1996-2018 Texas Instruments Incorporated
clllc_hal.asm                                                        PAGE  183

    8958                      .dwattr $C$DW$672, DW_AT_decl_line(0x127)
    8959                      .dwattr $C$DW$672, DW_AT_decl_column(0x05)
    8960              
    8961              $C$DW$673       .dwtag  DW_TAG_enumerator
    8962                      .dwattr $C$DW$673, DW_AT_name("XBAR_OUT_MUX17_CLAHALT")
    8963                      .dwattr $C$DW$673, DW_AT_const_value(0x2203)
    8964                      .dwattr $C$DW$673, DW_AT_decl_file("C:\Users\ZXC\Documents\mcu project\ti-project\clllc_nonpowerSUITE
    8965                      .dwattr $C$DW$673, DW_AT_decl_line(0x128)
    8966                      .dwattr $C$DW$673, DW_AT_decl_column(0x05)
    8967              
    8968              $C$DW$674       .dwtag  DW_TAG_enumerator
    8969                      .dwattr $C$DW$674, DW_AT_name("XBAR_OUT_MUX18_SD1FLT2_COMPH")
    8970                      .dwattr $C$DW$674, DW_AT_const_value(0x2400)
    8971                      .dwattr $C$DW$674, DW_AT_decl_file("C:\Users\ZXC\Documents\mcu project\ti-project\clllc_nonpowerSUITE
    8972                      .dwattr $C$DW$674, DW_AT_decl_line(0x129)
    8973                      .dwattr $C$DW$674, DW_AT_decl_column(0x05)
    8974              
    8975              $C$DW$675       .dwtag  DW_TAG_enumerator
    8976                      .dwattr $C$DW$675, DW_AT_name("XBAR_OUT_MUX18_SD1FLT2_COMPH_OR_COMPL")
    8977                      .dwattr $C$DW$675, DW_AT_const_value(0x2401)
    8978                      .dwattr $C$DW$675, DW_AT_decl_file("C:\Users\ZXC\Documents\mcu project\ti-project\clllc_nonpowerSUITE
    8979                      .dwattr $C$DW$675, DW_AT_decl_line(0x12a)
    8980                      .dwattr $C$DW$675, DW_AT_decl_column(0x05)
    8981              
    8982              $C$DW$676       .dwtag  DW_TAG_enumerator
    8983                      .dwattr $C$DW$676, DW_AT_name("XBAR_OUT_MUX19_SD1FLT2_COMPL")
    8984                      .dwattr $C$DW$676, DW_AT_const_value(0x2600)
    8985                      .dwattr $C$DW$676, DW_AT_decl_file("C:\Users\ZXC\Documents\mcu project\ti-project\clllc_nonpowerSUITE
    8986                      .dwattr $C$DW$676, DW_AT_decl_line(0x12b)
    8987                      .dwattr $C$DW$676, DW_AT_decl_column(0x05)
    8988              
    8989              $C$DW$677       .dwtag  DW_TAG_enumerator
    8990                      .dwattr $C$DW$677, DW_AT_name("XBAR_OUT_MUX20_SD1FLT3_COMPH")
    8991                      .dwattr $C$DW$677, DW_AT_const_value(0x2800)
    8992                      .dwattr $C$DW$677, DW_AT_decl_file("C:\Users\ZXC\Documents\mcu project\ti-project\clllc_nonpowerSUITE
    8993                      .dwattr $C$DW$677, DW_AT_decl_line(0x12c)
    8994                      .dwattr $C$DW$677, DW_AT_decl_column(0x05)
    8995              
    8996              $C$DW$678       .dwtag  DW_TAG_enumerator
    8997                      .dwattr $C$DW$678, DW_AT_name("XBAR_OUT_MUX20_SD1FLT3_COMPH_OR_COMPL")
    8998                      .dwattr $C$DW$678, DW_AT_const_value(0x2801)
    8999                      .dwattr $C$DW$678, DW_AT_decl_file("C:\Users\ZXC\Documents\mcu project\ti-project\clllc_nonpowerSUITE
    9000                      .dwattr $C$DW$678, DW_AT_decl_line(0x12d)
    9001                      .dwattr $C$DW$678, DW_AT_decl_column(0x05)
    9002              
    9003              $C$DW$679       .dwtag  DW_TAG_enumerator
    9004                      .dwattr $C$DW$679, DW_AT_name("XBAR_OUT_MUX21_SD1FLT3_COMPL")
    9005                      .dwattr $C$DW$679, DW_AT_const_value(0x2a00)
    9006                      .dwattr $C$DW$679, DW_AT_decl_file("C:\Users\ZXC\Documents\mcu project\ti-project\clllc_nonpowerSUITE
    9007                      .dwattr $C$DW$679, DW_AT_decl_line(0x12e)
    9008                      .dwattr $C$DW$679, DW_AT_decl_column(0x05)
    9009              
    9010              $C$DW$680       .dwtag  DW_TAG_enumerator
    9011                      .dwattr $C$DW$680, DW_AT_name("XBAR_OUT_MUX22_SD1FLT4_COMPH")
    9012                      .dwattr $C$DW$680, DW_AT_const_value(0x2c00)
TMS320C2000 Assembler PC v22.6.0 Mon Sep  2 11:55:45 2024

Copyright (c) 1996-2018 Texas Instruments Incorporated
clllc_hal.asm                                                        PAGE  184

    9013                      .dwattr $C$DW$680, DW_AT_decl_file("C:\Users\ZXC\Documents\mcu project\ti-project\clllc_nonpowerSUITE
    9014                      .dwattr $C$DW$680, DW_AT_decl_line(0x12f)
    9015                      .dwattr $C$DW$680, DW_AT_decl_column(0x05)
    9016              
    9017              $C$DW$681       .dwtag  DW_TAG_enumerator
    9018                      .dwattr $C$DW$681, DW_AT_name("XBAR_OUT_MUX22_SD1FLT4_COMPH_OR_COMPL")
    9019                      .dwattr $C$DW$681, DW_AT_const_value(0x2c01)
    9020                      .dwattr $C$DW$681, DW_AT_decl_file("C:\Users\ZXC\Documents\mcu project\ti-project\clllc_nonpowerSUITE
    9021                      .dwattr $C$DW$681, DW_AT_decl_line(0x130)
    9022                      .dwattr $C$DW$681, DW_AT_decl_column(0x05)
    9023              
    9024              $C$DW$682       .dwtag  DW_TAG_enumerator
    9025                      .dwattr $C$DW$682, DW_AT_name("XBAR_OUT_MUX23_SD1FLT4_COMPL")
    9026                      .dwattr $C$DW$682, DW_AT_const_value(0x2e00)
    9027                      .dwattr $C$DW$682, DW_AT_decl_file("C:\Users\ZXC\Documents\mcu project\ti-project\clllc_nonpowerSUITE
    9028                      .dwattr $C$DW$682, DW_AT_decl_line(0x131)
    9029                      .dwattr $C$DW$682, DW_AT_decl_column(0x05)
    9030              
    9031                      .dwattr $C$DW$T$119, DW_AT_decl_file("C:\Users\ZXC\Documents\mcu project\ti-project\clllc_nonpowerSUI
    9032                      .dwattr $C$DW$T$119, DW_AT_decl_line(0xe8)
    9033                      .dwattr $C$DW$T$119, DW_AT_decl_column(0x01)
    9034                      .dwendtag $C$DW$T$119
    9035              
    9036                      .dwendtag $C$DW$TU$119
    9037              
    9038              
    9039              $C$DW$TU$120    .dwtag  DW_TAG_type_unit
    9040                      .dwmtype  $C$DW$T$120
    9041              $C$DW$T$120     .dwtag  DW_TAG_typedef
    9042                      .dwattr $C$DW$T$120, DW_AT_name("XBAR_OutputMuxConfig")
    9043                      .dwattr $C$DW$T$120, DW_AT_type(*$C$DW$T$119)
    9044                      .dwattr $C$DW$T$120, DW_AT_decl_file("C:\Users\ZXC\Documents\mcu project\ti-project\clllc_nonpowerSUI
    9045                      .dwattr $C$DW$T$120, DW_AT_decl_line(0x133)
    9046                      .dwattr $C$DW$T$120, DW_AT_decl_column(0x03)
    9047              
    9048                      .dwendtag $C$DW$TU$120
    9049              
    9050              
    9051              $C$DW$TU$121    .dwtag  DW_TAG_type_unit
    9052                      .dwmtype  $C$DW$T$121
    9053              
    9054              $C$DW$T$121     .dwtag  DW_TAG_enumeration_type
    9055                      .dwattr $C$DW$T$121, DW_AT_byte_size(0x01)
    9056              $C$DW$683       .dwtag  DW_TAG_enumerator
    9057                      .dwattr $C$DW$683, DW_AT_name("XBAR_EPWM_MUX00_CMPSS1_CTRIPH")
    9058                      .dwattr $C$DW$683, DW_AT_const_value(0x00)
    9059                      .dwattr $C$DW$683, DW_AT_decl_file("C:\Users\ZXC\Documents\mcu project\ti-project\clllc_nonpowerSUITE
    9060                      .dwattr $C$DW$683, DW_AT_decl_line(0x13d)
    9061                      .dwattr $C$DW$683, DW_AT_decl_column(0x05)
    9062              
    9063              $C$DW$684       .dwtag  DW_TAG_enumerator
    9064                      .dwattr $C$DW$684, DW_AT_name("XBAR_EPWM_MUX00_CMPSS1_CTRIPH_OR_L")
    9065                      .dwattr $C$DW$684, DW_AT_const_value(0x01)
    9066                      .dwattr $C$DW$684, DW_AT_decl_file("C:\Users\ZXC\Documents\mcu project\ti-project\clllc_nonpowerSUITE
    9067                      .dwattr $C$DW$684, DW_AT_decl_line(0x13e)
TMS320C2000 Assembler PC v22.6.0 Mon Sep  2 11:55:45 2024

Copyright (c) 1996-2018 Texas Instruments Incorporated
clllc_hal.asm                                                        PAGE  185

    9068                      .dwattr $C$DW$684, DW_AT_decl_column(0x05)
    9069              
    9070              $C$DW$685       .dwtag  DW_TAG_enumerator
    9071                      .dwattr $C$DW$685, DW_AT_name("XBAR_EPWM_MUX00_ADCAEVT1")
    9072                      .dwattr $C$DW$685, DW_AT_const_value(0x02)
    9073                      .dwattr $C$DW$685, DW_AT_decl_file("C:\Users\ZXC\Documents\mcu project\ti-project\clllc_nonpowerSUITE
    9074                      .dwattr $C$DW$685, DW_AT_decl_line(0x13f)
    9075                      .dwattr $C$DW$685, DW_AT_decl_column(0x05)
    9076              
    9077              $C$DW$686       .dwtag  DW_TAG_enumerator
    9078                      .dwattr $C$DW$686, DW_AT_name("XBAR_EPWM_MUX00_ECAP1_OUT")
    9079                      .dwattr $C$DW$686, DW_AT_const_value(0x03)
    9080                      .dwattr $C$DW$686, DW_AT_decl_file("C:\Users\ZXC\Documents\mcu project\ti-project\clllc_nonpowerSUITE
    9081                      .dwattr $C$DW$686, DW_AT_decl_line(0x140)
    9082                      .dwattr $C$DW$686, DW_AT_decl_column(0x05)
    9083              
    9084              $C$DW$687       .dwtag  DW_TAG_enumerator
    9085                      .dwattr $C$DW$687, DW_AT_name("XBAR_EPWM_MUX01_CMPSS1_CTRIPL")
    9086                      .dwattr $C$DW$687, DW_AT_const_value(0x200)
    9087                      .dwattr $C$DW$687, DW_AT_decl_file("C:\Users\ZXC\Documents\mcu project\ti-project\clllc_nonpowerSUITE
    9088                      .dwattr $C$DW$687, DW_AT_decl_line(0x141)
    9089                      .dwattr $C$DW$687, DW_AT_decl_column(0x05)
    9090              
    9091              $C$DW$688       .dwtag  DW_TAG_enumerator
    9092                      .dwattr $C$DW$688, DW_AT_name("XBAR_EPWM_MUX01_INPUTXBAR1")
    9093                      .dwattr $C$DW$688, DW_AT_const_value(0x201)
    9094                      .dwattr $C$DW$688, DW_AT_decl_file("C:\Users\ZXC\Documents\mcu project\ti-project\clllc_nonpowerSUITE
    9095                      .dwattr $C$DW$688, DW_AT_decl_line(0x142)
    9096                      .dwattr $C$DW$688, DW_AT_decl_column(0x05)
    9097              
    9098              $C$DW$689       .dwtag  DW_TAG_enumerator
    9099                      .dwattr $C$DW$689, DW_AT_name("XBAR_EPWM_MUX01_CLB1_OUT4")
    9100                      .dwattr $C$DW$689, DW_AT_const_value(0x202)
    9101                      .dwattr $C$DW$689, DW_AT_decl_file("C:\Users\ZXC\Documents\mcu project\ti-project\clllc_nonpowerSUITE
    9102                      .dwattr $C$DW$689, DW_AT_decl_line(0x143)
    9103                      .dwattr $C$DW$689, DW_AT_decl_column(0x05)
    9104              
    9105              $C$DW$690       .dwtag  DW_TAG_enumerator
    9106                      .dwattr $C$DW$690, DW_AT_name("XBAR_EPWM_MUX01_ADCCEVT1")
    9107                      .dwattr $C$DW$690, DW_AT_const_value(0x203)
    9108                      .dwattr $C$DW$690, DW_AT_decl_file("C:\Users\ZXC\Documents\mcu project\ti-project\clllc_nonpowerSUITE
    9109                      .dwattr $C$DW$690, DW_AT_decl_line(0x144)
    9110                      .dwattr $C$DW$690, DW_AT_decl_column(0x05)
    9111              
    9112              $C$DW$691       .dwtag  DW_TAG_enumerator
    9113                      .dwattr $C$DW$691, DW_AT_name("XBAR_EPWM_MUX02_CMPSS2_CTRIPH")
    9114                      .dwattr $C$DW$691, DW_AT_const_value(0x400)
    9115                      .dwattr $C$DW$691, DW_AT_decl_file("C:\Users\ZXC\Documents\mcu project\ti-project\clllc_nonpowerSUITE
    9116                      .dwattr $C$DW$691, DW_AT_decl_line(0x145)
    9117                      .dwattr $C$DW$691, DW_AT_decl_column(0x05)
    9118              
    9119              $C$DW$692       .dwtag  DW_TAG_enumerator
    9120                      .dwattr $C$DW$692, DW_AT_name("XBAR_EPWM_MUX02_CMPSS2_CTRIPH_OR_L")
    9121                      .dwattr $C$DW$692, DW_AT_const_value(0x401)
    9122                      .dwattr $C$DW$692, DW_AT_decl_file("C:\Users\ZXC\Documents\mcu project\ti-project\clllc_nonpowerSUITE
TMS320C2000 Assembler PC v22.6.0 Mon Sep  2 11:55:45 2024

Copyright (c) 1996-2018 Texas Instruments Incorporated
clllc_hal.asm                                                        PAGE  186

    9123                      .dwattr $C$DW$692, DW_AT_decl_line(0x146)
    9124                      .dwattr $C$DW$692, DW_AT_decl_column(0x05)
    9125              
    9126              $C$DW$693       .dwtag  DW_TAG_enumerator
    9127                      .dwattr $C$DW$693, DW_AT_name("XBAR_EPWM_MUX02_ADCAEVT2")
    9128                      .dwattr $C$DW$693, DW_AT_const_value(0x402)
    9129                      .dwattr $C$DW$693, DW_AT_decl_file("C:\Users\ZXC\Documents\mcu project\ti-project\clllc_nonpowerSUITE
    9130                      .dwattr $C$DW$693, DW_AT_decl_line(0x147)
    9131                      .dwattr $C$DW$693, DW_AT_decl_column(0x05)
    9132              
    9133              $C$DW$694       .dwtag  DW_TAG_enumerator
    9134                      .dwattr $C$DW$694, DW_AT_name("XBAR_EPWM_MUX02_ECAP2_OUT")
    9135                      .dwattr $C$DW$694, DW_AT_const_value(0x403)
    9136                      .dwattr $C$DW$694, DW_AT_decl_file("C:\Users\ZXC\Documents\mcu project\ti-project\clllc_nonpowerSUITE
    9137                      .dwattr $C$DW$694, DW_AT_decl_line(0x148)
    9138                      .dwattr $C$DW$694, DW_AT_decl_column(0x05)
    9139              
    9140              $C$DW$695       .dwtag  DW_TAG_enumerator
    9141                      .dwattr $C$DW$695, DW_AT_name("XBAR_EPWM_MUX03_CMPSS2_CTRIPL")
    9142                      .dwattr $C$DW$695, DW_AT_const_value(0x600)
    9143                      .dwattr $C$DW$695, DW_AT_decl_file("C:\Users\ZXC\Documents\mcu project\ti-project\clllc_nonpowerSUITE
    9144                      .dwattr $C$DW$695, DW_AT_decl_line(0x149)
    9145                      .dwattr $C$DW$695, DW_AT_decl_column(0x05)
    9146              
    9147              $C$DW$696       .dwtag  DW_TAG_enumerator
    9148                      .dwattr $C$DW$696, DW_AT_name("XBAR_EPWM_MUX03_INPUTXBAR2")
    9149                      .dwattr $C$DW$696, DW_AT_const_value(0x601)
    9150                      .dwattr $C$DW$696, DW_AT_decl_file("C:\Users\ZXC\Documents\mcu project\ti-project\clllc_nonpowerSUITE
    9151                      .dwattr $C$DW$696, DW_AT_decl_line(0x14a)
    9152                      .dwattr $C$DW$696, DW_AT_decl_column(0x05)
    9153              
    9154              $C$DW$697       .dwtag  DW_TAG_enumerator
    9155                      .dwattr $C$DW$697, DW_AT_name("XBAR_EPWM_MUX03_CLB1_OUT5")
    9156                      .dwattr $C$DW$697, DW_AT_const_value(0x602)
    9157                      .dwattr $C$DW$697, DW_AT_decl_file("C:\Users\ZXC\Documents\mcu project\ti-project\clllc_nonpowerSUITE
    9158                      .dwattr $C$DW$697, DW_AT_decl_line(0x14b)
    9159                      .dwattr $C$DW$697, DW_AT_decl_column(0x05)
    9160              
    9161              $C$DW$698       .dwtag  DW_TAG_enumerator
    9162                      .dwattr $C$DW$698, DW_AT_name("XBAR_EPWM_MUX03_ADCCEVT2")
    9163                      .dwattr $C$DW$698, DW_AT_const_value(0x603)
    9164                      .dwattr $C$DW$698, DW_AT_decl_file("C:\Users\ZXC\Documents\mcu project\ti-project\clllc_nonpowerSUITE
    9165                      .dwattr $C$DW$698, DW_AT_decl_line(0x14c)
    9166                      .dwattr $C$DW$698, DW_AT_decl_column(0x05)
    9167              
    9168              $C$DW$699       .dwtag  DW_TAG_enumerator
    9169                      .dwattr $C$DW$699, DW_AT_name("XBAR_EPWM_MUX04_CMPSS3_CTRIPH")
    9170                      .dwattr $C$DW$699, DW_AT_const_value(0x800)
    9171                      .dwattr $C$DW$699, DW_AT_decl_file("C:\Users\ZXC\Documents\mcu project\ti-project\clllc_nonpowerSUITE
    9172                      .dwattr $C$DW$699, DW_AT_decl_line(0x14d)
    9173                      .dwattr $C$DW$699, DW_AT_decl_column(0x05)
    9174              
    9175              $C$DW$700       .dwtag  DW_TAG_enumerator
    9176                      .dwattr $C$DW$700, DW_AT_name("XBAR_EPWM_MUX04_CMPSS3_CTRIPH_OR_L")
    9177                      .dwattr $C$DW$700, DW_AT_const_value(0x801)
TMS320C2000 Assembler PC v22.6.0 Mon Sep  2 11:55:45 2024

Copyright (c) 1996-2018 Texas Instruments Incorporated
clllc_hal.asm                                                        PAGE  187

    9178                      .dwattr $C$DW$700, DW_AT_decl_file("C:\Users\ZXC\Documents\mcu project\ti-project\clllc_nonpowerSUITE
    9179                      .dwattr $C$DW$700, DW_AT_decl_line(0x14e)
    9180                      .dwattr $C$DW$700, DW_AT_decl_column(0x05)
    9181              
    9182              $C$DW$701       .dwtag  DW_TAG_enumerator
    9183                      .dwattr $C$DW$701, DW_AT_name("XBAR_EPWM_MUX04_ADCAEVT3")
    9184                      .dwattr $C$DW$701, DW_AT_const_value(0x802)
    9185                      .dwattr $C$DW$701, DW_AT_decl_file("C:\Users\ZXC\Documents\mcu project\ti-project\clllc_nonpowerSUITE
    9186                      .dwattr $C$DW$701, DW_AT_decl_line(0x14f)
    9187                      .dwattr $C$DW$701, DW_AT_decl_column(0x05)
    9188              
    9189              $C$DW$702       .dwtag  DW_TAG_enumerator
    9190                      .dwattr $C$DW$702, DW_AT_name("XBAR_EPWM_MUX04_ECAP3_OUT")
    9191                      .dwattr $C$DW$702, DW_AT_const_value(0x803)
    9192                      .dwattr $C$DW$702, DW_AT_decl_file("C:\Users\ZXC\Documents\mcu project\ti-project\clllc_nonpowerSUITE
    9193                      .dwattr $C$DW$702, DW_AT_decl_line(0x150)
    9194                      .dwattr $C$DW$702, DW_AT_decl_column(0x05)
    9195              
    9196              $C$DW$703       .dwtag  DW_TAG_enumerator
    9197                      .dwattr $C$DW$703, DW_AT_name("XBAR_EPWM_MUX05_CMPSS3_CTRIPL")
    9198                      .dwattr $C$DW$703, DW_AT_const_value(0xa00)
    9199                      .dwattr $C$DW$703, DW_AT_decl_file("C:\Users\ZXC\Documents\mcu project\ti-project\clllc_nonpowerSUITE
    9200                      .dwattr $C$DW$703, DW_AT_decl_line(0x151)
    9201                      .dwattr $C$DW$703, DW_AT_decl_column(0x05)
    9202              
    9203              $C$DW$704       .dwtag  DW_TAG_enumerator
    9204                      .dwattr $C$DW$704, DW_AT_name("XBAR_EPWM_MUX05_INPUTXBAR3")
    9205                      .dwattr $C$DW$704, DW_AT_const_value(0xa01)
    9206                      .dwattr $C$DW$704, DW_AT_decl_file("C:\Users\ZXC\Documents\mcu project\ti-project\clllc_nonpowerSUITE
    9207                      .dwattr $C$DW$704, DW_AT_decl_line(0x152)
    9208                      .dwattr $C$DW$704, DW_AT_decl_column(0x05)
    9209              
    9210              $C$DW$705       .dwtag  DW_TAG_enumerator
    9211                      .dwattr $C$DW$705, DW_AT_name("XBAR_EPWM_MUX05_CLB2_OUT4")
    9212                      .dwattr $C$DW$705, DW_AT_const_value(0xa02)
    9213                      .dwattr $C$DW$705, DW_AT_decl_file("C:\Users\ZXC\Documents\mcu project\ti-project\clllc_nonpowerSUITE
    9214                      .dwattr $C$DW$705, DW_AT_decl_line(0x153)
    9215                      .dwattr $C$DW$705, DW_AT_decl_column(0x05)
    9216              
    9217              $C$DW$706       .dwtag  DW_TAG_enumerator
    9218                      .dwattr $C$DW$706, DW_AT_name("XBAR_EPWM_MUX05_ADCCEVT3")
    9219                      .dwattr $C$DW$706, DW_AT_const_value(0xa03)
    9220                      .dwattr $C$DW$706, DW_AT_decl_file("C:\Users\ZXC\Documents\mcu project\ti-project\clllc_nonpowerSUITE
    9221                      .dwattr $C$DW$706, DW_AT_decl_line(0x154)
    9222                      .dwattr $C$DW$706, DW_AT_decl_column(0x05)
    9223              
    9224              $C$DW$707       .dwtag  DW_TAG_enumerator
    9225                      .dwattr $C$DW$707, DW_AT_name("XBAR_EPWM_MUX06_CMPSS4_CTRIPH")
    9226                      .dwattr $C$DW$707, DW_AT_const_value(0xc00)
    9227                      .dwattr $C$DW$707, DW_AT_decl_file("C:\Users\ZXC\Documents\mcu project\ti-project\clllc_nonpowerSUITE
    9228                      .dwattr $C$DW$707, DW_AT_decl_line(0x155)
    9229                      .dwattr $C$DW$707, DW_AT_decl_column(0x05)
    9230              
    9231              $C$DW$708       .dwtag  DW_TAG_enumerator
    9232                      .dwattr $C$DW$708, DW_AT_name("XBAR_EPWM_MUX06_CMPSS4_CTRIPH_OR_L")
TMS320C2000 Assembler PC v22.6.0 Mon Sep  2 11:55:45 2024

Copyright (c) 1996-2018 Texas Instruments Incorporated
clllc_hal.asm                                                        PAGE  188

    9233                      .dwattr $C$DW$708, DW_AT_const_value(0xc01)
    9234                      .dwattr $C$DW$708, DW_AT_decl_file("C:\Users\ZXC\Documents\mcu project\ti-project\clllc_nonpowerSUITE
    9235                      .dwattr $C$DW$708, DW_AT_decl_line(0x156)
    9236                      .dwattr $C$DW$708, DW_AT_decl_column(0x05)
    9237              
    9238              $C$DW$709       .dwtag  DW_TAG_enumerator
    9239                      .dwattr $C$DW$709, DW_AT_name("XBAR_EPWM_MUX06_ADCAEVT4")
    9240                      .dwattr $C$DW$709, DW_AT_const_value(0xc02)
    9241                      .dwattr $C$DW$709, DW_AT_decl_file("C:\Users\ZXC\Documents\mcu project\ti-project\clllc_nonpowerSUITE
    9242                      .dwattr $C$DW$709, DW_AT_decl_line(0x157)
    9243                      .dwattr $C$DW$709, DW_AT_decl_column(0x05)
    9244              
    9245              $C$DW$710       .dwtag  DW_TAG_enumerator
    9246                      .dwattr $C$DW$710, DW_AT_name("XBAR_EPWM_MUX06_ECAP4_OUT")
    9247                      .dwattr $C$DW$710, DW_AT_const_value(0xc03)
    9248                      .dwattr $C$DW$710, DW_AT_decl_file("C:\Users\ZXC\Documents\mcu project\ti-project\clllc_nonpowerSUITE
    9249                      .dwattr $C$DW$710, DW_AT_decl_line(0x158)
    9250                      .dwattr $C$DW$710, DW_AT_decl_column(0x05)
    9251              
    9252              $C$DW$711       .dwtag  DW_TAG_enumerator
    9253                      .dwattr $C$DW$711, DW_AT_name("XBAR_EPWM_MUX07_CMPSS4_CTRIPL")
    9254                      .dwattr $C$DW$711, DW_AT_const_value(0xe00)
    9255                      .dwattr $C$DW$711, DW_AT_decl_file("C:\Users\ZXC\Documents\mcu project\ti-project\clllc_nonpowerSUITE
    9256                      .dwattr $C$DW$711, DW_AT_decl_line(0x159)
    9257                      .dwattr $C$DW$711, DW_AT_decl_column(0x05)
    9258              
    9259              $C$DW$712       .dwtag  DW_TAG_enumerator
    9260                      .dwattr $C$DW$712, DW_AT_name("XBAR_EPWM_MUX07_INPUTXBAR4")
    9261                      .dwattr $C$DW$712, DW_AT_const_value(0xe01)
    9262                      .dwattr $C$DW$712, DW_AT_decl_file("C:\Users\ZXC\Documents\mcu project\ti-project\clllc_nonpowerSUITE
    9263                      .dwattr $C$DW$712, DW_AT_decl_line(0x15a)
    9264                      .dwattr $C$DW$712, DW_AT_decl_column(0x05)
    9265              
    9266              $C$DW$713       .dwtag  DW_TAG_enumerator
    9267                      .dwattr $C$DW$713, DW_AT_name("XBAR_EPWM_MUX07_CLB2_OUT5")
    9268                      .dwattr $C$DW$713, DW_AT_const_value(0xe02)
    9269                      .dwattr $C$DW$713, DW_AT_decl_file("C:\Users\ZXC\Documents\mcu project\ti-project\clllc_nonpowerSUITE
    9270                      .dwattr $C$DW$713, DW_AT_decl_line(0x15b)
    9271                      .dwattr $C$DW$713, DW_AT_decl_column(0x05)
    9272              
    9273              $C$DW$714       .dwtag  DW_TAG_enumerator
    9274                      .dwattr $C$DW$714, DW_AT_name("XBAR_EPWM_MUX07_ADCCEVT4")
    9275                      .dwattr $C$DW$714, DW_AT_const_value(0xe03)
    9276                      .dwattr $C$DW$714, DW_AT_decl_file("C:\Users\ZXC\Documents\mcu project\ti-project\clllc_nonpowerSUITE
    9277                      .dwattr $C$DW$714, DW_AT_decl_line(0x15c)
    9278                      .dwattr $C$DW$714, DW_AT_decl_column(0x05)
    9279              
    9280              $C$DW$715       .dwtag  DW_TAG_enumerator
    9281                      .dwattr $C$DW$715, DW_AT_name("XBAR_EPWM_MUX08_CMPSS5_CTRIPH")
    9282                      .dwattr $C$DW$715, DW_AT_const_value(0x1000)
    9283                      .dwattr $C$DW$715, DW_AT_decl_file("C:\Users\ZXC\Documents\mcu project\ti-project\clllc_nonpowerSUITE
    9284                      .dwattr $C$DW$715, DW_AT_decl_line(0x15d)
    9285                      .dwattr $C$DW$715, DW_AT_decl_column(0x05)
    9286              
    9287              $C$DW$716       .dwtag  DW_TAG_enumerator
TMS320C2000 Assembler PC v22.6.0 Mon Sep  2 11:55:45 2024

Copyright (c) 1996-2018 Texas Instruments Incorporated
clllc_hal.asm                                                        PAGE  189

    9288                      .dwattr $C$DW$716, DW_AT_name("XBAR_EPWM_MUX08_CMPSS5_CTRIPH_OR_L")
    9289                      .dwattr $C$DW$716, DW_AT_const_value(0x1001)
    9290                      .dwattr $C$DW$716, DW_AT_decl_file("C:\Users\ZXC\Documents\mcu project\ti-project\clllc_nonpowerSUITE
    9291                      .dwattr $C$DW$716, DW_AT_decl_line(0x15e)
    9292                      .dwattr $C$DW$716, DW_AT_decl_column(0x05)
    9293              
    9294              $C$DW$717       .dwtag  DW_TAG_enumerator
    9295                      .dwattr $C$DW$717, DW_AT_name("XBAR_EPWM_MUX08_ADCBEVT1")
    9296                      .dwattr $C$DW$717, DW_AT_const_value(0x1002)
    9297                      .dwattr $C$DW$717, DW_AT_decl_file("C:\Users\ZXC\Documents\mcu project\ti-project\clllc_nonpowerSUITE
    9298                      .dwattr $C$DW$717, DW_AT_decl_line(0x15f)
    9299                      .dwattr $C$DW$717, DW_AT_decl_column(0x05)
    9300              
    9301              $C$DW$718       .dwtag  DW_TAG_enumerator
    9302                      .dwattr $C$DW$718, DW_AT_name("XBAR_EPWM_MUX08_ECAP5_OUT")
    9303                      .dwattr $C$DW$718, DW_AT_const_value(0x1003)
    9304                      .dwattr $C$DW$718, DW_AT_decl_file("C:\Users\ZXC\Documents\mcu project\ti-project\clllc_nonpowerSUITE
    9305                      .dwattr $C$DW$718, DW_AT_decl_line(0x160)
    9306                      .dwattr $C$DW$718, DW_AT_decl_column(0x05)
    9307              
    9308              $C$DW$719       .dwtag  DW_TAG_enumerator
    9309                      .dwattr $C$DW$719, DW_AT_name("XBAR_EPWM_MUX09_CMPSS5_CTRIPL")
    9310                      .dwattr $C$DW$719, DW_AT_const_value(0x1200)
    9311                      .dwattr $C$DW$719, DW_AT_decl_file("C:\Users\ZXC\Documents\mcu project\ti-project\clllc_nonpowerSUITE
    9312                      .dwattr $C$DW$719, DW_AT_decl_line(0x161)
    9313                      .dwattr $C$DW$719, DW_AT_decl_column(0x05)
    9314              
    9315              $C$DW$720       .dwtag  DW_TAG_enumerator
    9316                      .dwattr $C$DW$720, DW_AT_name("XBAR_EPWM_MUX09_INPUTXBAR5")
    9317                      .dwattr $C$DW$720, DW_AT_const_value(0x1201)
    9318                      .dwattr $C$DW$720, DW_AT_decl_file("C:\Users\ZXC\Documents\mcu project\ti-project\clllc_nonpowerSUITE
    9319                      .dwattr $C$DW$720, DW_AT_decl_line(0x162)
    9320                      .dwattr $C$DW$720, DW_AT_decl_column(0x05)
    9321              
    9322              $C$DW$721       .dwtag  DW_TAG_enumerator
    9323                      .dwattr $C$DW$721, DW_AT_name("XBAR_EPWM_MUX09_CLB3_OUT4")
    9324                      .dwattr $C$DW$721, DW_AT_const_value(0x1202)
    9325                      .dwattr $C$DW$721, DW_AT_decl_file("C:\Users\ZXC\Documents\mcu project\ti-project\clllc_nonpowerSUITE
    9326                      .dwattr $C$DW$721, DW_AT_decl_line(0x163)
    9327                      .dwattr $C$DW$721, DW_AT_decl_column(0x05)
    9328              
    9329              $C$DW$722       .dwtag  DW_TAG_enumerator
    9330                      .dwattr $C$DW$722, DW_AT_name("XBAR_EPWM_MUX10_CMPSS6_CTRIPH")
    9331                      .dwattr $C$DW$722, DW_AT_const_value(0x1400)
    9332                      .dwattr $C$DW$722, DW_AT_decl_file("C:\Users\ZXC\Documents\mcu project\ti-project\clllc_nonpowerSUITE
    9333                      .dwattr $C$DW$722, DW_AT_decl_line(0x164)
    9334                      .dwattr $C$DW$722, DW_AT_decl_column(0x05)
    9335              
    9336              $C$DW$723       .dwtag  DW_TAG_enumerator
    9337                      .dwattr $C$DW$723, DW_AT_name("XBAR_EPWM_MUX10_CMPSS6_CTRIPH_OR_L")
    9338                      .dwattr $C$DW$723, DW_AT_const_value(0x1401)
    9339                      .dwattr $C$DW$723, DW_AT_decl_file("C:\Users\ZXC\Documents\mcu project\ti-project\clllc_nonpowerSUITE
    9340                      .dwattr $C$DW$723, DW_AT_decl_line(0x165)
    9341                      .dwattr $C$DW$723, DW_AT_decl_column(0x05)
    9342              
TMS320C2000 Assembler PC v22.6.0 Mon Sep  2 11:55:45 2024

Copyright (c) 1996-2018 Texas Instruments Incorporated
clllc_hal.asm                                                        PAGE  190

    9343              $C$DW$724       .dwtag  DW_TAG_enumerator
    9344                      .dwattr $C$DW$724, DW_AT_name("XBAR_EPWM_MUX10_ADCBEVT2")
    9345                      .dwattr $C$DW$724, DW_AT_const_value(0x1402)
    9346                      .dwattr $C$DW$724, DW_AT_decl_file("C:\Users\ZXC\Documents\mcu project\ti-project\clllc_nonpowerSUITE
    9347                      .dwattr $C$DW$724, DW_AT_decl_line(0x166)
    9348                      .dwattr $C$DW$724, DW_AT_decl_column(0x05)
    9349              
    9350              $C$DW$725       .dwtag  DW_TAG_enumerator
    9351                      .dwattr $C$DW$725, DW_AT_name("XBAR_EPWM_MUX10_ECAP6_OUT")
    9352                      .dwattr $C$DW$725, DW_AT_const_value(0x1403)
    9353                      .dwattr $C$DW$725, DW_AT_decl_file("C:\Users\ZXC\Documents\mcu project\ti-project\clllc_nonpowerSUITE
    9354                      .dwattr $C$DW$725, DW_AT_decl_line(0x167)
    9355                      .dwattr $C$DW$725, DW_AT_decl_column(0x05)
    9356              
    9357              $C$DW$726       .dwtag  DW_TAG_enumerator
    9358                      .dwattr $C$DW$726, DW_AT_name("XBAR_EPWM_MUX11_CMPSS6_CTRIPL")
    9359                      .dwattr $C$DW$726, DW_AT_const_value(0x1600)
    9360                      .dwattr $C$DW$726, DW_AT_decl_file("C:\Users\ZXC\Documents\mcu project\ti-project\clllc_nonpowerSUITE
    9361                      .dwattr $C$DW$726, DW_AT_decl_line(0x168)
    9362                      .dwattr $C$DW$726, DW_AT_decl_column(0x05)
    9363              
    9364              $C$DW$727       .dwtag  DW_TAG_enumerator
    9365                      .dwattr $C$DW$727, DW_AT_name("XBAR_EPWM_MUX11_INPUTXBAR6")
    9366                      .dwattr $C$DW$727, DW_AT_const_value(0x1601)
    9367                      .dwattr $C$DW$727, DW_AT_decl_file("C:\Users\ZXC\Documents\mcu project\ti-project\clllc_nonpowerSUITE
    9368                      .dwattr $C$DW$727, DW_AT_decl_line(0x169)
    9369                      .dwattr $C$DW$727, DW_AT_decl_column(0x05)
    9370              
    9371              $C$DW$728       .dwtag  DW_TAG_enumerator
    9372                      .dwattr $C$DW$728, DW_AT_name("XBAR_EPWM_MUX11_CLB3_OUT5")
    9373                      .dwattr $C$DW$728, DW_AT_const_value(0x1602)
    9374                      .dwattr $C$DW$728, DW_AT_decl_file("C:\Users\ZXC\Documents\mcu project\ti-project\clllc_nonpowerSUITE
    9375                      .dwattr $C$DW$728, DW_AT_decl_line(0x16a)
    9376                      .dwattr $C$DW$728, DW_AT_decl_column(0x05)
    9377              
    9378              $C$DW$729       .dwtag  DW_TAG_enumerator
    9379                      .dwattr $C$DW$729, DW_AT_name("XBAR_EPWM_MUX12_CMPSS7_CTRIPH")
    9380                      .dwattr $C$DW$729, DW_AT_const_value(0x1800)
    9381                      .dwattr $C$DW$729, DW_AT_decl_file("C:\Users\ZXC\Documents\mcu project\ti-project\clllc_nonpowerSUITE
    9382                      .dwattr $C$DW$729, DW_AT_decl_line(0x16b)
    9383                      .dwattr $C$DW$729, DW_AT_decl_column(0x05)
    9384              
    9385              $C$DW$730       .dwtag  DW_TAG_enumerator
    9386                      .dwattr $C$DW$730, DW_AT_name("XBAR_EPWM_MUX12_CMPSS7_CTRIPH_OR_L")
    9387                      .dwattr $C$DW$730, DW_AT_const_value(0x1801)
    9388                      .dwattr $C$DW$730, DW_AT_decl_file("C:\Users\ZXC\Documents\mcu project\ti-project\clllc_nonpowerSUITE
    9389                      .dwattr $C$DW$730, DW_AT_decl_line(0x16c)
    9390                      .dwattr $C$DW$730, DW_AT_decl_column(0x05)
    9391              
    9392              $C$DW$731       .dwtag  DW_TAG_enumerator
    9393                      .dwattr $C$DW$731, DW_AT_name("XBAR_EPWM_MUX12_ADCBEVT3")
    9394                      .dwattr $C$DW$731, DW_AT_const_value(0x1802)
    9395                      .dwattr $C$DW$731, DW_AT_decl_file("C:\Users\ZXC\Documents\mcu project\ti-project\clllc_nonpowerSUITE
    9396                      .dwattr $C$DW$731, DW_AT_decl_line(0x16d)
    9397                      .dwattr $C$DW$731, DW_AT_decl_column(0x05)
TMS320C2000 Assembler PC v22.6.0 Mon Sep  2 11:55:45 2024

Copyright (c) 1996-2018 Texas Instruments Incorporated
clllc_hal.asm                                                        PAGE  191

    9398              
    9399              $C$DW$732       .dwtag  DW_TAG_enumerator
    9400                      .dwattr $C$DW$732, DW_AT_name("XBAR_EPWM_MUX12_ECAP7_OUT")
    9401                      .dwattr $C$DW$732, DW_AT_const_value(0x1803)
    9402                      .dwattr $C$DW$732, DW_AT_decl_file("C:\Users\ZXC\Documents\mcu project\ti-project\clllc_nonpowerSUITE
    9403                      .dwattr $C$DW$732, DW_AT_decl_line(0x16e)
    9404                      .dwattr $C$DW$732, DW_AT_decl_column(0x05)
    9405              
    9406              $C$DW$733       .dwtag  DW_TAG_enumerator
    9407                      .dwattr $C$DW$733, DW_AT_name("XBAR_EPWM_MUX13_CMPSS7_CTRIPL")
    9408                      .dwattr $C$DW$733, DW_AT_const_value(0x1a00)
    9409                      .dwattr $C$DW$733, DW_AT_decl_file("C:\Users\ZXC\Documents\mcu project\ti-project\clllc_nonpowerSUITE
    9410                      .dwattr $C$DW$733, DW_AT_decl_line(0x16f)
    9411                      .dwattr $C$DW$733, DW_AT_decl_column(0x05)
    9412              
    9413              $C$DW$734       .dwtag  DW_TAG_enumerator
    9414                      .dwattr $C$DW$734, DW_AT_name("XBAR_EPWM_MUX13_ADCSOCA")
    9415                      .dwattr $C$DW$734, DW_AT_const_value(0x1a01)
    9416                      .dwattr $C$DW$734, DW_AT_decl_file("C:\Users\ZXC\Documents\mcu project\ti-project\clllc_nonpowerSUITE
    9417                      .dwattr $C$DW$734, DW_AT_decl_line(0x170)
    9418                      .dwattr $C$DW$734, DW_AT_decl_column(0x05)
    9419              
    9420              $C$DW$735       .dwtag  DW_TAG_enumerator
    9421                      .dwattr $C$DW$735, DW_AT_name("XBAR_EPWM_MUX13_CLB4_OUT4")
    9422                      .dwattr $C$DW$735, DW_AT_const_value(0x1a02)
    9423                      .dwattr $C$DW$735, DW_AT_decl_file("C:\Users\ZXC\Documents\mcu project\ti-project\clllc_nonpowerSUITE
    9424                      .dwattr $C$DW$735, DW_AT_decl_line(0x171)
    9425                      .dwattr $C$DW$735, DW_AT_decl_column(0x05)
    9426              
    9427              $C$DW$736       .dwtag  DW_TAG_enumerator
    9428                      .dwattr $C$DW$736, DW_AT_name("XBAR_EPWM_MUX14_ADCBEVT4")
    9429                      .dwattr $C$DW$736, DW_AT_const_value(0x1c02)
    9430                      .dwattr $C$DW$736, DW_AT_decl_file("C:\Users\ZXC\Documents\mcu project\ti-project\clllc_nonpowerSUITE
    9431                      .dwattr $C$DW$736, DW_AT_decl_line(0x172)
    9432                      .dwattr $C$DW$736, DW_AT_decl_column(0x05)
    9433              
    9434              $C$DW$737       .dwtag  DW_TAG_enumerator
    9435                      .dwattr $C$DW$737, DW_AT_name("XBAR_EPWM_MUX14_EXTSYNCOUT")
    9436                      .dwattr $C$DW$737, DW_AT_const_value(0x1c03)
    9437                      .dwattr $C$DW$737, DW_AT_decl_file("C:\Users\ZXC\Documents\mcu project\ti-project\clllc_nonpowerSUITE
    9438                      .dwattr $C$DW$737, DW_AT_decl_line(0x173)
    9439                      .dwattr $C$DW$737, DW_AT_decl_column(0x05)
    9440              
    9441              $C$DW$738       .dwtag  DW_TAG_enumerator
    9442                      .dwattr $C$DW$738, DW_AT_name("XBAR_EPWM_MUX15_ADCSOCB")
    9443                      .dwattr $C$DW$738, DW_AT_const_value(0x1e01)
    9444                      .dwattr $C$DW$738, DW_AT_decl_file("C:\Users\ZXC\Documents\mcu project\ti-project\clllc_nonpowerSUITE
    9445                      .dwattr $C$DW$738, DW_AT_decl_line(0x174)
    9446                      .dwattr $C$DW$738, DW_AT_decl_column(0x05)
    9447              
    9448              $C$DW$739       .dwtag  DW_TAG_enumerator
    9449                      .dwattr $C$DW$739, DW_AT_name("XBAR_EPWM_MUX15_CLB4_OUT5")
    9450                      .dwattr $C$DW$739, DW_AT_const_value(0x1e02)
    9451                      .dwattr $C$DW$739, DW_AT_decl_file("C:\Users\ZXC\Documents\mcu project\ti-project\clllc_nonpowerSUITE
    9452                      .dwattr $C$DW$739, DW_AT_decl_line(0x175)
TMS320C2000 Assembler PC v22.6.0 Mon Sep  2 11:55:45 2024

Copyright (c) 1996-2018 Texas Instruments Incorporated
clllc_hal.asm                                                        PAGE  192

    9453                      .dwattr $C$DW$739, DW_AT_decl_column(0x05)
    9454              
    9455              $C$DW$740       .dwtag  DW_TAG_enumerator
    9456                      .dwattr $C$DW$740, DW_AT_name("XBAR_EPWM_MUX16_SD1FLT1_COMPH")
    9457                      .dwattr $C$DW$740, DW_AT_const_value(0x2000)
    9458                      .dwattr $C$DW$740, DW_AT_decl_file("C:\Users\ZXC\Documents\mcu project\ti-project\clllc_nonpowerSUITE
    9459                      .dwattr $C$DW$740, DW_AT_decl_line(0x176)
    9460                      .dwattr $C$DW$740, DW_AT_decl_column(0x05)
    9461              
    9462              $C$DW$741       .dwtag  DW_TAG_enumerator
    9463                      .dwattr $C$DW$741, DW_AT_name("XBAR_EPWM_MUX16_SD1FLT1_COMPH_OR_COMPL")
    9464                      .dwattr $C$DW$741, DW_AT_const_value(0x2001)
    9465                      .dwattr $C$DW$741, DW_AT_decl_file("C:\Users\ZXC\Documents\mcu project\ti-project\clllc_nonpowerSUITE
    9466                      .dwattr $C$DW$741, DW_AT_decl_line(0x177)
    9467                      .dwattr $C$DW$741, DW_AT_decl_column(0x05)
    9468              
    9469              $C$DW$742       .dwtag  DW_TAG_enumerator
    9470                      .dwattr $C$DW$742, DW_AT_name("XBAR_EPWM_MUX17_SD1FLT1_COMPL")
    9471                      .dwattr $C$DW$742, DW_AT_const_value(0x2200)
    9472                      .dwattr $C$DW$742, DW_AT_decl_file("C:\Users\ZXC\Documents\mcu project\ti-project\clllc_nonpowerSUITE
    9473                      .dwattr $C$DW$742, DW_AT_decl_line(0x178)
    9474                      .dwattr $C$DW$742, DW_AT_decl_column(0x05)
    9475              
    9476              $C$DW$743       .dwtag  DW_TAG_enumerator
    9477                      .dwattr $C$DW$743, DW_AT_name("XBAR_EPWM_MUX17_INPUTXBAR7")
    9478                      .dwattr $C$DW$743, DW_AT_const_value(0x2201)
    9479                      .dwattr $C$DW$743, DW_AT_decl_file("C:\Users\ZXC\Documents\mcu project\ti-project\clllc_nonpowerSUITE
    9480                      .dwattr $C$DW$743, DW_AT_decl_line(0x179)
    9481                      .dwattr $C$DW$743, DW_AT_decl_column(0x05)
    9482              
    9483              $C$DW$744       .dwtag  DW_TAG_enumerator
    9484                      .dwattr $C$DW$744, DW_AT_name("XBAR_EPWM_MUX17_CLAHALT")
    9485                      .dwattr $C$DW$744, DW_AT_const_value(0x2203)
    9486                      .dwattr $C$DW$744, DW_AT_decl_file("C:\Users\ZXC\Documents\mcu project\ti-project\clllc_nonpowerSUITE
    9487                      .dwattr $C$DW$744, DW_AT_decl_line(0x17a)
    9488                      .dwattr $C$DW$744, DW_AT_decl_column(0x05)
    9489              
    9490              $C$DW$745       .dwtag  DW_TAG_enumerator
    9491                      .dwattr $C$DW$745, DW_AT_name("XBAR_EPWM_MUX18_SD1FLT2_COMPH")
    9492                      .dwattr $C$DW$745, DW_AT_const_value(0x2400)
    9493                      .dwattr $C$DW$745, DW_AT_decl_file("C:\Users\ZXC\Documents\mcu project\ti-project\clllc_nonpowerSUITE
    9494                      .dwattr $C$DW$745, DW_AT_decl_line(0x17b)
    9495                      .dwattr $C$DW$745, DW_AT_decl_column(0x05)
    9496              
    9497              $C$DW$746       .dwtag  DW_TAG_enumerator
    9498                      .dwattr $C$DW$746, DW_AT_name("XBAR_EPWM_MUX18_SD1FLT2_COMPH_OR_COMPL")
    9499                      .dwattr $C$DW$746, DW_AT_const_value(0x2401)
    9500                      .dwattr $C$DW$746, DW_AT_decl_file("C:\Users\ZXC\Documents\mcu project\ti-project\clllc_nonpowerSUITE
    9501                      .dwattr $C$DW$746, DW_AT_decl_line(0x17c)
    9502                      .dwattr $C$DW$746, DW_AT_decl_column(0x05)
    9503              
    9504              $C$DW$747       .dwtag  DW_TAG_enumerator
    9505                      .dwattr $C$DW$747, DW_AT_name("XBAR_EPWM_MUX19_SD1FLT2_COMPL")
    9506                      .dwattr $C$DW$747, DW_AT_const_value(0x2600)
    9507                      .dwattr $C$DW$747, DW_AT_decl_file("C:\Users\ZXC\Documents\mcu project\ti-project\clllc_nonpowerSUITE
TMS320C2000 Assembler PC v22.6.0 Mon Sep  2 11:55:45 2024

Copyright (c) 1996-2018 Texas Instruments Incorporated
clllc_hal.asm                                                        PAGE  193

    9508                      .dwattr $C$DW$747, DW_AT_decl_line(0x17d)
    9509                      .dwattr $C$DW$747, DW_AT_decl_column(0x05)
    9510              
    9511              $C$DW$748       .dwtag  DW_TAG_enumerator
    9512                      .dwattr $C$DW$748, DW_AT_name("XBAR_EPWM_MUX19_INPUTXBAR8")
    9513                      .dwattr $C$DW$748, DW_AT_const_value(0x2601)
    9514                      .dwattr $C$DW$748, DW_AT_decl_file("C:\Users\ZXC\Documents\mcu project\ti-project\clllc_nonpowerSUITE
    9515                      .dwattr $C$DW$748, DW_AT_decl_line(0x17e)
    9516                      .dwattr $C$DW$748, DW_AT_decl_column(0x05)
    9517              
    9518              $C$DW$749       .dwtag  DW_TAG_enumerator
    9519                      .dwattr $C$DW$749, DW_AT_name("XBAR_EPWM_MUX20_SD1FLT3_COMPH")
    9520                      .dwattr $C$DW$749, DW_AT_const_value(0x2800)
    9521                      .dwattr $C$DW$749, DW_AT_decl_file("C:\Users\ZXC\Documents\mcu project\ti-project\clllc_nonpowerSUITE
    9522                      .dwattr $C$DW$749, DW_AT_decl_line(0x17f)
    9523                      .dwattr $C$DW$749, DW_AT_decl_column(0x05)
    9524              
    9525              $C$DW$750       .dwtag  DW_TAG_enumerator
    9526                      .dwattr $C$DW$750, DW_AT_name("XBAR_EPWM_MUX20_SD1FLT3_COMPH_OR_COMPL")
    9527                      .dwattr $C$DW$750, DW_AT_const_value(0x2801)
    9528                      .dwattr $C$DW$750, DW_AT_decl_file("C:\Users\ZXC\Documents\mcu project\ti-project\clllc_nonpowerSUITE
    9529                      .dwattr $C$DW$750, DW_AT_decl_line(0x180)
    9530                      .dwattr $C$DW$750, DW_AT_decl_column(0x05)
    9531              
    9532              $C$DW$751       .dwtag  DW_TAG_enumerator
    9533                      .dwattr $C$DW$751, DW_AT_name("XBAR_EPWM_MUX21_SD1FLT3_COMPL")
    9534                      .dwattr $C$DW$751, DW_AT_const_value(0x2a00)
    9535                      .dwattr $C$DW$751, DW_AT_decl_file("C:\Users\ZXC\Documents\mcu project\ti-project\clllc_nonpowerSUITE
    9536                      .dwattr $C$DW$751, DW_AT_decl_line(0x181)
    9537                      .dwattr $C$DW$751, DW_AT_decl_column(0x05)
    9538              
    9539              $C$DW$752       .dwtag  DW_TAG_enumerator
    9540                      .dwattr $C$DW$752, DW_AT_name("XBAR_EPWM_MUX21_INPUTXBAR9")
    9541                      .dwattr $C$DW$752, DW_AT_const_value(0x2a01)
    9542                      .dwattr $C$DW$752, DW_AT_decl_file("C:\Users\ZXC\Documents\mcu project\ti-project\clllc_nonpowerSUITE
    9543                      .dwattr $C$DW$752, DW_AT_decl_line(0x182)
    9544                      .dwattr $C$DW$752, DW_AT_decl_column(0x05)
    9545              
    9546              $C$DW$753       .dwtag  DW_TAG_enumerator
    9547                      .dwattr $C$DW$753, DW_AT_name("XBAR_EPWM_MUX22_SD1FLT4_COMPH")
    9548                      .dwattr $C$DW$753, DW_AT_const_value(0x2c00)
    9549                      .dwattr $C$DW$753, DW_AT_decl_file("C:\Users\ZXC\Documents\mcu project\ti-project\clllc_nonpowerSUITE
    9550                      .dwattr $C$DW$753, DW_AT_decl_line(0x183)
    9551                      .dwattr $C$DW$753, DW_AT_decl_column(0x05)
    9552              
    9553              $C$DW$754       .dwtag  DW_TAG_enumerator
    9554                      .dwattr $C$DW$754, DW_AT_name("XBAR_EPWM_MUX22_SD1FLT4_COMPH_OR_COMPL")
    9555                      .dwattr $C$DW$754, DW_AT_const_value(0x2c01)
    9556                      .dwattr $C$DW$754, DW_AT_decl_file("C:\Users\ZXC\Documents\mcu project\ti-project\clllc_nonpowerSUITE
    9557                      .dwattr $C$DW$754, DW_AT_decl_line(0x184)
    9558                      .dwattr $C$DW$754, DW_AT_decl_column(0x05)
    9559              
    9560              $C$DW$755       .dwtag  DW_TAG_enumerator
    9561                      .dwattr $C$DW$755, DW_AT_name("XBAR_EPWM_MUX23_SD1FLT4_COMPL")
    9562                      .dwattr $C$DW$755, DW_AT_const_value(0x2e00)
TMS320C2000 Assembler PC v22.6.0 Mon Sep  2 11:55:45 2024

Copyright (c) 1996-2018 Texas Instruments Incorporated
clllc_hal.asm                                                        PAGE  194

    9563                      .dwattr $C$DW$755, DW_AT_decl_file("C:\Users\ZXC\Documents\mcu project\ti-project\clllc_nonpowerSUITE
    9564                      .dwattr $C$DW$755, DW_AT_decl_line(0x185)
    9565                      .dwattr $C$DW$755, DW_AT_decl_column(0x05)
    9566              
    9567              $C$DW$756       .dwtag  DW_TAG_enumerator
    9568                      .dwattr $C$DW$756, DW_AT_name("XBAR_EPWM_MUX23_INPUTXBAR10")
    9569                      .dwattr $C$DW$756, DW_AT_const_value(0x2e01)
    9570                      .dwattr $C$DW$756, DW_AT_decl_file("C:\Users\ZXC\Documents\mcu project\ti-project\clllc_nonpowerSUITE
    9571                      .dwattr $C$DW$756, DW_AT_decl_line(0x186)
    9572                      .dwattr $C$DW$756, DW_AT_decl_column(0x05)
    9573              
    9574              $C$DW$757       .dwtag  DW_TAG_enumerator
    9575                      .dwattr $C$DW$757, DW_AT_name("XBAR_EPWM_MUX25_INPUTXBAR11")
    9576                      .dwattr $C$DW$757, DW_AT_const_value(0x3201)
    9577                      .dwattr $C$DW$757, DW_AT_decl_file("C:\Users\ZXC\Documents\mcu project\ti-project\clllc_nonpowerSUITE
    9578                      .dwattr $C$DW$757, DW_AT_decl_line(0x187)
    9579                      .dwattr $C$DW$757, DW_AT_decl_column(0x05)
    9580              
    9581              $C$DW$758       .dwtag  DW_TAG_enumerator
    9582                      .dwattr $C$DW$758, DW_AT_name("XBAR_EPWM_MUX27_INPUTXBAR12")
    9583                      .dwattr $C$DW$758, DW_AT_const_value(0x3601)
    9584                      .dwattr $C$DW$758, DW_AT_decl_file("C:\Users\ZXC\Documents\mcu project\ti-project\clllc_nonpowerSUITE
    9585                      .dwattr $C$DW$758, DW_AT_decl_line(0x188)
    9586                      .dwattr $C$DW$758, DW_AT_decl_column(0x05)
    9587              
    9588              $C$DW$759       .dwtag  DW_TAG_enumerator
    9589                      .dwattr $C$DW$759, DW_AT_name("XBAR_EPWM_MUX29_INPUTXBAR13")
    9590                      .dwattr $C$DW$759, DW_AT_const_value(0x3a01)
    9591                      .dwattr $C$DW$759, DW_AT_decl_file("C:\Users\ZXC\Documents\mcu project\ti-project\clllc_nonpowerSUITE
    9592                      .dwattr $C$DW$759, DW_AT_decl_line(0x189)
    9593                      .dwattr $C$DW$759, DW_AT_decl_column(0x05)
    9594              
    9595              $C$DW$760       .dwtag  DW_TAG_enumerator
    9596                      .dwattr $C$DW$760, DW_AT_name("XBAR_EPWM_MUX31_INPUTXBAR14")
    9597                      .dwattr $C$DW$760, DW_AT_const_value(0x3e01)
    9598                      .dwattr $C$DW$760, DW_AT_decl_file("C:\Users\ZXC\Documents\mcu project\ti-project\clllc_nonpowerSUITE
    9599                      .dwattr $C$DW$760, DW_AT_decl_line(0x18a)
    9600                      .dwattr $C$DW$760, DW_AT_decl_column(0x05)
    9601              
    9602                      .dwattr $C$DW$T$121, DW_AT_decl_file("C:\Users\ZXC\Documents\mcu project\ti-project\clllc_nonpowerSUI
    9603                      .dwattr $C$DW$T$121, DW_AT_decl_line(0x13c)
    9604                      .dwattr $C$DW$T$121, DW_AT_decl_column(0x01)
    9605                      .dwendtag $C$DW$T$121
    9606              
    9607                      .dwendtag $C$DW$TU$121
    9608              
    9609              
    9610              $C$DW$TU$122    .dwtag  DW_TAG_type_unit
    9611                      .dwmtype  $C$DW$T$122
    9612              $C$DW$T$122     .dwtag  DW_TAG_typedef
    9613                      .dwattr $C$DW$T$122, DW_AT_name("XBAR_EPWMMuxConfig")
    9614                      .dwattr $C$DW$T$122, DW_AT_type(*$C$DW$T$121)
    9615                      .dwattr $C$DW$T$122, DW_AT_decl_file("C:\Users\ZXC\Documents\mcu project\ti-project\clllc_nonpowerSUI
    9616                      .dwattr $C$DW$T$122, DW_AT_decl_line(0x18b)
    9617                      .dwattr $C$DW$T$122, DW_AT_decl_column(0x03)
TMS320C2000 Assembler PC v22.6.0 Mon Sep  2 11:55:45 2024

Copyright (c) 1996-2018 Texas Instruments Incorporated
clllc_hal.asm                                                        PAGE  195

    9618              
    9619                      .dwendtag $C$DW$TU$122
    9620              
    9621              
    9622              $C$DW$TU$123    .dwtag  DW_TAG_type_unit
    9623                      .dwmtype  $C$DW$T$123
    9624              
    9625              $C$DW$T$123     .dwtag  DW_TAG_enumeration_type
    9626                      .dwattr $C$DW$T$123, DW_AT_byte_size(0x01)
    9627              $C$DW$761       .dwtag  DW_TAG_enumerator
    9628                      .dwattr $C$DW$761, DW_AT_name("XBAR_INPUT_FLG_CMPSS1_CTRIPL")
    9629                      .dwattr $C$DW$761, DW_AT_const_value(0x00)
    9630                      .dwattr $C$DW$761, DW_AT_decl_file("C:\Users\ZXC\Documents\mcu project\ti-project\clllc_nonpowerSUITE
    9631                      .dwattr $C$DW$761, DW_AT_decl_line(0x1f9)
    9632                      .dwattr $C$DW$761, DW_AT_decl_column(0x05)
    9633              
    9634              $C$DW$762       .dwtag  DW_TAG_enumerator
    9635                      .dwattr $C$DW$762, DW_AT_name("XBAR_INPUT_FLG_CMPSS1_CTRIPH")
    9636                      .dwattr $C$DW$762, DW_AT_const_value(0x01)
    9637                      .dwattr $C$DW$762, DW_AT_decl_file("C:\Users\ZXC\Documents\mcu project\ti-project\clllc_nonpowerSUITE
    9638                      .dwattr $C$DW$762, DW_AT_decl_line(0x1fa)
    9639                      .dwattr $C$DW$762, DW_AT_decl_column(0x05)
    9640              
    9641              $C$DW$763       .dwtag  DW_TAG_enumerator
    9642                      .dwattr $C$DW$763, DW_AT_name("XBAR_INPUT_FLG_CMPSS2_CTRIPL")
    9643                      .dwattr $C$DW$763, DW_AT_const_value(0x02)
    9644                      .dwattr $C$DW$763, DW_AT_decl_file("C:\Users\ZXC\Documents\mcu project\ti-project\clllc_nonpowerSUITE
    9645                      .dwattr $C$DW$763, DW_AT_decl_line(0x1fb)
    9646                      .dwattr $C$DW$763, DW_AT_decl_column(0x05)
    9647              
    9648              $C$DW$764       .dwtag  DW_TAG_enumerator
    9649                      .dwattr $C$DW$764, DW_AT_name("XBAR_INPUT_FLG_CMPSS2_CTRIPH")
    9650                      .dwattr $C$DW$764, DW_AT_const_value(0x03)
    9651                      .dwattr $C$DW$764, DW_AT_decl_file("C:\Users\ZXC\Documents\mcu project\ti-project\clllc_nonpowerSUITE
    9652                      .dwattr $C$DW$764, DW_AT_decl_line(0x1fc)
    9653                      .dwattr $C$DW$764, DW_AT_decl_column(0x05)
    9654              
    9655              $C$DW$765       .dwtag  DW_TAG_enumerator
    9656                      .dwattr $C$DW$765, DW_AT_name("XBAR_INPUT_FLG_CMPSS3_CTRIPL")
    9657                      .dwattr $C$DW$765, DW_AT_const_value(0x04)
    9658                      .dwattr $C$DW$765, DW_AT_decl_file("C:\Users\ZXC\Documents\mcu project\ti-project\clllc_nonpowerSUITE
    9659                      .dwattr $C$DW$765, DW_AT_decl_line(0x1fd)
    9660                      .dwattr $C$DW$765, DW_AT_decl_column(0x05)
    9661              
    9662              $C$DW$766       .dwtag  DW_TAG_enumerator
    9663                      .dwattr $C$DW$766, DW_AT_name("XBAR_INPUT_FLG_CMPSS3_CTRIPH")
    9664                      .dwattr $C$DW$766, DW_AT_const_value(0x05)
    9665                      .dwattr $C$DW$766, DW_AT_decl_file("C:\Users\ZXC\Documents\mcu project\ti-project\clllc_nonpowerSUITE
    9666                      .dwattr $C$DW$766, DW_AT_decl_line(0x1fe)
    9667                      .dwattr $C$DW$766, DW_AT_decl_column(0x05)
    9668              
    9669              $C$DW$767       .dwtag  DW_TAG_enumerator
    9670                      .dwattr $C$DW$767, DW_AT_name("XBAR_INPUT_FLG_CMPSS4_CTRIPL")
    9671                      .dwattr $C$DW$767, DW_AT_const_value(0x06)
    9672                      .dwattr $C$DW$767, DW_AT_decl_file("C:\Users\ZXC\Documents\mcu project\ti-project\clllc_nonpowerSUITE
TMS320C2000 Assembler PC v22.6.0 Mon Sep  2 11:55:45 2024

Copyright (c) 1996-2018 Texas Instruments Incorporated
clllc_hal.asm                                                        PAGE  196

    9673                      .dwattr $C$DW$767, DW_AT_decl_line(0x1ff)
    9674                      .dwattr $C$DW$767, DW_AT_decl_column(0x05)
    9675              
    9676              $C$DW$768       .dwtag  DW_TAG_enumerator
    9677                      .dwattr $C$DW$768, DW_AT_name("XBAR_INPUT_FLG_CMPSS4_CTRIPH")
    9678                      .dwattr $C$DW$768, DW_AT_const_value(0x07)
    9679                      .dwattr $C$DW$768, DW_AT_decl_file("C:\Users\ZXC\Documents\mcu project\ti-project\clllc_nonpowerSUITE
    9680                      .dwattr $C$DW$768, DW_AT_decl_line(0x200)
    9681                      .dwattr $C$DW$768, DW_AT_decl_column(0x05)
    9682              
    9683              $C$DW$769       .dwtag  DW_TAG_enumerator
    9684                      .dwattr $C$DW$769, DW_AT_name("XBAR_INPUT_FLG_CMPSS5_CTRIPL")
    9685                      .dwattr $C$DW$769, DW_AT_const_value(0x08)
    9686                      .dwattr $C$DW$769, DW_AT_decl_file("C:\Users\ZXC\Documents\mcu project\ti-project\clllc_nonpowerSUITE
    9687                      .dwattr $C$DW$769, DW_AT_decl_line(0x201)
    9688                      .dwattr $C$DW$769, DW_AT_decl_column(0x05)
    9689              
    9690              $C$DW$770       .dwtag  DW_TAG_enumerator
    9691                      .dwattr $C$DW$770, DW_AT_name("XBAR_INPUT_FLG_CMPSS5_CTRIPH")
    9692                      .dwattr $C$DW$770, DW_AT_const_value(0x09)
    9693                      .dwattr $C$DW$770, DW_AT_decl_file("C:\Users\ZXC\Documents\mcu project\ti-project\clllc_nonpowerSUITE
    9694                      .dwattr $C$DW$770, DW_AT_decl_line(0x202)
    9695                      .dwattr $C$DW$770, DW_AT_decl_column(0x05)
    9696              
    9697              $C$DW$771       .dwtag  DW_TAG_enumerator
    9698                      .dwattr $C$DW$771, DW_AT_name("XBAR_INPUT_FLG_CMPSS6_CTRIPL")
    9699                      .dwattr $C$DW$771, DW_AT_const_value(0x0a)
    9700                      .dwattr $C$DW$771, DW_AT_decl_file("C:\Users\ZXC\Documents\mcu project\ti-project\clllc_nonpowerSUITE
    9701                      .dwattr $C$DW$771, DW_AT_decl_line(0x203)
    9702                      .dwattr $C$DW$771, DW_AT_decl_column(0x05)
    9703              
    9704              $C$DW$772       .dwtag  DW_TAG_enumerator
    9705                      .dwattr $C$DW$772, DW_AT_name("XBAR_INPUT_FLG_CMPSS6_CTRIPH")
    9706                      .dwattr $C$DW$772, DW_AT_const_value(0x0b)
    9707                      .dwattr $C$DW$772, DW_AT_decl_file("C:\Users\ZXC\Documents\mcu project\ti-project\clllc_nonpowerSUITE
    9708                      .dwattr $C$DW$772, DW_AT_decl_line(0x204)
    9709                      .dwattr $C$DW$772, DW_AT_decl_column(0x05)
    9710              
    9711              $C$DW$773       .dwtag  DW_TAG_enumerator
    9712                      .dwattr $C$DW$773, DW_AT_name("XBAR_INPUT_FLG_CMPSS7_CTRIPL")
    9713                      .dwattr $C$DW$773, DW_AT_const_value(0x0c)
    9714                      .dwattr $C$DW$773, DW_AT_decl_file("C:\Users\ZXC\Documents\mcu project\ti-project\clllc_nonpowerSUITE
    9715                      .dwattr $C$DW$773, DW_AT_decl_line(0x205)
    9716                      .dwattr $C$DW$773, DW_AT_decl_column(0x05)
    9717              
    9718              $C$DW$774       .dwtag  DW_TAG_enumerator
    9719                      .dwattr $C$DW$774, DW_AT_name("XBAR_INPUT_FLG_CMPSS7_CTRIPH")
    9720                      .dwattr $C$DW$774, DW_AT_const_value(0x0d)
    9721                      .dwattr $C$DW$774, DW_AT_decl_file("C:\Users\ZXC\Documents\mcu project\ti-project\clllc_nonpowerSUITE
    9722                      .dwattr $C$DW$774, DW_AT_decl_line(0x206)
    9723                      .dwattr $C$DW$774, DW_AT_decl_column(0x05)
    9724              
    9725              $C$DW$775       .dwtag  DW_TAG_enumerator
    9726                      .dwattr $C$DW$775, DW_AT_name("XBAR_INPUT_FLG_CMPSS8_CTRIPL")
    9727                      .dwattr $C$DW$775, DW_AT_const_value(0x0e)
TMS320C2000 Assembler PC v22.6.0 Mon Sep  2 11:55:45 2024

Copyright (c) 1996-2018 Texas Instruments Incorporated
clllc_hal.asm                                                        PAGE  197

    9728                      .dwattr $C$DW$775, DW_AT_decl_file("C:\Users\ZXC\Documents\mcu project\ti-project\clllc_nonpowerSUITE
    9729                      .dwattr $C$DW$775, DW_AT_decl_line(0x207)
    9730                      .dwattr $C$DW$775, DW_AT_decl_column(0x05)
    9731              
    9732              $C$DW$776       .dwtag  DW_TAG_enumerator
    9733                      .dwattr $C$DW$776, DW_AT_name("XBAR_INPUT_FLG_CMPSS8_CTRIPH")
    9734                      .dwattr $C$DW$776, DW_AT_const_value(0x0f)
    9735                      .dwattr $C$DW$776, DW_AT_decl_file("C:\Users\ZXC\Documents\mcu project\ti-project\clllc_nonpowerSUITE
    9736                      .dwattr $C$DW$776, DW_AT_decl_line(0x208)
    9737                      .dwattr $C$DW$776, DW_AT_decl_column(0x05)
    9738              
    9739              $C$DW$777       .dwtag  DW_TAG_enumerator
    9740                      .dwattr $C$DW$777, DW_AT_name("XBAR_INPUT_FLG_CMPSS1_CTRIPOUTL")
    9741                      .dwattr $C$DW$777, DW_AT_const_value(0x10)
    9742                      .dwattr $C$DW$777, DW_AT_decl_file("C:\Users\ZXC\Documents\mcu project\ti-project\clllc_nonpowerSUITE
    9743                      .dwattr $C$DW$777, DW_AT_decl_line(0x209)
    9744                      .dwattr $C$DW$777, DW_AT_decl_column(0x05)
    9745              
    9746              $C$DW$778       .dwtag  DW_TAG_enumerator
    9747                      .dwattr $C$DW$778, DW_AT_name("XBAR_INPUT_FLG_CMPSS1_CTRIPOUTH")
    9748                      .dwattr $C$DW$778, DW_AT_const_value(0x11)
    9749                      .dwattr $C$DW$778, DW_AT_decl_file("C:\Users\ZXC\Documents\mcu project\ti-project\clllc_nonpowerSUITE
    9750                      .dwattr $C$DW$778, DW_AT_decl_line(0x20a)
    9751                      .dwattr $C$DW$778, DW_AT_decl_column(0x05)
    9752              
    9753              $C$DW$779       .dwtag  DW_TAG_enumerator
    9754                      .dwattr $C$DW$779, DW_AT_name("XBAR_INPUT_FLG_CMPSS2_CTRIPOUTL")
    9755                      .dwattr $C$DW$779, DW_AT_const_value(0x12)
    9756                      .dwattr $C$DW$779, DW_AT_decl_file("C:\Users\ZXC\Documents\mcu project\ti-project\clllc_nonpowerSUITE
    9757                      .dwattr $C$DW$779, DW_AT_decl_line(0x20b)
    9758                      .dwattr $C$DW$779, DW_AT_decl_column(0x05)
    9759              
    9760              $C$DW$780       .dwtag  DW_TAG_enumerator
    9761                      .dwattr $C$DW$780, DW_AT_name("XBAR_INPUT_FLG_CMPSS2_CTRIPOUTH")
    9762                      .dwattr $C$DW$780, DW_AT_const_value(0x13)
    9763                      .dwattr $C$DW$780, DW_AT_decl_file("C:\Users\ZXC\Documents\mcu project\ti-project\clllc_nonpowerSUITE
    9764                      .dwattr $C$DW$780, DW_AT_decl_line(0x20c)
    9765                      .dwattr $C$DW$780, DW_AT_decl_column(0x05)
    9766              
    9767              $C$DW$781       .dwtag  DW_TAG_enumerator
    9768                      .dwattr $C$DW$781, DW_AT_name("XBAR_INPUT_FLG_CMPSS3_CTRIPOUTL")
    9769                      .dwattr $C$DW$781, DW_AT_const_value(0x14)
    9770                      .dwattr $C$DW$781, DW_AT_decl_file("C:\Users\ZXC\Documents\mcu project\ti-project\clllc_nonpowerSUITE
    9771                      .dwattr $C$DW$781, DW_AT_decl_line(0x20d)
    9772                      .dwattr $C$DW$781, DW_AT_decl_column(0x05)
    9773              
    9774              $C$DW$782       .dwtag  DW_TAG_enumerator
    9775                      .dwattr $C$DW$782, DW_AT_name("XBAR_INPUT_FLG_CMPSS3_CTRIPOUTH")
    9776                      .dwattr $C$DW$782, DW_AT_const_value(0x15)
    9777                      .dwattr $C$DW$782, DW_AT_decl_file("C:\Users\ZXC\Documents\mcu project\ti-project\clllc_nonpowerSUITE
    9778                      .dwattr $C$DW$782, DW_AT_decl_line(0x20e)
    9779                      .dwattr $C$DW$782, DW_AT_decl_column(0x05)
    9780              
    9781              $C$DW$783       .dwtag  DW_TAG_enumerator
    9782                      .dwattr $C$DW$783, DW_AT_name("XBAR_INPUT_FLG_CMPSS4_CTRIPOUTL")
TMS320C2000 Assembler PC v22.6.0 Mon Sep  2 11:55:45 2024

Copyright (c) 1996-2018 Texas Instruments Incorporated
clllc_hal.asm                                                        PAGE  198

    9783                      .dwattr $C$DW$783, DW_AT_const_value(0x16)
    9784                      .dwattr $C$DW$783, DW_AT_decl_file("C:\Users\ZXC\Documents\mcu project\ti-project\clllc_nonpowerSUITE
    9785                      .dwattr $C$DW$783, DW_AT_decl_line(0x20f)
    9786                      .dwattr $C$DW$783, DW_AT_decl_column(0x05)
    9787              
    9788              $C$DW$784       .dwtag  DW_TAG_enumerator
    9789                      .dwattr $C$DW$784, DW_AT_name("XBAR_INPUT_FLG_CMPSS4_CTRIPOUTH")
    9790                      .dwattr $C$DW$784, DW_AT_const_value(0x17)
    9791                      .dwattr $C$DW$784, DW_AT_decl_file("C:\Users\ZXC\Documents\mcu project\ti-project\clllc_nonpowerSUITE
    9792                      .dwattr $C$DW$784, DW_AT_decl_line(0x210)
    9793                      .dwattr $C$DW$784, DW_AT_decl_column(0x05)
    9794              
    9795              $C$DW$785       .dwtag  DW_TAG_enumerator
    9796                      .dwattr $C$DW$785, DW_AT_name("XBAR_INPUT_FLG_CMPSS5_CTRIPOUTL")
    9797                      .dwattr $C$DW$785, DW_AT_const_value(0x18)
    9798                      .dwattr $C$DW$785, DW_AT_decl_file("C:\Users\ZXC\Documents\mcu project\ti-project\clllc_nonpowerSUITE
    9799                      .dwattr $C$DW$785, DW_AT_decl_line(0x211)
    9800                      .dwattr $C$DW$785, DW_AT_decl_column(0x05)
    9801              
    9802              $C$DW$786       .dwtag  DW_TAG_enumerator
    9803                      .dwattr $C$DW$786, DW_AT_name("XBAR_INPUT_FLG_CMPSS5_CTRIPOUTH")
    9804                      .dwattr $C$DW$786, DW_AT_const_value(0x19)
    9805                      .dwattr $C$DW$786, DW_AT_decl_file("C:\Users\ZXC\Documents\mcu project\ti-project\clllc_nonpowerSUITE
    9806                      .dwattr $C$DW$786, DW_AT_decl_line(0x212)
    9807                      .dwattr $C$DW$786, DW_AT_decl_column(0x05)
    9808              
    9809              $C$DW$787       .dwtag  DW_TAG_enumerator
    9810                      .dwattr $C$DW$787, DW_AT_name("XBAR_INPUT_FLG_CMPSS6_CTRIPOUTL")
    9811                      .dwattr $C$DW$787, DW_AT_const_value(0x1a)
    9812                      .dwattr $C$DW$787, DW_AT_decl_file("C:\Users\ZXC\Documents\mcu project\ti-project\clllc_nonpowerSUITE
    9813                      .dwattr $C$DW$787, DW_AT_decl_line(0x213)
    9814                      .dwattr $C$DW$787, DW_AT_decl_column(0x05)
    9815              
    9816              $C$DW$788       .dwtag  DW_TAG_enumerator
    9817                      .dwattr $C$DW$788, DW_AT_name("XBAR_INPUT_FLG_CMPSS6_CTRIPOUTH")
    9818                      .dwattr $C$DW$788, DW_AT_const_value(0x1b)
    9819                      .dwattr $C$DW$788, DW_AT_decl_file("C:\Users\ZXC\Documents\mcu project\ti-project\clllc_nonpowerSUITE
    9820                      .dwattr $C$DW$788, DW_AT_decl_line(0x214)
    9821                      .dwattr $C$DW$788, DW_AT_decl_column(0x05)
    9822              
    9823              $C$DW$789       .dwtag  DW_TAG_enumerator
    9824                      .dwattr $C$DW$789, DW_AT_name("XBAR_INPUT_FLG_CMPSS7_CTRIPOUTL")
    9825                      .dwattr $C$DW$789, DW_AT_const_value(0x1c)
    9826                      .dwattr $C$DW$789, DW_AT_decl_file("C:\Users\ZXC\Documents\mcu project\ti-project\clllc_nonpowerSUITE
    9827                      .dwattr $C$DW$789, DW_AT_decl_line(0x215)
    9828                      .dwattr $C$DW$789, DW_AT_decl_column(0x05)
    9829              
    9830              $C$DW$790       .dwtag  DW_TAG_enumerator
    9831                      .dwattr $C$DW$790, DW_AT_name("XBAR_INPUT_FLG_CMPSS7_CTRIPOUTH")
    9832                      .dwattr $C$DW$790, DW_AT_const_value(0x1d)
    9833                      .dwattr $C$DW$790, DW_AT_decl_file("C:\Users\ZXC\Documents\mcu project\ti-project\clllc_nonpowerSUITE
    9834                      .dwattr $C$DW$790, DW_AT_decl_line(0x216)
    9835                      .dwattr $C$DW$790, DW_AT_decl_column(0x05)
    9836              
    9837              $C$DW$791       .dwtag  DW_TAG_enumerator
TMS320C2000 Assembler PC v22.6.0 Mon Sep  2 11:55:45 2024

Copyright (c) 1996-2018 Texas Instruments Incorporated
clllc_hal.asm                                                        PAGE  199

    9838                      .dwattr $C$DW$791, DW_AT_name("XBAR_INPUT_FLG_CMPSS8_CTRIPOUTL")
    9839                      .dwattr $C$DW$791, DW_AT_const_value(0x1e)
    9840                      .dwattr $C$DW$791, DW_AT_decl_file("C:\Users\ZXC\Documents\mcu project\ti-project\clllc_nonpowerSUITE
    9841                      .dwattr $C$DW$791, DW_AT_decl_line(0x217)
    9842                      .dwattr $C$DW$791, DW_AT_decl_column(0x05)
    9843              
    9844              $C$DW$792       .dwtag  DW_TAG_enumerator
    9845                      .dwattr $C$DW$792, DW_AT_name("XBAR_INPUT_FLG_CMPSS8_CTRIPOUTH")
    9846                      .dwattr $C$DW$792, DW_AT_const_value(0x1f)
    9847                      .dwattr $C$DW$792, DW_AT_decl_file("C:\Users\ZXC\Documents\mcu project\ti-project\clllc_nonpowerSUITE
    9848                      .dwattr $C$DW$792, DW_AT_decl_line(0x218)
    9849                      .dwattr $C$DW$792, DW_AT_decl_column(0x05)
    9850              
    9851              $C$DW$793       .dwtag  DW_TAG_enumerator
    9852                      .dwattr $C$DW$793, DW_AT_name("XBAR_INPUT_FLG_INPUT1")
    9853                      .dwattr $C$DW$793, DW_AT_const_value(0x100)
    9854                      .dwattr $C$DW$793, DW_AT_decl_file("C:\Users\ZXC\Documents\mcu project\ti-project\clllc_nonpowerSUITE
    9855                      .dwattr $C$DW$793, DW_AT_decl_line(0x21c)
    9856                      .dwattr $C$DW$793, DW_AT_decl_column(0x05)
    9857              
    9858              $C$DW$794       .dwtag  DW_TAG_enumerator
    9859                      .dwattr $C$DW$794, DW_AT_name("XBAR_INPUT_FLG_INPUT2")
    9860                      .dwattr $C$DW$794, DW_AT_const_value(0x101)
    9861                      .dwattr $C$DW$794, DW_AT_decl_file("C:\Users\ZXC\Documents\mcu project\ti-project\clllc_nonpowerSUITE
    9862                      .dwattr $C$DW$794, DW_AT_decl_line(0x21d)
    9863                      .dwattr $C$DW$794, DW_AT_decl_column(0x05)
    9864              
    9865              $C$DW$795       .dwtag  DW_TAG_enumerator
    9866                      .dwattr $C$DW$795, DW_AT_name("XBAR_INPUT_FLG_INPUT3")
    9867                      .dwattr $C$DW$795, DW_AT_const_value(0x102)
    9868                      .dwattr $C$DW$795, DW_AT_decl_file("C:\Users\ZXC\Documents\mcu project\ti-project\clllc_nonpowerSUITE
    9869                      .dwattr $C$DW$795, DW_AT_decl_line(0x21e)
    9870                      .dwattr $C$DW$795, DW_AT_decl_column(0x05)
    9871              
    9872              $C$DW$796       .dwtag  DW_TAG_enumerator
    9873                      .dwattr $C$DW$796, DW_AT_name("XBAR_INPUT_FLG_INPUT4")
    9874                      .dwattr $C$DW$796, DW_AT_const_value(0x103)
    9875                      .dwattr $C$DW$796, DW_AT_decl_file("C:\Users\ZXC\Documents\mcu project\ti-project\clllc_nonpowerSUITE
    9876                      .dwattr $C$DW$796, DW_AT_decl_line(0x21f)
    9877                      .dwattr $C$DW$796, DW_AT_decl_column(0x05)
    9878              
    9879              $C$DW$797       .dwtag  DW_TAG_enumerator
    9880                      .dwattr $C$DW$797, DW_AT_name("XBAR_INPUT_FLG_INPUT5")
    9881                      .dwattr $C$DW$797, DW_AT_const_value(0x104)
    9882                      .dwattr $C$DW$797, DW_AT_decl_file("C:\Users\ZXC\Documents\mcu project\ti-project\clllc_nonpowerSUITE
    9883                      .dwattr $C$DW$797, DW_AT_decl_line(0x220)
    9884                      .dwattr $C$DW$797, DW_AT_decl_column(0x05)
    9885              
    9886              $C$DW$798       .dwtag  DW_TAG_enumerator
    9887                      .dwattr $C$DW$798, DW_AT_name("XBAR_INPUT_FLG_INPUT6")
    9888                      .dwattr $C$DW$798, DW_AT_const_value(0x105)
    9889                      .dwattr $C$DW$798, DW_AT_decl_file("C:\Users\ZXC\Documents\mcu project\ti-project\clllc_nonpowerSUITE
    9890                      .dwattr $C$DW$798, DW_AT_decl_line(0x221)
    9891                      .dwattr $C$DW$798, DW_AT_decl_column(0x05)
    9892              
TMS320C2000 Assembler PC v22.6.0 Mon Sep  2 11:55:45 2024

Copyright (c) 1996-2018 Texas Instruments Incorporated
clllc_hal.asm                                                        PAGE  200

    9893              $C$DW$799       .dwtag  DW_TAG_enumerator
    9894                      .dwattr $C$DW$799, DW_AT_name("XBAR_INPUT_FLG_ADCSOCA")
    9895                      .dwattr $C$DW$799, DW_AT_const_value(0x106)
    9896                      .dwattr $C$DW$799, DW_AT_decl_file("C:\Users\ZXC\Documents\mcu project\ti-project\clllc_nonpowerSUITE
    9897                      .dwattr $C$DW$799, DW_AT_decl_line(0x222)
    9898                      .dwattr $C$DW$799, DW_AT_decl_column(0x05)
    9899              
    9900              $C$DW$800       .dwtag  DW_TAG_enumerator
    9901                      .dwattr $C$DW$800, DW_AT_name("XBAR_INPUT_FLG_ADCSOCB")
    9902                      .dwattr $C$DW$800, DW_AT_const_value(0x107)
    9903                      .dwattr $C$DW$800, DW_AT_decl_file("C:\Users\ZXC\Documents\mcu project\ti-project\clllc_nonpowerSUITE
    9904                      .dwattr $C$DW$800, DW_AT_decl_line(0x223)
    9905                      .dwattr $C$DW$800, DW_AT_decl_column(0x05)
    9906              
    9907              $C$DW$801       .dwtag  DW_TAG_enumerator
    9908                      .dwattr $C$DW$801, DW_AT_name("XBAR_INPUT_FLG_INPUT7")
    9909                      .dwattr $C$DW$801, DW_AT_const_value(0x108)
    9910                      .dwattr $C$DW$801, DW_AT_decl_file("C:\Users\ZXC\Documents\mcu project\ti-project\clllc_nonpowerSUITE
    9911                      .dwattr $C$DW$801, DW_AT_decl_line(0x224)
    9912                      .dwattr $C$DW$801, DW_AT_decl_column(0x05)
    9913              
    9914              $C$DW$802       .dwtag  DW_TAG_enumerator
    9915                      .dwattr $C$DW$802, DW_AT_name("XBAR_INPUT_FLG_INPUT8")
    9916                      .dwattr $C$DW$802, DW_AT_const_value(0x109)
    9917                      .dwattr $C$DW$802, DW_AT_decl_file("C:\Users\ZXC\Documents\mcu project\ti-project\clllc_nonpowerSUITE
    9918                      .dwattr $C$DW$802, DW_AT_decl_line(0x225)
    9919                      .dwattr $C$DW$802, DW_AT_decl_column(0x05)
    9920              
    9921              $C$DW$803       .dwtag  DW_TAG_enumerator
    9922                      .dwattr $C$DW$803, DW_AT_name("XBAR_INPUT_FLG_INPUT9")
    9923                      .dwattr $C$DW$803, DW_AT_const_value(0x10a)
    9924                      .dwattr $C$DW$803, DW_AT_decl_file("C:\Users\ZXC\Documents\mcu project\ti-project\clllc_nonpowerSUITE
    9925                      .dwattr $C$DW$803, DW_AT_decl_line(0x226)
    9926                      .dwattr $C$DW$803, DW_AT_decl_column(0x05)
    9927              
    9928              $C$DW$804       .dwtag  DW_TAG_enumerator
    9929                      .dwattr $C$DW$804, DW_AT_name("XBAR_INPUT_FLG_INPUT10")
    9930                      .dwattr $C$DW$804, DW_AT_const_value(0x10b)
    9931                      .dwattr $C$DW$804, DW_AT_decl_file("C:\Users\ZXC\Documents\mcu project\ti-project\clllc_nonpowerSUITE
    9932                      .dwattr $C$DW$804, DW_AT_decl_line(0x227)
    9933                      .dwattr $C$DW$804, DW_AT_decl_column(0x05)
    9934              
    9935              $C$DW$805       .dwtag  DW_TAG_enumerator
    9936                      .dwattr $C$DW$805, DW_AT_name("XBAR_INPUT_FLG_INPUT11")
    9937                      .dwattr $C$DW$805, DW_AT_const_value(0x10c)
    9938                      .dwattr $C$DW$805, DW_AT_decl_file("C:\Users\ZXC\Documents\mcu project\ti-project\clllc_nonpowerSUITE
    9939                      .dwattr $C$DW$805, DW_AT_decl_line(0x228)
    9940                      .dwattr $C$DW$805, DW_AT_decl_column(0x05)
    9941              
    9942              $C$DW$806       .dwtag  DW_TAG_enumerator
    9943                      .dwattr $C$DW$806, DW_AT_name("XBAR_INPUT_FLG_INPUT12")
    9944                      .dwattr $C$DW$806, DW_AT_const_value(0x10d)
    9945                      .dwattr $C$DW$806, DW_AT_decl_file("C:\Users\ZXC\Documents\mcu project\ti-project\clllc_nonpowerSUITE
    9946                      .dwattr $C$DW$806, DW_AT_decl_line(0x229)
    9947                      .dwattr $C$DW$806, DW_AT_decl_column(0x05)
TMS320C2000 Assembler PC v22.6.0 Mon Sep  2 11:55:45 2024

Copyright (c) 1996-2018 Texas Instruments Incorporated
clllc_hal.asm                                                        PAGE  201

    9948              
    9949              $C$DW$807       .dwtag  DW_TAG_enumerator
    9950                      .dwattr $C$DW$807, DW_AT_name("XBAR_INPUT_FLG_INPUT13")
    9951                      .dwattr $C$DW$807, DW_AT_const_value(0x10e)
    9952                      .dwattr $C$DW$807, DW_AT_decl_file("C:\Users\ZXC\Documents\mcu project\ti-project\clllc_nonpowerSUITE
    9953                      .dwattr $C$DW$807, DW_AT_decl_line(0x22a)
    9954                      .dwattr $C$DW$807, DW_AT_decl_column(0x05)
    9955              
    9956              $C$DW$808       .dwtag  DW_TAG_enumerator
    9957                      .dwattr $C$DW$808, DW_AT_name("XBAR_INPUT_FLG_INPUT14")
    9958                      .dwattr $C$DW$808, DW_AT_const_value(0x10f)
    9959                      .dwattr $C$DW$808, DW_AT_decl_file("C:\Users\ZXC\Documents\mcu project\ti-project\clllc_nonpowerSUITE
    9960                      .dwattr $C$DW$808, DW_AT_decl_line(0x22b)
    9961                      .dwattr $C$DW$808, DW_AT_decl_column(0x05)
    9962              
    9963              $C$DW$809       .dwtag  DW_TAG_enumerator
    9964                      .dwattr $C$DW$809, DW_AT_name("XBAR_INPUT_FLG_ECAP1_OUT")
    9965                      .dwattr $C$DW$809, DW_AT_const_value(0x110)
    9966                      .dwattr $C$DW$809, DW_AT_decl_file("C:\Users\ZXC\Documents\mcu project\ti-project\clllc_nonpowerSUITE
    9967                      .dwattr $C$DW$809, DW_AT_decl_line(0x22c)
    9968                      .dwattr $C$DW$809, DW_AT_decl_column(0x05)
    9969              
    9970              $C$DW$810       .dwtag  DW_TAG_enumerator
    9971                      .dwattr $C$DW$810, DW_AT_name("XBAR_INPUT_FLG_ECAP2_OUT")
    9972                      .dwattr $C$DW$810, DW_AT_const_value(0x111)
    9973                      .dwattr $C$DW$810, DW_AT_decl_file("C:\Users\ZXC\Documents\mcu project\ti-project\clllc_nonpowerSUITE
    9974                      .dwattr $C$DW$810, DW_AT_decl_line(0x22d)
    9975                      .dwattr $C$DW$810, DW_AT_decl_column(0x05)
    9976              
    9977              $C$DW$811       .dwtag  DW_TAG_enumerator
    9978                      .dwattr $C$DW$811, DW_AT_name("XBAR_INPUT_FLG_ECAP3_OUT")
    9979                      .dwattr $C$DW$811, DW_AT_const_value(0x112)
    9980                      .dwattr $C$DW$811, DW_AT_decl_file("C:\Users\ZXC\Documents\mcu project\ti-project\clllc_nonpowerSUITE
    9981                      .dwattr $C$DW$811, DW_AT_decl_line(0x22e)
    9982                      .dwattr $C$DW$811, DW_AT_decl_column(0x05)
    9983              
    9984              $C$DW$812       .dwtag  DW_TAG_enumerator
    9985                      .dwattr $C$DW$812, DW_AT_name("XBAR_INPUT_FLG_ECAP4_OUT")
    9986                      .dwattr $C$DW$812, DW_AT_const_value(0x113)
    9987                      .dwattr $C$DW$812, DW_AT_decl_file("C:\Users\ZXC\Documents\mcu project\ti-project\clllc_nonpowerSUITE
    9988                      .dwattr $C$DW$812, DW_AT_decl_line(0x22f)
    9989                      .dwattr $C$DW$812, DW_AT_decl_column(0x05)
    9990              
    9991              $C$DW$813       .dwtag  DW_TAG_enumerator
    9992                      .dwattr $C$DW$813, DW_AT_name("XBAR_INPUT_FLG_ECAP5_OUT")
    9993                      .dwattr $C$DW$813, DW_AT_const_value(0x114)
    9994                      .dwattr $C$DW$813, DW_AT_decl_file("C:\Users\ZXC\Documents\mcu project\ti-project\clllc_nonpowerSUITE
    9995                      .dwattr $C$DW$813, DW_AT_decl_line(0x230)
    9996                      .dwattr $C$DW$813, DW_AT_decl_column(0x05)
    9997              
    9998              $C$DW$814       .dwtag  DW_TAG_enumerator
    9999                      .dwattr $C$DW$814, DW_AT_name("XBAR_INPUT_FLG_ECAP6_OUT")
   10000                      .dwattr $C$DW$814, DW_AT_const_value(0x115)
   10001                      .dwattr $C$DW$814, DW_AT_decl_file("C:\Users\ZXC\Documents\mcu project\ti-project\clllc_nonpowerSUITE
   10002                      .dwattr $C$DW$814, DW_AT_decl_line(0x231)
TMS320C2000 Assembler PC v22.6.0 Mon Sep  2 11:55:45 2024

Copyright (c) 1996-2018 Texas Instruments Incorporated
clllc_hal.asm                                                        PAGE  202

   10003                      .dwattr $C$DW$814, DW_AT_decl_column(0x05)
   10004              
   10005              $C$DW$815       .dwtag  DW_TAG_enumerator
   10006                      .dwattr $C$DW$815, DW_AT_name("XBAR_INPUT_FLG_EXTSYNCOUT")
   10007                      .dwattr $C$DW$815, DW_AT_const_value(0x116)
   10008                      .dwattr $C$DW$815, DW_AT_decl_file("C:\Users\ZXC\Documents\mcu project\ti-project\clllc_nonpowerSUITE
   10009                      .dwattr $C$DW$815, DW_AT_decl_line(0x232)
   10010                      .dwattr $C$DW$815, DW_AT_decl_column(0x05)
   10011              
   10012              $C$DW$816       .dwtag  DW_TAG_enumerator
   10013                      .dwattr $C$DW$816, DW_AT_name("XBAR_INPUT_FLG_ADCAEVT1")
   10014                      .dwattr $C$DW$816, DW_AT_const_value(0x117)
   10015                      .dwattr $C$DW$816, DW_AT_decl_file("C:\Users\ZXC\Documents\mcu project\ti-project\clllc_nonpowerSUITE
   10016                      .dwattr $C$DW$816, DW_AT_decl_line(0x233)
   10017                      .dwattr $C$DW$816, DW_AT_decl_column(0x05)
   10018              
   10019              $C$DW$817       .dwtag  DW_TAG_enumerator
   10020                      .dwattr $C$DW$817, DW_AT_name("XBAR_INPUT_FLG_ADCAEVT2")
   10021                      .dwattr $C$DW$817, DW_AT_const_value(0x118)
   10022                      .dwattr $C$DW$817, DW_AT_decl_file("C:\Users\ZXC\Documents\mcu project\ti-project\clllc_nonpowerSUITE
   10023                      .dwattr $C$DW$817, DW_AT_decl_line(0x234)
   10024                      .dwattr $C$DW$817, DW_AT_decl_column(0x05)
   10025              
   10026              $C$DW$818       .dwtag  DW_TAG_enumerator
   10027                      .dwattr $C$DW$818, DW_AT_name("XBAR_INPUT_FLG_ADCAEVT3")
   10028                      .dwattr $C$DW$818, DW_AT_const_value(0x119)
   10029                      .dwattr $C$DW$818, DW_AT_decl_file("C:\Users\ZXC\Documents\mcu project\ti-project\clllc_nonpowerSUITE
   10030                      .dwattr $C$DW$818, DW_AT_decl_line(0x235)
   10031                      .dwattr $C$DW$818, DW_AT_decl_column(0x05)
   10032              
   10033              $C$DW$819       .dwtag  DW_TAG_enumerator
   10034                      .dwattr $C$DW$819, DW_AT_name("XBAR_INPUT_FLG_ADCAEVT4")
   10035                      .dwattr $C$DW$819, DW_AT_const_value(0x11a)
   10036                      .dwattr $C$DW$819, DW_AT_decl_file("C:\Users\ZXC\Documents\mcu project\ti-project\clllc_nonpowerSUITE
   10037                      .dwattr $C$DW$819, DW_AT_decl_line(0x236)
   10038                      .dwattr $C$DW$819, DW_AT_decl_column(0x05)
   10039              
   10040              $C$DW$820       .dwtag  DW_TAG_enumerator
   10041                      .dwattr $C$DW$820, DW_AT_name("XBAR_INPUT_FLG_ADCBEVT1")
   10042                      .dwattr $C$DW$820, DW_AT_const_value(0x11b)
   10043                      .dwattr $C$DW$820, DW_AT_decl_file("C:\Users\ZXC\Documents\mcu project\ti-project\clllc_nonpowerSUITE
   10044                      .dwattr $C$DW$820, DW_AT_decl_line(0x237)
   10045                      .dwattr $C$DW$820, DW_AT_decl_column(0x05)
   10046              
   10047              $C$DW$821       .dwtag  DW_TAG_enumerator
   10048                      .dwattr $C$DW$821, DW_AT_name("XBAR_INPUT_FLG_ADCBEVT2")
   10049                      .dwattr $C$DW$821, DW_AT_const_value(0x11c)
   10050                      .dwattr $C$DW$821, DW_AT_decl_file("C:\Users\ZXC\Documents\mcu project\ti-project\clllc_nonpowerSUITE
   10051                      .dwattr $C$DW$821, DW_AT_decl_line(0x238)
   10052                      .dwattr $C$DW$821, DW_AT_decl_column(0x05)
   10053              
   10054              $C$DW$822       .dwtag  DW_TAG_enumerator
   10055                      .dwattr $C$DW$822, DW_AT_name("XBAR_INPUT_FLG_ADCBEVT3")
   10056                      .dwattr $C$DW$822, DW_AT_const_value(0x11d)
   10057                      .dwattr $C$DW$822, DW_AT_decl_file("C:\Users\ZXC\Documents\mcu project\ti-project\clllc_nonpowerSUITE
TMS320C2000 Assembler PC v22.6.0 Mon Sep  2 11:55:45 2024

Copyright (c) 1996-2018 Texas Instruments Incorporated
clllc_hal.asm                                                        PAGE  203

   10058                      .dwattr $C$DW$822, DW_AT_decl_line(0x239)
   10059                      .dwattr $C$DW$822, DW_AT_decl_column(0x05)
   10060              
   10061              $C$DW$823       .dwtag  DW_TAG_enumerator
   10062                      .dwattr $C$DW$823, DW_AT_name("XBAR_INPUT_FLG_ADCBEVT4")
   10063                      .dwattr $C$DW$823, DW_AT_const_value(0x11e)
   10064                      .dwattr $C$DW$823, DW_AT_decl_file("C:\Users\ZXC\Documents\mcu project\ti-project\clllc_nonpowerSUITE
   10065                      .dwattr $C$DW$823, DW_AT_decl_line(0x23a)
   10066                      .dwattr $C$DW$823, DW_AT_decl_column(0x05)
   10067              
   10068              $C$DW$824       .dwtag  DW_TAG_enumerator
   10069                      .dwattr $C$DW$824, DW_AT_name("XBAR_INPUT_FLG_ADCCEVT1")
   10070                      .dwattr $C$DW$824, DW_AT_const_value(0x11f)
   10071                      .dwattr $C$DW$824, DW_AT_decl_file("C:\Users\ZXC\Documents\mcu project\ti-project\clllc_nonpowerSUITE
   10072                      .dwattr $C$DW$824, DW_AT_decl_line(0x23b)
   10073                      .dwattr $C$DW$824, DW_AT_decl_column(0x05)
   10074              
   10075              $C$DW$825       .dwtag  DW_TAG_enumerator
   10076                      .dwattr $C$DW$825, DW_AT_name("XBAR_INPUT_FLG_ADCCEVT2")
   10077                      .dwattr $C$DW$825, DW_AT_const_value(0x200)
   10078                      .dwattr $C$DW$825, DW_AT_decl_file("C:\Users\ZXC\Documents\mcu project\ti-project\clllc_nonpowerSUITE
   10079                      .dwattr $C$DW$825, DW_AT_decl_line(0x23f)
   10080                      .dwattr $C$DW$825, DW_AT_decl_column(0x05)
   10081              
   10082              $C$DW$826       .dwtag  DW_TAG_enumerator
   10083                      .dwattr $C$DW$826, DW_AT_name("XBAR_INPUT_FLG_ADCCEVT3")
   10084                      .dwattr $C$DW$826, DW_AT_const_value(0x201)
   10085                      .dwattr $C$DW$826, DW_AT_decl_file("C:\Users\ZXC\Documents\mcu project\ti-project\clllc_nonpowerSUITE
   10086                      .dwattr $C$DW$826, DW_AT_decl_line(0x240)
   10087                      .dwattr $C$DW$826, DW_AT_decl_column(0x05)
   10088              
   10089              $C$DW$827       .dwtag  DW_TAG_enumerator
   10090                      .dwattr $C$DW$827, DW_AT_name("XBAR_INPUT_FLG_ADCCEVT4")
   10091                      .dwattr $C$DW$827, DW_AT_const_value(0x202)
   10092                      .dwattr $C$DW$827, DW_AT_decl_file("C:\Users\ZXC\Documents\mcu project\ti-project\clllc_nonpowerSUITE
   10093                      .dwattr $C$DW$827, DW_AT_decl_line(0x241)
   10094                      .dwattr $C$DW$827, DW_AT_decl_column(0x05)
   10095              
   10096              $C$DW$828       .dwtag  DW_TAG_enumerator
   10097                      .dwattr $C$DW$828, DW_AT_name("XBAR_INPUT_FLG_ADCDEVT1")
   10098                      .dwattr $C$DW$828, DW_AT_const_value(0x203)
   10099                      .dwattr $C$DW$828, DW_AT_decl_file("C:\Users\ZXC\Documents\mcu project\ti-project\clllc_nonpowerSUITE
   10100                      .dwattr $C$DW$828, DW_AT_decl_line(0x242)
   10101                      .dwattr $C$DW$828, DW_AT_decl_column(0x05)
   10102              
   10103              $C$DW$829       .dwtag  DW_TAG_enumerator
   10104                      .dwattr $C$DW$829, DW_AT_name("XBAR_INPUT_FLG_ADCDEVT2")
   10105                      .dwattr $C$DW$829, DW_AT_const_value(0x204)
   10106                      .dwattr $C$DW$829, DW_AT_decl_file("C:\Users\ZXC\Documents\mcu project\ti-project\clllc_nonpowerSUITE
   10107                      .dwattr $C$DW$829, DW_AT_decl_line(0x243)
   10108                      .dwattr $C$DW$829, DW_AT_decl_column(0x05)
   10109              
   10110              $C$DW$830       .dwtag  DW_TAG_enumerator
   10111                      .dwattr $C$DW$830, DW_AT_name("XBAR_INPUT_FLG_ADCDEVT3")
   10112                      .dwattr $C$DW$830, DW_AT_const_value(0x205)
TMS320C2000 Assembler PC v22.6.0 Mon Sep  2 11:55:45 2024

Copyright (c) 1996-2018 Texas Instruments Incorporated
clllc_hal.asm                                                        PAGE  204

   10113                      .dwattr $C$DW$830, DW_AT_decl_file("C:\Users\ZXC\Documents\mcu project\ti-project\clllc_nonpowerSUITE
   10114                      .dwattr $C$DW$830, DW_AT_decl_line(0x244)
   10115                      .dwattr $C$DW$830, DW_AT_decl_column(0x05)
   10116              
   10117              $C$DW$831       .dwtag  DW_TAG_enumerator
   10118                      .dwattr $C$DW$831, DW_AT_name("XBAR_INPUT_FLG_ADCDEVT4")
   10119                      .dwattr $C$DW$831, DW_AT_const_value(0x206)
   10120                      .dwattr $C$DW$831, DW_AT_decl_file("C:\Users\ZXC\Documents\mcu project\ti-project\clllc_nonpowerSUITE
   10121                      .dwattr $C$DW$831, DW_AT_decl_line(0x245)
   10122                      .dwattr $C$DW$831, DW_AT_decl_column(0x05)
   10123              
   10124              $C$DW$832       .dwtag  DW_TAG_enumerator
   10125                      .dwattr $C$DW$832, DW_AT_name("XBAR_INPUT_FLG_SD1FLT1_COMPL")
   10126                      .dwattr $C$DW$832, DW_AT_const_value(0x207)
   10127                      .dwattr $C$DW$832, DW_AT_decl_file("C:\Users\ZXC\Documents\mcu project\ti-project\clllc_nonpowerSUITE
   10128                      .dwattr $C$DW$832, DW_AT_decl_line(0x246)
   10129                      .dwattr $C$DW$832, DW_AT_decl_column(0x05)
   10130              
   10131              $C$DW$833       .dwtag  DW_TAG_enumerator
   10132                      .dwattr $C$DW$833, DW_AT_name("XBAR_INPUT_FLG_SD1FLT1_COMPH")
   10133                      .dwattr $C$DW$833, DW_AT_const_value(0x208)
   10134                      .dwattr $C$DW$833, DW_AT_decl_file("C:\Users\ZXC\Documents\mcu project\ti-project\clllc_nonpowerSUITE
   10135                      .dwattr $C$DW$833, DW_AT_decl_line(0x247)
   10136                      .dwattr $C$DW$833, DW_AT_decl_column(0x05)
   10137              
   10138              $C$DW$834       .dwtag  DW_TAG_enumerator
   10139                      .dwattr $C$DW$834, DW_AT_name("XBAR_INPUT_FLG_SD1FLT2_COMPL")
   10140                      .dwattr $C$DW$834, DW_AT_const_value(0x209)
   10141                      .dwattr $C$DW$834, DW_AT_decl_file("C:\Users\ZXC\Documents\mcu project\ti-project\clllc_nonpowerSUITE
   10142                      .dwattr $C$DW$834, DW_AT_decl_line(0x248)
   10143                      .dwattr $C$DW$834, DW_AT_decl_column(0x05)
   10144              
   10145              $C$DW$835       .dwtag  DW_TAG_enumerator
   10146                      .dwattr $C$DW$835, DW_AT_name("XBAR_INPUT_FLG_SD1FLT2_COMPH")
   10147                      .dwattr $C$DW$835, DW_AT_const_value(0x20a)
   10148                      .dwattr $C$DW$835, DW_AT_decl_file("C:\Users\ZXC\Documents\mcu project\ti-project\clllc_nonpowerSUITE
   10149                      .dwattr $C$DW$835, DW_AT_decl_line(0x249)
   10150                      .dwattr $C$DW$835, DW_AT_decl_column(0x05)
   10151              
   10152              $C$DW$836       .dwtag  DW_TAG_enumerator
   10153                      .dwattr $C$DW$836, DW_AT_name("XBAR_INPUT_FLG_SD1FLT3_COMPL")
   10154                      .dwattr $C$DW$836, DW_AT_const_value(0x20b)
   10155                      .dwattr $C$DW$836, DW_AT_decl_file("C:\Users\ZXC\Documents\mcu project\ti-project\clllc_nonpowerSUITE
   10156                      .dwattr $C$DW$836, DW_AT_decl_line(0x24a)
   10157                      .dwattr $C$DW$836, DW_AT_decl_column(0x05)
   10158              
   10159              $C$DW$837       .dwtag  DW_TAG_enumerator
   10160                      .dwattr $C$DW$837, DW_AT_name("XBAR_INPUT_FLG_SD1FLT3_COMPH")
   10161                      .dwattr $C$DW$837, DW_AT_const_value(0x20c)
   10162                      .dwattr $C$DW$837, DW_AT_decl_file("C:\Users\ZXC\Documents\mcu project\ti-project\clllc_nonpowerSUITE
   10163                      .dwattr $C$DW$837, DW_AT_decl_line(0x24b)
   10164                      .dwattr $C$DW$837, DW_AT_decl_column(0x05)
   10165              
   10166              $C$DW$838       .dwtag  DW_TAG_enumerator
   10167                      .dwattr $C$DW$838, DW_AT_name("XBAR_INPUT_FLG_SD1FLT4_COMPL")
TMS320C2000 Assembler PC v22.6.0 Mon Sep  2 11:55:45 2024

Copyright (c) 1996-2018 Texas Instruments Incorporated
clllc_hal.asm                                                        PAGE  205

   10168                      .dwattr $C$DW$838, DW_AT_const_value(0x20d)
   10169                      .dwattr $C$DW$838, DW_AT_decl_file("C:\Users\ZXC\Documents\mcu project\ti-project\clllc_nonpowerSUITE
   10170                      .dwattr $C$DW$838, DW_AT_decl_line(0x24c)
   10171                      .dwattr $C$DW$838, DW_AT_decl_column(0x05)
   10172              
   10173              $C$DW$839       .dwtag  DW_TAG_enumerator
   10174                      .dwattr $C$DW$839, DW_AT_name("XBAR_INPUT_FLG_SD1FLT4_COMPH")
   10175                      .dwattr $C$DW$839, DW_AT_const_value(0x20e)
   10176                      .dwattr $C$DW$839, DW_AT_decl_file("C:\Users\ZXC\Documents\mcu project\ti-project\clllc_nonpowerSUITE
   10177                      .dwattr $C$DW$839, DW_AT_decl_line(0x24d)
   10178                      .dwattr $C$DW$839, DW_AT_decl_column(0x05)
   10179              
   10180              $C$DW$840       .dwtag  DW_TAG_enumerator
   10181                      .dwattr $C$DW$840, DW_AT_name("XBAR_INPUT_FLG_ECAP7_OUT")
   10182                      .dwattr $C$DW$840, DW_AT_const_value(0x217)
   10183                      .dwattr $C$DW$840, DW_AT_decl_file("C:\Users\ZXC\Documents\mcu project\ti-project\clllc_nonpowerSUITE
   10184                      .dwattr $C$DW$840, DW_AT_decl_line(0x24e)
   10185                      .dwattr $C$DW$840, DW_AT_decl_column(0x05)
   10186              
   10187              $C$DW$841       .dwtag  DW_TAG_enumerator
   10188                      .dwattr $C$DW$841, DW_AT_name("XBAR_INPUT_FLG_SD1FLT1_COMPZ")
   10189                      .dwattr $C$DW$841, DW_AT_const_value(0x218)
   10190                      .dwattr $C$DW$841, DW_AT_decl_file("C:\Users\ZXC\Documents\mcu project\ti-project\clllc_nonpowerSUITE
   10191                      .dwattr $C$DW$841, DW_AT_decl_line(0x24f)
   10192                      .dwattr $C$DW$841, DW_AT_decl_column(0x05)
   10193              
   10194              $C$DW$842       .dwtag  DW_TAG_enumerator
   10195                      .dwattr $C$DW$842, DW_AT_name("XBAR_INPUT_FLG_SD1FLT1_DRINT")
   10196                      .dwattr $C$DW$842, DW_AT_const_value(0x219)
   10197                      .dwattr $C$DW$842, DW_AT_decl_file("C:\Users\ZXC\Documents\mcu project\ti-project\clllc_nonpowerSUITE
   10198                      .dwattr $C$DW$842, DW_AT_decl_line(0x250)
   10199                      .dwattr $C$DW$842, DW_AT_decl_column(0x05)
   10200              
   10201              $C$DW$843       .dwtag  DW_TAG_enumerator
   10202                      .dwattr $C$DW$843, DW_AT_name("XBAR_INPUT_FLG_SD1FLT2_COMPZ")
   10203                      .dwattr $C$DW$843, DW_AT_const_value(0x21a)
   10204                      .dwattr $C$DW$843, DW_AT_decl_file("C:\Users\ZXC\Documents\mcu project\ti-project\clllc_nonpowerSUITE
   10205                      .dwattr $C$DW$843, DW_AT_decl_line(0x251)
   10206                      .dwattr $C$DW$843, DW_AT_decl_column(0x05)
   10207              
   10208              $C$DW$844       .dwtag  DW_TAG_enumerator
   10209                      .dwattr $C$DW$844, DW_AT_name("XBAR_INPUT_FLG_SD1FLT2_DRINT")
   10210                      .dwattr $C$DW$844, DW_AT_const_value(0x21b)
   10211                      .dwattr $C$DW$844, DW_AT_decl_file("C:\Users\ZXC\Documents\mcu project\ti-project\clllc_nonpowerSUITE
   10212                      .dwattr $C$DW$844, DW_AT_decl_line(0x252)
   10213                      .dwattr $C$DW$844, DW_AT_decl_column(0x05)
   10214              
   10215              $C$DW$845       .dwtag  DW_TAG_enumerator
   10216                      .dwattr $C$DW$845, DW_AT_name("XBAR_INPUT_FLG_SD1FLT3_COMPZ")
   10217                      .dwattr $C$DW$845, DW_AT_const_value(0x21c)
   10218                      .dwattr $C$DW$845, DW_AT_decl_file("C:\Users\ZXC\Documents\mcu project\ti-project\clllc_nonpowerSUITE
   10219                      .dwattr $C$DW$845, DW_AT_decl_line(0x253)
   10220                      .dwattr $C$DW$845, DW_AT_decl_column(0x05)
   10221              
   10222              $C$DW$846       .dwtag  DW_TAG_enumerator
TMS320C2000 Assembler PC v22.6.0 Mon Sep  2 11:55:45 2024

Copyright (c) 1996-2018 Texas Instruments Incorporated
clllc_hal.asm                                                        PAGE  206

   10223                      .dwattr $C$DW$846, DW_AT_name("XBAR_INPUT_FLG_SD1FLT3_DRINT")
   10224                      .dwattr $C$DW$846, DW_AT_const_value(0x21d)
   10225                      .dwattr $C$DW$846, DW_AT_decl_file("C:\Users\ZXC\Documents\mcu project\ti-project\clllc_nonpowerSUITE
   10226                      .dwattr $C$DW$846, DW_AT_decl_line(0x254)
   10227                      .dwattr $C$DW$846, DW_AT_decl_column(0x05)
   10228              
   10229              $C$DW$847       .dwtag  DW_TAG_enumerator
   10230                      .dwattr $C$DW$847, DW_AT_name("XBAR_INPUT_FLG_SD1FLT4_COMPZ")
   10231                      .dwattr $C$DW$847, DW_AT_const_value(0x21e)
   10232                      .dwattr $C$DW$847, DW_AT_decl_file("C:\Users\ZXC\Documents\mcu project\ti-project\clllc_nonpowerSUITE
   10233                      .dwattr $C$DW$847, DW_AT_decl_line(0x255)
   10234                      .dwattr $C$DW$847, DW_AT_decl_column(0x05)
   10235              
   10236              $C$DW$848       .dwtag  DW_TAG_enumerator
   10237                      .dwattr $C$DW$848, DW_AT_name("XBAR_INPUT_FLG_SD1FLT4_DRINT")
   10238                      .dwattr $C$DW$848, DW_AT_const_value(0x21f)
   10239                      .dwattr $C$DW$848, DW_AT_decl_file("C:\Users\ZXC\Documents\mcu project\ti-project\clllc_nonpowerSUITE
   10240                      .dwattr $C$DW$848, DW_AT_decl_line(0x256)
   10241                      .dwattr $C$DW$848, DW_AT_decl_column(0x05)
   10242              
   10243              $C$DW$849       .dwtag  DW_TAG_enumerator
   10244                      .dwattr $C$DW$849, DW_AT_name("XBAR_INPUT_FLG_CLB1_OUT4")
   10245                      .dwattr $C$DW$849, DW_AT_const_value(0x310)
   10246                      .dwattr $C$DW$849, DW_AT_decl_file("C:\Users\ZXC\Documents\mcu project\ti-project\clllc_nonpowerSUITE
   10247                      .dwattr $C$DW$849, DW_AT_decl_line(0x25a)
   10248                      .dwattr $C$DW$849, DW_AT_decl_column(0x05)
   10249              
   10250              $C$DW$850       .dwtag  DW_TAG_enumerator
   10251                      .dwattr $C$DW$850, DW_AT_name("XBAR_INPUT_FLG_CLB1_OUT5")
   10252                      .dwattr $C$DW$850, DW_AT_const_value(0x311)
   10253                      .dwattr $C$DW$850, DW_AT_decl_file("C:\Users\ZXC\Documents\mcu project\ti-project\clllc_nonpowerSUITE
   10254                      .dwattr $C$DW$850, DW_AT_decl_line(0x25b)
   10255                      .dwattr $C$DW$850, DW_AT_decl_column(0x05)
   10256              
   10257              $C$DW$851       .dwtag  DW_TAG_enumerator
   10258                      .dwattr $C$DW$851, DW_AT_name("XBAR_INPUT_FLG_CLB2_OUT4")
   10259                      .dwattr $C$DW$851, DW_AT_const_value(0x312)
   10260                      .dwattr $C$DW$851, DW_AT_decl_file("C:\Users\ZXC\Documents\mcu project\ti-project\clllc_nonpowerSUITE
   10261                      .dwattr $C$DW$851, DW_AT_decl_line(0x25c)
   10262                      .dwattr $C$DW$851, DW_AT_decl_column(0x05)
   10263              
   10264              $C$DW$852       .dwtag  DW_TAG_enumerator
   10265                      .dwattr $C$DW$852, DW_AT_name("XBAR_INPUT_FLG_CLB2_OUT5")
   10266                      .dwattr $C$DW$852, DW_AT_const_value(0x313)
   10267                      .dwattr $C$DW$852, DW_AT_decl_file("C:\Users\ZXC\Documents\mcu project\ti-project\clllc_nonpowerSUITE
   10268                      .dwattr $C$DW$852, DW_AT_decl_line(0x25d)
   10269                      .dwattr $C$DW$852, DW_AT_decl_column(0x05)
   10270              
   10271              $C$DW$853       .dwtag  DW_TAG_enumerator
   10272                      .dwattr $C$DW$853, DW_AT_name("XBAR_INPUT_FLG_CLB3_OUT4")
   10273                      .dwattr $C$DW$853, DW_AT_const_value(0x314)
   10274                      .dwattr $C$DW$853, DW_AT_decl_file("C:\Users\ZXC\Documents\mcu project\ti-project\clllc_nonpowerSUITE
   10275                      .dwattr $C$DW$853, DW_AT_decl_line(0x25e)
   10276                      .dwattr $C$DW$853, DW_AT_decl_column(0x05)
   10277              
TMS320C2000 Assembler PC v22.6.0 Mon Sep  2 11:55:45 2024

Copyright (c) 1996-2018 Texas Instruments Incorporated
clllc_hal.asm                                                        PAGE  207

   10278              $C$DW$854       .dwtag  DW_TAG_enumerator
   10279                      .dwattr $C$DW$854, DW_AT_name("XBAR_INPUT_FLG_CLB3_OUT5")
   10280                      .dwattr $C$DW$854, DW_AT_const_value(0x315)
   10281                      .dwattr $C$DW$854, DW_AT_decl_file("C:\Users\ZXC\Documents\mcu project\ti-project\clllc_nonpowerSUITE
   10282                      .dwattr $C$DW$854, DW_AT_decl_line(0x25f)
   10283                      .dwattr $C$DW$854, DW_AT_decl_column(0x05)
   10284              
   10285              $C$DW$855       .dwtag  DW_TAG_enumerator
   10286                      .dwattr $C$DW$855, DW_AT_name("XBAR_INPUT_FLG_CLB4_OUT4")
   10287                      .dwattr $C$DW$855, DW_AT_const_value(0x316)
   10288                      .dwattr $C$DW$855, DW_AT_decl_file("C:\Users\ZXC\Documents\mcu project\ti-project\clllc_nonpowerSUITE
   10289                      .dwattr $C$DW$855, DW_AT_decl_line(0x260)
   10290                      .dwattr $C$DW$855, DW_AT_decl_column(0x05)
   10291              
   10292              $C$DW$856       .dwtag  DW_TAG_enumerator
   10293                      .dwattr $C$DW$856, DW_AT_name("XBAR_INPUT_FLG_CLB4_OUT5")
   10294                      .dwattr $C$DW$856, DW_AT_const_value(0x317)
   10295                      .dwattr $C$DW$856, DW_AT_decl_file("C:\Users\ZXC\Documents\mcu project\ti-project\clllc_nonpowerSUITE
   10296                      .dwattr $C$DW$856, DW_AT_decl_line(0x261)
   10297                      .dwattr $C$DW$856, DW_AT_decl_column(0x05)
   10298              
   10299              $C$DW$857       .dwtag  DW_TAG_enumerator
   10300                      .dwattr $C$DW$857, DW_AT_name("XBAR_INPUT_FLG_CLAHALT")
   10301                      .dwattr $C$DW$857, DW_AT_const_value(0x31f)
   10302                      .dwattr $C$DW$857, DW_AT_decl_file("C:\Users\ZXC\Documents\mcu project\ti-project\clllc_nonpowerSUITE
   10303                      .dwattr $C$DW$857, DW_AT_decl_line(0x262)
   10304                      .dwattr $C$DW$857, DW_AT_decl_column(0x05)
   10305              
   10306                      .dwattr $C$DW$T$123, DW_AT_decl_file("C:\Users\ZXC\Documents\mcu project\ti-project\clllc_nonpowerSUI
   10307                      .dwattr $C$DW$T$123, DW_AT_decl_line(0x1f5)
   10308                      .dwattr $C$DW$T$123, DW_AT_decl_column(0x01)
   10309                      .dwendtag $C$DW$T$123
   10310              
   10311                      .dwendtag $C$DW$TU$123
   10312              
   10313              
   10314              $C$DW$TU$124    .dwtag  DW_TAG_type_unit
   10315                      .dwmtype  $C$DW$T$124
   10316              $C$DW$T$124     .dwtag  DW_TAG_typedef
   10317                      .dwattr $C$DW$T$124, DW_AT_name("XBAR_InputFlag")
   10318                      .dwattr $C$DW$T$124, DW_AT_type(*$C$DW$T$123)
   10319                      .dwattr $C$DW$T$124, DW_AT_decl_file("C:\Users\ZXC\Documents\mcu project\ti-project\clllc_nonpowerSUI
   10320                      .dwattr $C$DW$T$124, DW_AT_decl_line(0x263)
   10321                      .dwattr $C$DW$T$124, DW_AT_decl_column(0x03)
   10322              
   10323                      .dwendtag $C$DW$TU$124
   10324              
   10325              
   10326              $C$DW$TU$125    .dwtag  DW_TAG_type_unit
   10327                      .dwmtype  $C$DW$T$125
   10328              
   10329              $C$DW$T$125     .dwtag  DW_TAG_enumeration_type
   10330                      .dwattr $C$DW$T$125, DW_AT_byte_size(0x01)
   10331              $C$DW$858       .dwtag  DW_TAG_enumerator
   10332                      .dwattr $C$DW$858, DW_AT_name("GPIO_DIR_MODE_IN")
TMS320C2000 Assembler PC v22.6.0 Mon Sep  2 11:55:45 2024

Copyright (c) 1996-2018 Texas Instruments Incorporated
clllc_hal.asm                                                        PAGE  208

   10333                      .dwattr $C$DW$858, DW_AT_const_value(0x00)
   10334                      .dwattr $C$DW$858, DW_AT_decl_file("C:/Users/ZXC/Documents/mcu project/ti-project/clllc_nonpowerSUITE
   10335                      .dwattr $C$DW$858, DW_AT_decl_line(0x7c)
   10336                      .dwattr $C$DW$858, DW_AT_decl_column(0x05)
   10337              
   10338              $C$DW$859       .dwtag  DW_TAG_enumerator
   10339                      .dwattr $C$DW$859, DW_AT_name("GPIO_DIR_MODE_OUT")
   10340                      .dwattr $C$DW$859, DW_AT_const_value(0x01)
   10341                      .dwattr $C$DW$859, DW_AT_decl_file("C:/Users/ZXC/Documents/mcu project/ti-project/clllc_nonpowerSUITE
   10342                      .dwattr $C$DW$859, DW_AT_decl_line(0x7d)
   10343                      .dwattr $C$DW$859, DW_AT_decl_column(0x05)
   10344              
   10345                      .dwattr $C$DW$T$125, DW_AT_decl_file("C:/Users/ZXC/Documents/mcu project/ti-project/clllc_nonpowerSUI
   10346                      .dwattr $C$DW$T$125, DW_AT_decl_line(0x7b)
   10347                      .dwattr $C$DW$T$125, DW_AT_decl_column(0x01)
   10348                      .dwendtag $C$DW$T$125
   10349              
   10350                      .dwendtag $C$DW$TU$125
   10351              
   10352              
   10353              $C$DW$TU$126    .dwtag  DW_TAG_type_unit
   10354                      .dwmtype  $C$DW$T$126
   10355              $C$DW$T$126     .dwtag  DW_TAG_typedef
   10356                      .dwattr $C$DW$T$126, DW_AT_name("GPIO_Direction")
   10357                      .dwattr $C$DW$T$126, DW_AT_type(*$C$DW$T$125)
   10358                      .dwattr $C$DW$T$126, DW_AT_decl_file("C:/Users/ZXC/Documents/mcu project/ti-project/clllc_nonpowerSUI
   10359                      .dwattr $C$DW$T$126, DW_AT_decl_line(0x7e)
   10360                      .dwattr $C$DW$T$126, DW_AT_decl_column(0x03)
   10361              
   10362                      .dwendtag $C$DW$TU$126
   10363              
   10364              
   10365              $C$DW$TU$127    .dwtag  DW_TAG_type_unit
   10366                      .dwmtype  $C$DW$T$127
   10367              
   10368              $C$DW$T$127     .dwtag  DW_TAG_enumeration_type
   10369                      .dwattr $C$DW$T$127, DW_AT_byte_size(0x01)
   10370              $C$DW$860       .dwtag  DW_TAG_enumerator
   10371                      .dwattr $C$DW$860, DW_AT_name("GPIO_QUAL_SYNC")
   10372                      .dwattr $C$DW$860, DW_AT_const_value(0x00)
   10373                      .dwattr $C$DW$860, DW_AT_decl_file("C:/Users/ZXC/Documents/mcu project/ti-project/clllc_nonpowerSUITE
   10374                      .dwattr $C$DW$860, DW_AT_decl_line(0x95)
   10375                      .dwattr $C$DW$860, DW_AT_decl_column(0x05)
   10376              
   10377              $C$DW$861       .dwtag  DW_TAG_enumerator
   10378                      .dwattr $C$DW$861, DW_AT_name("GPIO_QUAL_3SAMPLE")
   10379                      .dwattr $C$DW$861, DW_AT_const_value(0x01)
   10380                      .dwattr $C$DW$861, DW_AT_decl_file("C:/Users/ZXC/Documents/mcu project/ti-project/clllc_nonpowerSUITE
   10381                      .dwattr $C$DW$861, DW_AT_decl_line(0x96)
   10382                      .dwattr $C$DW$861, DW_AT_decl_column(0x05)
   10383              
   10384              $C$DW$862       .dwtag  DW_TAG_enumerator
   10385                      .dwattr $C$DW$862, DW_AT_name("GPIO_QUAL_6SAMPLE")
   10386                      .dwattr $C$DW$862, DW_AT_const_value(0x02)
   10387                      .dwattr $C$DW$862, DW_AT_decl_file("C:/Users/ZXC/Documents/mcu project/ti-project/clllc_nonpowerSUITE
TMS320C2000 Assembler PC v22.6.0 Mon Sep  2 11:55:45 2024

Copyright (c) 1996-2018 Texas Instruments Incorporated
clllc_hal.asm                                                        PAGE  209

   10388                      .dwattr $C$DW$862, DW_AT_decl_line(0x97)
   10389                      .dwattr $C$DW$862, DW_AT_decl_column(0x05)
   10390              
   10391              $C$DW$863       .dwtag  DW_TAG_enumerator
   10392                      .dwattr $C$DW$863, DW_AT_name("GPIO_QUAL_ASYNC")
   10393                      .dwattr $C$DW$863, DW_AT_const_value(0x03)
   10394                      .dwattr $C$DW$863, DW_AT_decl_file("C:/Users/ZXC/Documents/mcu project/ti-project/clllc_nonpowerSUITE
   10395                      .dwattr $C$DW$863, DW_AT_decl_line(0x98)
   10396                      .dwattr $C$DW$863, DW_AT_decl_column(0x05)
   10397              
   10398                      .dwattr $C$DW$T$127, DW_AT_decl_file("C:/Users/ZXC/Documents/mcu project/ti-project/clllc_nonpowerSUI
   10399                      .dwattr $C$DW$T$127, DW_AT_decl_line(0x94)
   10400                      .dwattr $C$DW$T$127, DW_AT_decl_column(0x01)
   10401                      .dwendtag $C$DW$T$127
   10402              
   10403                      .dwendtag $C$DW$TU$127
   10404              
   10405              
   10406              $C$DW$TU$128    .dwtag  DW_TAG_type_unit
   10407                      .dwmtype  $C$DW$T$128
   10408              $C$DW$T$128     .dwtag  DW_TAG_typedef
   10409                      .dwattr $C$DW$T$128, DW_AT_name("GPIO_QualificationMode")
   10410                      .dwattr $C$DW$T$128, DW_AT_type(*$C$DW$T$127)
   10411                      .dwattr $C$DW$T$128, DW_AT_decl_file("C:/Users/ZXC/Documents/mcu project/ti-project/clllc_nonpowerSUI
   10412                      .dwattr $C$DW$T$128, DW_AT_decl_line(0x99)
   10413                      .dwattr $C$DW$T$128, DW_AT_decl_column(0x03)
   10414              
   10415                      .dwendtag $C$DW$TU$128
   10416              
   10417              
   10418              $C$DW$TU$129    .dwtag  DW_TAG_type_unit
   10419                      .dwmtype  $C$DW$T$129
   10420              
   10421              $C$DW$T$129     .dwtag  DW_TAG_enumeration_type
   10422                      .dwattr $C$DW$T$129, DW_AT_byte_size(0x01)
   10423              $C$DW$864       .dwtag  DW_TAG_enumerator
   10424                      .dwattr $C$DW$864, DW_AT_name("HRPWM_CHANNEL_A")
   10425                      .dwattr $C$DW$864, DW_AT_const_value(0x00)
   10426                      .dwattr $C$DW$864, DW_AT_decl_file("C:/Users/ZXC/Documents/mcu project/ti-project/clllc_nonpowerSUITE
   10427                      .dwattr $C$DW$864, DW_AT_decl_line(0x51)
   10428                      .dwattr $C$DW$864, DW_AT_decl_column(0x05)
   10429              
   10430              $C$DW$865       .dwtag  DW_TAG_enumerator
   10431                      .dwattr $C$DW$865, DW_AT_name("HRPWM_CHANNEL_B")
   10432                      .dwattr $C$DW$865, DW_AT_const_value(0x08)
   10433                      .dwattr $C$DW$865, DW_AT_decl_file("C:/Users/ZXC/Documents/mcu project/ti-project/clllc_nonpowerSUITE
   10434                      .dwattr $C$DW$865, DW_AT_decl_line(0x52)
   10435                      .dwattr $C$DW$865, DW_AT_decl_column(0x05)
   10436              
   10437                      .dwattr $C$DW$T$129, DW_AT_decl_file("C:/Users/ZXC/Documents/mcu project/ti-project/clllc_nonpowerSUI
   10438                      .dwattr $C$DW$T$129, DW_AT_decl_line(0x50)
   10439                      .dwattr $C$DW$T$129, DW_AT_decl_column(0x01)
   10440                      .dwendtag $C$DW$T$129
   10441              
   10442                      .dwendtag $C$DW$TU$129
TMS320C2000 Assembler PC v22.6.0 Mon Sep  2 11:55:45 2024

Copyright (c) 1996-2018 Texas Instruments Incorporated
clllc_hal.asm                                                        PAGE  210

   10443              
   10444              
   10445              $C$DW$TU$130    .dwtag  DW_TAG_type_unit
   10446                      .dwmtype  $C$DW$T$130
   10447              $C$DW$T$130     .dwtag  DW_TAG_typedef
   10448                      .dwattr $C$DW$T$130, DW_AT_name("HRPWM_Channel")
   10449                      .dwattr $C$DW$T$130, DW_AT_type(*$C$DW$T$129)
   10450                      .dwattr $C$DW$T$130, DW_AT_decl_file("C:/Users/ZXC/Documents/mcu project/ti-project/clllc_nonpowerSUI
   10451                      .dwattr $C$DW$T$130, DW_AT_decl_line(0x53)
   10452                      .dwattr $C$DW$T$130, DW_AT_decl_column(0x03)
   10453              
   10454                      .dwendtag $C$DW$TU$130
   10455              
   10456              
   10457              $C$DW$TU$131    .dwtag  DW_TAG_type_unit
   10458                      .dwmtype  $C$DW$T$131
   10459              
   10460              $C$DW$T$131     .dwtag  DW_TAG_enumeration_type
   10461                      .dwattr $C$DW$T$131, DW_AT_byte_size(0x01)
   10462              $C$DW$866       .dwtag  DW_TAG_enumerator
   10463                      .dwattr $C$DW$866, DW_AT_name("HRPWM_MEP_CTRL_DISABLE")
   10464                      .dwattr $C$DW$866, DW_AT_const_value(0x00)
   10465                      .dwattr $C$DW$866, DW_AT_decl_file("C:/Users/ZXC/Documents/mcu project/ti-project/clllc_nonpowerSUITE
   10466                      .dwattr $C$DW$866, DW_AT_decl_line(0x5e)
   10467                      .dwattr $C$DW$866, DW_AT_decl_column(0x05)
   10468              
   10469              $C$DW$867       .dwtag  DW_TAG_enumerator
   10470                      .dwattr $C$DW$867, DW_AT_name("HRPWM_MEP_CTRL_RISING_EDGE")
   10471                      .dwattr $C$DW$867, DW_AT_const_value(0x01)
   10472                      .dwattr $C$DW$867, DW_AT_decl_file("C:/Users/ZXC/Documents/mcu project/ti-project/clllc_nonpowerSUITE
   10473                      .dwattr $C$DW$867, DW_AT_decl_line(0x60)
   10474                      .dwattr $C$DW$867, DW_AT_decl_column(0x05)
   10475              
   10476              $C$DW$868       .dwtag  DW_TAG_enumerator
   10477                      .dwattr $C$DW$868, DW_AT_name("HRPWM_MEP_CTRL_FALLING_EDGE")
   10478                      .dwattr $C$DW$868, DW_AT_const_value(0x02)
   10479                      .dwattr $C$DW$868, DW_AT_decl_file("C:/Users/ZXC/Documents/mcu project/ti-project/clllc_nonpowerSUITE
   10480                      .dwattr $C$DW$868, DW_AT_decl_line(0x62)
   10481                      .dwattr $C$DW$868, DW_AT_decl_column(0x05)
   10482              
   10483              $C$DW$869       .dwtag  DW_TAG_enumerator
   10484                      .dwattr $C$DW$869, DW_AT_name("HRPWM_MEP_CTRL_RISING_AND_FALLING_EDGE")
   10485                      .dwattr $C$DW$869, DW_AT_const_value(0x03)
   10486                      .dwattr $C$DW$869, DW_AT_decl_file("C:/Users/ZXC/Documents/mcu project/ti-project/clllc_nonpowerSUITE
   10487                      .dwattr $C$DW$869, DW_AT_decl_line(0x64)
   10488                      .dwattr $C$DW$869, DW_AT_decl_column(0x05)
   10489              
   10490                      .dwattr $C$DW$T$131, DW_AT_decl_file("C:/Users/ZXC/Documents/mcu project/ti-project/clllc_nonpowerSUI
   10491                      .dwattr $C$DW$T$131, DW_AT_decl_line(0x5c)
   10492                      .dwattr $C$DW$T$131, DW_AT_decl_column(0x01)
   10493                      .dwendtag $C$DW$T$131
   10494              
   10495                      .dwendtag $C$DW$TU$131
   10496              
   10497              
TMS320C2000 Assembler PC v22.6.0 Mon Sep  2 11:55:45 2024

Copyright (c) 1996-2018 Texas Instruments Incorporated
clllc_hal.asm                                                        PAGE  211

   10498              $C$DW$TU$132    .dwtag  DW_TAG_type_unit
   10499                      .dwmtype  $C$DW$T$132
   10500              $C$DW$T$132     .dwtag  DW_TAG_typedef
   10501                      .dwattr $C$DW$T$132, DW_AT_name("HRPWM_MEPEdgeMode")
   10502                      .dwattr $C$DW$T$132, DW_AT_type(*$C$DW$T$131)
   10503                      .dwattr $C$DW$T$132, DW_AT_decl_file("C:/Users/ZXC/Documents/mcu project/ti-project/clllc_nonpowerSUI
   10504                      .dwattr $C$DW$T$132, DW_AT_decl_line(0x65)
   10505                      .dwattr $C$DW$T$132, DW_AT_decl_column(0x03)
   10506              
   10507                      .dwendtag $C$DW$TU$132
   10508              
   10509              
   10510              $C$DW$TU$133    .dwtag  DW_TAG_type_unit
   10511                      .dwmtype  $C$DW$T$133
   10512              
   10513              $C$DW$T$133     .dwtag  DW_TAG_enumeration_type
   10514                      .dwattr $C$DW$T$133, DW_AT_byte_size(0x01)
   10515              $C$DW$870       .dwtag  DW_TAG_enumerator
   10516                      .dwattr $C$DW$870, DW_AT_name("HRPWM_MEP_DUTY_PERIOD_CTRL")
   10517                      .dwattr $C$DW$870, DW_AT_const_value(0x00)
   10518                      .dwattr $C$DW$870, DW_AT_decl_file("C:/Users/ZXC/Documents/mcu project/ti-project/clllc_nonpowerSUITE
   10519                      .dwattr $C$DW$870, DW_AT_decl_line(0x70)
   10520                      .dwattr $C$DW$870, DW_AT_decl_column(0x05)
   10521              
   10522              $C$DW$871       .dwtag  DW_TAG_enumerator
   10523                      .dwattr $C$DW$871, DW_AT_name("HRPWM_MEP_PHASE_CTRL")
   10524                      .dwattr $C$DW$871, DW_AT_const_value(0x01)
   10525                      .dwattr $C$DW$871, DW_AT_decl_file("C:/Users/ZXC/Documents/mcu project/ti-project/clllc_nonpowerSUITE
   10526                      .dwattr $C$DW$871, DW_AT_decl_line(0x72)
   10527                      .dwattr $C$DW$871, DW_AT_decl_column(0x05)
   10528              
   10529                      .dwattr $C$DW$T$133, DW_AT_decl_file("C:/Users/ZXC/Documents/mcu project/ti-project/clllc_nonpowerSUI
   10530                      .dwattr $C$DW$T$133, DW_AT_decl_line(0x6e)
   10531                      .dwattr $C$DW$T$133, DW_AT_decl_column(0x01)
   10532                      .dwendtag $C$DW$T$133
   10533              
   10534                      .dwendtag $C$DW$TU$133
   10535              
   10536              
   10537              $C$DW$TU$134    .dwtag  DW_TAG_type_unit
   10538                      .dwmtype  $C$DW$T$134
   10539              $C$DW$T$134     .dwtag  DW_TAG_typedef
   10540                      .dwattr $C$DW$T$134, DW_AT_name("HRPWM_MEPCtrlMode")
   10541                      .dwattr $C$DW$T$134, DW_AT_type(*$C$DW$T$133)
   10542                      .dwattr $C$DW$T$134, DW_AT_decl_file("C:/Users/ZXC/Documents/mcu project/ti-project/clllc_nonpowerSUI
   10543                      .dwattr $C$DW$T$134, DW_AT_decl_line(0x73)
   10544                      .dwattr $C$DW$T$134, DW_AT_decl_column(0x03)
   10545              
   10546                      .dwendtag $C$DW$TU$134
   10547              
   10548              
   10549              $C$DW$TU$135    .dwtag  DW_TAG_type_unit
   10550                      .dwmtype  $C$DW$T$135
   10551              
   10552              $C$DW$T$135     .dwtag  DW_TAG_enumeration_type
TMS320C2000 Assembler PC v22.6.0 Mon Sep  2 11:55:45 2024

Copyright (c) 1996-2018 Texas Instruments Incorporated
clllc_hal.asm                                                        PAGE  212

   10553                      .dwattr $C$DW$T$135, DW_AT_byte_size(0x01)
   10554              $C$DW$872       .dwtag  DW_TAG_enumerator
   10555                      .dwattr $C$DW$872, DW_AT_name("HRPWM_LOAD_ON_CNTR_ZERO")
   10556                      .dwattr $C$DW$872, DW_AT_const_value(0x00)
   10557                      .dwattr $C$DW$872, DW_AT_decl_file("C:/Users/ZXC/Documents/mcu project/ti-project/clllc_nonpowerSUITE
   10558                      .dwattr $C$DW$872, DW_AT_decl_line(0x7f)
   10559                      .dwattr $C$DW$872, DW_AT_decl_column(0x05)
   10560              
   10561              $C$DW$873       .dwtag  DW_TAG_enumerator
   10562                      .dwattr $C$DW$873, DW_AT_name("HRPWM_LOAD_ON_CNTR_PERIOD")
   10563                      .dwattr $C$DW$873, DW_AT_const_value(0x01)
   10564                      .dwattr $C$DW$873, DW_AT_decl_file("C:/Users/ZXC/Documents/mcu project/ti-project/clllc_nonpowerSUITE
   10565                      .dwattr $C$DW$873, DW_AT_decl_line(0x81)
   10566                      .dwattr $C$DW$873, DW_AT_decl_column(0x05)
   10567              
   10568              $C$DW$874       .dwtag  DW_TAG_enumerator
   10569                      .dwattr $C$DW$874, DW_AT_name("HRPWM_LOAD_ON_CNTR_ZERO_PERIOD")
   10570                      .dwattr $C$DW$874, DW_AT_const_value(0x02)
   10571                      .dwattr $C$DW$874, DW_AT_decl_file("C:/Users/ZXC/Documents/mcu project/ti-project/clllc_nonpowerSUITE
   10572                      .dwattr $C$DW$874, DW_AT_decl_line(0x83)
   10573                      .dwattr $C$DW$874, DW_AT_decl_column(0x05)
   10574              
   10575                      .dwattr $C$DW$T$135, DW_AT_decl_file("C:/Users/ZXC/Documents/mcu project/ti-project/clllc_nonpowerSUI
   10576                      .dwattr $C$DW$T$135, DW_AT_decl_line(0x7d)
   10577                      .dwattr $C$DW$T$135, DW_AT_decl_column(0x01)
   10578                      .dwendtag $C$DW$T$135
   10579              
   10580                      .dwendtag $C$DW$TU$135
   10581              
   10582              
   10583              $C$DW$TU$136    .dwtag  DW_TAG_type_unit
   10584                      .dwmtype  $C$DW$T$136
   10585              $C$DW$T$136     .dwtag  DW_TAG_typedef
   10586                      .dwattr $C$DW$T$136, DW_AT_name("HRPWM_LoadMode")
   10587                      .dwattr $C$DW$T$136, DW_AT_type(*$C$DW$T$135)
   10588                      .dwattr $C$DW$T$136, DW_AT_decl_file("C:/Users/ZXC/Documents/mcu project/ti-project/clllc_nonpowerSUI
   10589                      .dwattr $C$DW$T$136, DW_AT_decl_line(0x84)
   10590                      .dwattr $C$DW$T$136, DW_AT_decl_column(0x03)
   10591              
   10592                      .dwendtag $C$DW$TU$136
   10593              
   10594              
   10595              $C$DW$TU$137    .dwtag  DW_TAG_type_unit
   10596                      .dwmtype  $C$DW$T$137
   10597              
   10598              $C$DW$T$137     .dwtag  DW_TAG_enumeration_type
   10599                      .dwattr $C$DW$T$137, DW_AT_byte_size(0x01)
   10600              $C$DW$875       .dwtag  DW_TAG_enumerator
   10601                      .dwattr $C$DW$875, DW_AT_name("HRPWM_DB_MEP_CTRL_DISABLE")
   10602                      .dwattr $C$DW$875, DW_AT_const_value(0x00)
   10603                      .dwattr $C$DW$875, DW_AT_decl_file("C:/Users/ZXC/Documents/mcu project/ti-project/clllc_nonpowerSUITE
   10604                      .dwattr $C$DW$875, DW_AT_decl_line(0xbe)
   10605                      .dwattr $C$DW$875, DW_AT_decl_column(0x05)
   10606              
   10607              $C$DW$876       .dwtag  DW_TAG_enumerator
TMS320C2000 Assembler PC v22.6.0 Mon Sep  2 11:55:45 2024

Copyright (c) 1996-2018 Texas Instruments Incorporated
clllc_hal.asm                                                        PAGE  213

   10608                      .dwattr $C$DW$876, DW_AT_name("HRPWM_DB_MEP_CTRL_RED")
   10609                      .dwattr $C$DW$876, DW_AT_const_value(0x01)
   10610                      .dwattr $C$DW$876, DW_AT_decl_file("C:/Users/ZXC/Documents/mcu project/ti-project/clllc_nonpowerSUITE
   10611                      .dwattr $C$DW$876, DW_AT_decl_line(0xc0)
   10612                      .dwattr $C$DW$876, DW_AT_decl_column(0x05)
   10613              
   10614              $C$DW$877       .dwtag  DW_TAG_enumerator
   10615                      .dwattr $C$DW$877, DW_AT_name("HRPWM_DB_MEP_CTRL_FED")
   10616                      .dwattr $C$DW$877, DW_AT_const_value(0x02)
   10617                      .dwattr $C$DW$877, DW_AT_decl_file("C:/Users/ZXC/Documents/mcu project/ti-project/clllc_nonpowerSUITE
   10618                      .dwattr $C$DW$877, DW_AT_decl_line(0xc2)
   10619                      .dwattr $C$DW$877, DW_AT_decl_column(0x05)
   10620              
   10621              $C$DW$878       .dwtag  DW_TAG_enumerator
   10622                      .dwattr $C$DW$878, DW_AT_name("HRPWM_DB_MEP_CTRL_RED_FED")
   10623                      .dwattr $C$DW$878, DW_AT_const_value(0x03)
   10624                      .dwattr $C$DW$878, DW_AT_decl_file("C:/Users/ZXC/Documents/mcu project/ti-project/clllc_nonpowerSUITE
   10625                      .dwattr $C$DW$878, DW_AT_decl_line(0xc4)
   10626                      .dwattr $C$DW$878, DW_AT_decl_column(0x05)
   10627              
   10628                      .dwattr $C$DW$T$137, DW_AT_decl_file("C:/Users/ZXC/Documents/mcu project/ti-project/clllc_nonpowerSUI
   10629                      .dwattr $C$DW$T$137, DW_AT_decl_line(0xbc)
   10630                      .dwattr $C$DW$T$137, DW_AT_decl_column(0x01)
   10631                      .dwendtag $C$DW$T$137
   10632              
   10633                      .dwendtag $C$DW$TU$137
   10634              
   10635              
   10636              $C$DW$TU$138    .dwtag  DW_TAG_type_unit
   10637                      .dwmtype  $C$DW$T$138
   10638              $C$DW$T$138     .dwtag  DW_TAG_typedef
   10639                      .dwattr $C$DW$T$138, DW_AT_name("HRPWM_MEPDeadBandEdgeMode")
   10640                      .dwattr $C$DW$T$138, DW_AT_type(*$C$DW$T$137)
   10641                      .dwattr $C$DW$T$138, DW_AT_decl_file("C:/Users/ZXC/Documents/mcu project/ti-project/clllc_nonpowerSUI
   10642                      .dwattr $C$DW$T$138, DW_AT_decl_line(0xc5)
   10643                      .dwattr $C$DW$T$138, DW_AT_decl_column(0x03)
   10644              
   10645                      .dwendtag $C$DW$TU$138
   10646              
   10647              
   10648              $C$DW$TU$139    .dwtag  DW_TAG_type_unit
   10649                      .dwmtype  $C$DW$T$139
   10650              
   10651              $C$DW$T$139     .dwtag  DW_TAG_enumeration_type
   10652                      .dwattr $C$DW$T$139, DW_AT_byte_size(0x01)
   10653              $C$DW$879       .dwtag  DW_TAG_enumerator
   10654                      .dwattr $C$DW$879, DW_AT_name("SCI_FIFO_TX0")
   10655                      .dwattr $C$DW$879, DW_AT_const_value(0x00)
   10656                      .dwattr $C$DW$879, DW_AT_decl_file("C:/Users/ZXC/Documents/mcu project/ti-project/clllc_nonpowerSUITE
   10657                      .dwattr $C$DW$879, DW_AT_decl_line(0x82)
   10658                      .dwattr $C$DW$879, DW_AT_decl_column(0x05)
   10659              
   10660              $C$DW$880       .dwtag  DW_TAG_enumerator
   10661                      .dwattr $C$DW$880, DW_AT_name("SCI_FIFO_TX1")
   10662                      .dwattr $C$DW$880, DW_AT_const_value(0x01)
TMS320C2000 Assembler PC v22.6.0 Mon Sep  2 11:55:45 2024

Copyright (c) 1996-2018 Texas Instruments Incorporated
clllc_hal.asm                                                        PAGE  214

   10663                      .dwattr $C$DW$880, DW_AT_decl_file("C:/Users/ZXC/Documents/mcu project/ti-project/clllc_nonpowerSUITE
   10664                      .dwattr $C$DW$880, DW_AT_decl_line(0x83)
   10665                      .dwattr $C$DW$880, DW_AT_decl_column(0x05)
   10666              
   10667              $C$DW$881       .dwtag  DW_TAG_enumerator
   10668                      .dwattr $C$DW$881, DW_AT_name("SCI_FIFO_TX2")
   10669                      .dwattr $C$DW$881, DW_AT_const_value(0x02)
   10670                      .dwattr $C$DW$881, DW_AT_decl_file("C:/Users/ZXC/Documents/mcu project/ti-project/clllc_nonpowerSUITE
   10671                      .dwattr $C$DW$881, DW_AT_decl_line(0x84)
   10672                      .dwattr $C$DW$881, DW_AT_decl_column(0x05)
   10673              
   10674              $C$DW$882       .dwtag  DW_TAG_enumerator
   10675                      .dwattr $C$DW$882, DW_AT_name("SCI_FIFO_TX3")
   10676                      .dwattr $C$DW$882, DW_AT_const_value(0x03)
   10677                      .dwattr $C$DW$882, DW_AT_decl_file("C:/Users/ZXC/Documents/mcu project/ti-project/clllc_nonpowerSUITE
   10678                      .dwattr $C$DW$882, DW_AT_decl_line(0x85)
   10679                      .dwattr $C$DW$882, DW_AT_decl_column(0x05)
   10680              
   10681              $C$DW$883       .dwtag  DW_TAG_enumerator
   10682                      .dwattr $C$DW$883, DW_AT_name("SCI_FIFO_TX4")
   10683                      .dwattr $C$DW$883, DW_AT_const_value(0x04)
   10684                      .dwattr $C$DW$883, DW_AT_decl_file("C:/Users/ZXC/Documents/mcu project/ti-project/clllc_nonpowerSUITE
   10685                      .dwattr $C$DW$883, DW_AT_decl_line(0x86)
   10686                      .dwattr $C$DW$883, DW_AT_decl_column(0x05)
   10687              
   10688              $C$DW$884       .dwtag  DW_TAG_enumerator
   10689                      .dwattr $C$DW$884, DW_AT_name("SCI_FIFO_TX5")
   10690                      .dwattr $C$DW$884, DW_AT_const_value(0x05)
   10691                      .dwattr $C$DW$884, DW_AT_decl_file("C:/Users/ZXC/Documents/mcu project/ti-project/clllc_nonpowerSUITE
   10692                      .dwattr $C$DW$884, DW_AT_decl_line(0x87)
   10693                      .dwattr $C$DW$884, DW_AT_decl_column(0x05)
   10694              
   10695              $C$DW$885       .dwtag  DW_TAG_enumerator
   10696                      .dwattr $C$DW$885, DW_AT_name("SCI_FIFO_TX6")
   10697                      .dwattr $C$DW$885, DW_AT_const_value(0x06)
   10698                      .dwattr $C$DW$885, DW_AT_decl_file("C:/Users/ZXC/Documents/mcu project/ti-project/clllc_nonpowerSUITE
   10699                      .dwattr $C$DW$885, DW_AT_decl_line(0x88)
   10700                      .dwattr $C$DW$885, DW_AT_decl_column(0x05)
   10701              
   10702              $C$DW$886       .dwtag  DW_TAG_enumerator
   10703                      .dwattr $C$DW$886, DW_AT_name("SCI_FIFO_TX7")
   10704                      .dwattr $C$DW$886, DW_AT_const_value(0x07)
   10705                      .dwattr $C$DW$886, DW_AT_decl_file("C:/Users/ZXC/Documents/mcu project/ti-project/clllc_nonpowerSUITE
   10706                      .dwattr $C$DW$886, DW_AT_decl_line(0x89)
   10707                      .dwattr $C$DW$886, DW_AT_decl_column(0x05)
   10708              
   10709              $C$DW$887       .dwtag  DW_TAG_enumerator
   10710                      .dwattr $C$DW$887, DW_AT_name("SCI_FIFO_TX8")
   10711                      .dwattr $C$DW$887, DW_AT_const_value(0x08)
   10712                      .dwattr $C$DW$887, DW_AT_decl_file("C:/Users/ZXC/Documents/mcu project/ti-project/clllc_nonpowerSUITE
   10713                      .dwattr $C$DW$887, DW_AT_decl_line(0x8a)
   10714                      .dwattr $C$DW$887, DW_AT_decl_column(0x05)
   10715              
   10716              $C$DW$888       .dwtag  DW_TAG_enumerator
   10717                      .dwattr $C$DW$888, DW_AT_name("SCI_FIFO_TX9")
TMS320C2000 Assembler PC v22.6.0 Mon Sep  2 11:55:45 2024

Copyright (c) 1996-2018 Texas Instruments Incorporated
clllc_hal.asm                                                        PAGE  215

   10718                      .dwattr $C$DW$888, DW_AT_const_value(0x09)
   10719                      .dwattr $C$DW$888, DW_AT_decl_file("C:/Users/ZXC/Documents/mcu project/ti-project/clllc_nonpowerSUITE
   10720                      .dwattr $C$DW$888, DW_AT_decl_line(0x8b)
   10721                      .dwattr $C$DW$888, DW_AT_decl_column(0x05)
   10722              
   10723              $C$DW$889       .dwtag  DW_TAG_enumerator
   10724                      .dwattr $C$DW$889, DW_AT_name("SCI_FIFO_TX10")
   10725                      .dwattr $C$DW$889, DW_AT_const_value(0x0a)
   10726                      .dwattr $C$DW$889, DW_AT_decl_file("C:/Users/ZXC/Documents/mcu project/ti-project/clllc_nonpowerSUITE
   10727                      .dwattr $C$DW$889, DW_AT_decl_line(0x8c)
   10728                      .dwattr $C$DW$889, DW_AT_decl_column(0x05)
   10729              
   10730              $C$DW$890       .dwtag  DW_TAG_enumerator
   10731                      .dwattr $C$DW$890, DW_AT_name("SCI_FIFO_TX11")
   10732                      .dwattr $C$DW$890, DW_AT_const_value(0x0b)
   10733                      .dwattr $C$DW$890, DW_AT_decl_file("C:/Users/ZXC/Documents/mcu project/ti-project/clllc_nonpowerSUITE
   10734                      .dwattr $C$DW$890, DW_AT_decl_line(0x8d)
   10735                      .dwattr $C$DW$890, DW_AT_decl_column(0x05)
   10736              
   10737              $C$DW$891       .dwtag  DW_TAG_enumerator
   10738                      .dwattr $C$DW$891, DW_AT_name("SCI_FIFO_TX12")
   10739                      .dwattr $C$DW$891, DW_AT_const_value(0x0c)
   10740                      .dwattr $C$DW$891, DW_AT_decl_file("C:/Users/ZXC/Documents/mcu project/ti-project/clllc_nonpowerSUITE
   10741                      .dwattr $C$DW$891, DW_AT_decl_line(0x8e)
   10742                      .dwattr $C$DW$891, DW_AT_decl_column(0x05)
   10743              
   10744              $C$DW$892       .dwtag  DW_TAG_enumerator
   10745                      .dwattr $C$DW$892, DW_AT_name("SCI_FIFO_TX13")
   10746                      .dwattr $C$DW$892, DW_AT_const_value(0x0d)
   10747                      .dwattr $C$DW$892, DW_AT_decl_file("C:/Users/ZXC/Documents/mcu project/ti-project/clllc_nonpowerSUITE
   10748                      .dwattr $C$DW$892, DW_AT_decl_line(0x8f)
   10749                      .dwattr $C$DW$892, DW_AT_decl_column(0x05)
   10750              
   10751              $C$DW$893       .dwtag  DW_TAG_enumerator
   10752                      .dwattr $C$DW$893, DW_AT_name("SCI_FIFO_TX14")
   10753                      .dwattr $C$DW$893, DW_AT_const_value(0x0e)
   10754                      .dwattr $C$DW$893, DW_AT_decl_file("C:/Users/ZXC/Documents/mcu project/ti-project/clllc_nonpowerSUITE
   10755                      .dwattr $C$DW$893, DW_AT_decl_line(0x90)
   10756                      .dwattr $C$DW$893, DW_AT_decl_column(0x05)
   10757              
   10758              $C$DW$894       .dwtag  DW_TAG_enumerator
   10759                      .dwattr $C$DW$894, DW_AT_name("SCI_FIFO_TX15")
   10760                      .dwattr $C$DW$894, DW_AT_const_value(0x0f)
   10761                      .dwattr $C$DW$894, DW_AT_decl_file("C:/Users/ZXC/Documents/mcu project/ti-project/clllc_nonpowerSUITE
   10762                      .dwattr $C$DW$894, DW_AT_decl_line(0x91)
   10763                      .dwattr $C$DW$894, DW_AT_decl_column(0x05)
   10764              
   10765              $C$DW$895       .dwtag  DW_TAG_enumerator
   10766                      .dwattr $C$DW$895, DW_AT_name("SCI_FIFO_TX16")
   10767                      .dwattr $C$DW$895, DW_AT_const_value(0x10)
   10768                      .dwattr $C$DW$895, DW_AT_decl_file("C:/Users/ZXC/Documents/mcu project/ti-project/clllc_nonpowerSUITE
   10769                      .dwattr $C$DW$895, DW_AT_decl_line(0x92)
   10770                      .dwattr $C$DW$895, DW_AT_decl_column(0x05)
   10771              
   10772                      .dwattr $C$DW$T$139, DW_AT_decl_file("C:/Users/ZXC/Documents/mcu project/ti-project/clllc_nonpowerSUI
TMS320C2000 Assembler PC v22.6.0 Mon Sep  2 11:55:45 2024

Copyright (c) 1996-2018 Texas Instruments Incorporated
clllc_hal.asm                                                        PAGE  216

   10773                      .dwattr $C$DW$T$139, DW_AT_decl_line(0x81)
   10774                      .dwattr $C$DW$T$139, DW_AT_decl_column(0x01)
   10775                      .dwendtag $C$DW$T$139
   10776              
   10777                      .dwendtag $C$DW$TU$139
   10778              
   10779              
   10780              $C$DW$TU$140    .dwtag  DW_TAG_type_unit
   10781                      .dwmtype  $C$DW$T$140
   10782              $C$DW$T$140     .dwtag  DW_TAG_typedef
   10783                      .dwattr $C$DW$T$140, DW_AT_name("SCI_TxFIFOLevel")
   10784                      .dwattr $C$DW$T$140, DW_AT_type(*$C$DW$T$139)
   10785                      .dwattr $C$DW$T$140, DW_AT_decl_file("C:/Users/ZXC/Documents/mcu project/ti-project/clllc_nonpowerSUI
   10786                      .dwattr $C$DW$T$140, DW_AT_decl_line(0x93)
   10787                      .dwattr $C$DW$T$140, DW_AT_decl_column(0x03)
   10788              
   10789                      .dwendtag $C$DW$TU$140
   10790              
   10791              
   10792              $C$DW$TU$144    .dwtag  DW_TAG_type_unit
   10793                      .dwmtype  $C$DW$T$144
   10794              
   10795              $C$DW$T$144     .dwtag  DW_TAG_enumeration_type
   10796                      .dwattr $C$DW$T$144, DW_AT_byte_size(0x01)
   10797              $C$DW$896       .dwtag  DW_TAG_enumerator
   10798                      .dwattr $C$DW$896, DW_AT_name("PGA_GAIN_3")
   10799                      .dwattr $C$DW$896, DW_AT_const_value(0x00)
   10800                      .dwattr $C$DW$896, DW_AT_decl_file("C:/Users/ZXC/Documents/mcu project/ti-project/clllc_nonpowerSUITE
   10801                      .dwattr $C$DW$896, DW_AT_decl_line(0x4d)
   10802                      .dwattr $C$DW$896, DW_AT_decl_column(0x05)
   10803              
   10804              $C$DW$897       .dwtag  DW_TAG_enumerator
   10805                      .dwattr $C$DW$897, DW_AT_name("PGA_GAIN_6")
   10806                      .dwattr $C$DW$897, DW_AT_const_value(0x20)
   10807                      .dwattr $C$DW$897, DW_AT_decl_file("C:/Users/ZXC/Documents/mcu project/ti-project/clllc_nonpowerSUITE
   10808                      .dwattr $C$DW$897, DW_AT_decl_line(0x4e)
   10809                      .dwattr $C$DW$897, DW_AT_decl_column(0x05)
   10810              
   10811              $C$DW$898       .dwtag  DW_TAG_enumerator
   10812                      .dwattr $C$DW$898, DW_AT_name("PGA_GAIN_12")
   10813                      .dwattr $C$DW$898, DW_AT_const_value(0x40)
   10814                      .dwattr $C$DW$898, DW_AT_decl_file("C:/Users/ZXC/Documents/mcu project/ti-project/clllc_nonpowerSUITE
   10815                      .dwattr $C$DW$898, DW_AT_decl_line(0x4f)
   10816                      .dwattr $C$DW$898, DW_AT_decl_column(0x05)
   10817              
   10818              $C$DW$899       .dwtag  DW_TAG_enumerator
   10819                      .dwattr $C$DW$899, DW_AT_name("PGA_GAIN_24")
   10820                      .dwattr $C$DW$899, DW_AT_const_value(0x60)
   10821                      .dwattr $C$DW$899, DW_AT_decl_file("C:/Users/ZXC/Documents/mcu project/ti-project/clllc_nonpowerSUITE
   10822                      .dwattr $C$DW$899, DW_AT_decl_line(0x50)
   10823                      .dwattr $C$DW$899, DW_AT_decl_column(0x05)
   10824              
   10825                      .dwattr $C$DW$T$144, DW_AT_decl_file("C:/Users/ZXC/Documents/mcu project/ti-project/clllc_nonpowerSUI
   10826                      .dwattr $C$DW$T$144, DW_AT_decl_line(0x4c)
   10827                      .dwattr $C$DW$T$144, DW_AT_decl_column(0x01)
TMS320C2000 Assembler PC v22.6.0 Mon Sep  2 11:55:45 2024

Copyright (c) 1996-2018 Texas Instruments Incorporated
clllc_hal.asm                                                        PAGE  217

   10828                      .dwendtag $C$DW$T$144
   10829              
   10830                      .dwendtag $C$DW$TU$144
   10831              
   10832              
   10833              $C$DW$TU$145    .dwtag  DW_TAG_type_unit
   10834                      .dwmtype  $C$DW$T$145
   10835              $C$DW$T$145     .dwtag  DW_TAG_typedef
   10836                      .dwattr $C$DW$T$145, DW_AT_name("PGA_GainValue")
   10837                      .dwattr $C$DW$T$145, DW_AT_type(*$C$DW$T$144)
   10838                      .dwattr $C$DW$T$145, DW_AT_decl_file("C:/Users/ZXC/Documents/mcu project/ti-project/clllc_nonpowerSUI
   10839                      .dwattr $C$DW$T$145, DW_AT_decl_line(0x51)
   10840                      .dwattr $C$DW$T$145, DW_AT_decl_column(0x02)
   10841              
   10842                      .dwendtag $C$DW$TU$145
   10843              
   10844              
   10845              $C$DW$TU$146    .dwtag  DW_TAG_type_unit
   10846                      .dwmtype  $C$DW$T$146
   10847              
   10848              $C$DW$T$146     .dwtag  DW_TAG_enumeration_type
   10849                      .dwattr $C$DW$T$146, DW_AT_byte_size(0x01)
   10850              $C$DW$900       .dwtag  DW_TAG_enumerator
   10851                      .dwattr $C$DW$900, DW_AT_name("PGA_LOW_PASS_FILTER_DISABLED")
   10852                      .dwattr $C$DW$900, DW_AT_const_value(0x00)
   10853                      .dwattr $C$DW$900, DW_AT_decl_file("C:/Users/ZXC/Documents/mcu project/ti-project/clllc_nonpowerSUITE
   10854                      .dwattr $C$DW$900, DW_AT_decl_line(0x5c)
   10855                      .dwattr $C$DW$900, DW_AT_decl_column(0x05)
   10856              
   10857              $C$DW$901       .dwtag  DW_TAG_enumerator
   10858                      .dwattr $C$DW$901, DW_AT_name("PGA_LOW_PASS_FILTER_RESISTOR_200_OHM")
   10859                      .dwattr $C$DW$901, DW_AT_const_value(0x02)
   10860                      .dwattr $C$DW$901, DW_AT_decl_file("C:/Users/ZXC/Documents/mcu project/ti-project/clllc_nonpowerSUITE
   10861                      .dwattr $C$DW$901, DW_AT_decl_line(0x5e)
   10862                      .dwattr $C$DW$901, DW_AT_decl_column(0x05)
   10863              
   10864              $C$DW$902       .dwtag  DW_TAG_enumerator
   10865                      .dwattr $C$DW$902, DW_AT_name("PGA_LOW_PASS_FILTER_RESISTOR_160_OHM")
   10866                      .dwattr $C$DW$902, DW_AT_const_value(0x04)
   10867                      .dwattr $C$DW$902, DW_AT_decl_file("C:/Users/ZXC/Documents/mcu project/ti-project/clllc_nonpowerSUITE
   10868                      .dwattr $C$DW$902, DW_AT_decl_line(0x60)
   10869                      .dwattr $C$DW$902, DW_AT_decl_column(0x05)
   10870              
   10871              $C$DW$903       .dwtag  DW_TAG_enumerator
   10872                      .dwattr $C$DW$903, DW_AT_name("PGA_LOW_PASS_FILTER_RESISTOR_130_OHM")
   10873                      .dwattr $C$DW$903, DW_AT_const_value(0x06)
   10874                      .dwattr $C$DW$903, DW_AT_decl_file("C:/Users/ZXC/Documents/mcu project/ti-project/clllc_nonpowerSUITE
   10875                      .dwattr $C$DW$903, DW_AT_decl_line(0x62)
   10876                      .dwattr $C$DW$903, DW_AT_decl_column(0x05)
   10877              
   10878              $C$DW$904       .dwtag  DW_TAG_enumerator
   10879                      .dwattr $C$DW$904, DW_AT_name("PGA_LOW_PASS_FILTER_RESISTOR_100_OHM")
   10880                      .dwattr $C$DW$904, DW_AT_const_value(0x08)
   10881                      .dwattr $C$DW$904, DW_AT_decl_file("C:/Users/ZXC/Documents/mcu project/ti-project/clllc_nonpowerSUITE
   10882                      .dwattr $C$DW$904, DW_AT_decl_line(0x64)
TMS320C2000 Assembler PC v22.6.0 Mon Sep  2 11:55:45 2024

Copyright (c) 1996-2018 Texas Instruments Incorporated
clllc_hal.asm                                                        PAGE  218

   10883                      .dwattr $C$DW$904, DW_AT_decl_column(0x05)
   10884              
   10885              $C$DW$905       .dwtag  DW_TAG_enumerator
   10886                      .dwattr $C$DW$905, DW_AT_name("PGA_LOW_PASS_FILTER_RESISTOR_80_OHM")
   10887                      .dwattr $C$DW$905, DW_AT_const_value(0x0a)
   10888                      .dwattr $C$DW$905, DW_AT_decl_file("C:/Users/ZXC/Documents/mcu project/ti-project/clllc_nonpowerSUITE
   10889                      .dwattr $C$DW$905, DW_AT_decl_line(0x66)
   10890                      .dwattr $C$DW$905, DW_AT_decl_column(0x05)
   10891              
   10892              $C$DW$906       .dwtag  DW_TAG_enumerator
   10893                      .dwattr $C$DW$906, DW_AT_name("PGA_LOW_PASS_FILTER_RESISTOR_50_OHM")
   10894                      .dwattr $C$DW$906, DW_AT_const_value(0x0c)
   10895                      .dwattr $C$DW$906, DW_AT_decl_file("C:/Users/ZXC/Documents/mcu project/ti-project/clllc_nonpowerSUITE
   10896                      .dwattr $C$DW$906, DW_AT_decl_line(0x68)
   10897                      .dwattr $C$DW$906, DW_AT_decl_column(0x05)
   10898              
   10899                      .dwattr $C$DW$T$146, DW_AT_decl_file("C:/Users/ZXC/Documents/mcu project/ti-project/clllc_nonpowerSUI
   10900                      .dwattr $C$DW$T$146, DW_AT_decl_line(0x5a)
   10901                      .dwattr $C$DW$T$146, DW_AT_decl_column(0x01)
   10902                      .dwendtag $C$DW$T$146
   10903              
   10904                      .dwendtag $C$DW$TU$146
   10905              
   10906              
   10907              $C$DW$TU$147    .dwtag  DW_TAG_type_unit
   10908                      .dwmtype  $C$DW$T$147
   10909              $C$DW$T$147     .dwtag  DW_TAG_typedef
   10910                      .dwattr $C$DW$T$147, DW_AT_name("PGA_LowPassResistorValue")
   10911                      .dwattr $C$DW$T$147, DW_AT_type(*$C$DW$T$146)
   10912                      .dwattr $C$DW$T$147, DW_AT_decl_file("C:/Users/ZXC/Documents/mcu project/ti-project/clllc_nonpowerSUI
   10913                      .dwattr $C$DW$T$147, DW_AT_decl_line(0x69)
   10914                      .dwattr $C$DW$T$147, DW_AT_decl_column(0x02)
   10915              
   10916                      .dwendtag $C$DW$TU$147
   10917              
   10918              
   10919              $C$DW$TU$2      .dwtag  DW_TAG_type_unit
   10920                      .dwmtype  $C$DW$T$2
   10921              $C$DW$T$2       .dwtag  DW_TAG_unspecified_type
   10922                      .dwattr $C$DW$T$2, DW_AT_name("void")
   10923              
   10924                      .dwendtag $C$DW$TU$2
   10925              
   10926              
   10927              $C$DW$TU$4      .dwtag  DW_TAG_type_unit
   10928                      .dwmtype  $C$DW$T$4
   10929              $C$DW$T$4       .dwtag  DW_TAG_base_type
   10930                      .dwattr $C$DW$T$4, DW_AT_encoding(DW_ATE_boolean)
   10931                      .dwattr $C$DW$T$4, DW_AT_name("bool")
   10932                      .dwattr $C$DW$T$4, DW_AT_byte_size(0x01)
   10933              
   10934                      .dwendtag $C$DW$TU$4
   10935              
   10936              
   10937              $C$DW$TU$5      .dwtag  DW_TAG_type_unit
TMS320C2000 Assembler PC v22.6.0 Mon Sep  2 11:55:45 2024

Copyright (c) 1996-2018 Texas Instruments Incorporated
clllc_hal.asm                                                        PAGE  219

   10938                      .dwmtype  $C$DW$T$5
   10939              $C$DW$T$5       .dwtag  DW_TAG_base_type
   10940                      .dwattr $C$DW$T$5, DW_AT_encoding(DW_ATE_signed_char)
   10941                      .dwattr $C$DW$T$5, DW_AT_name("signed char")
   10942                      .dwattr $C$DW$T$5, DW_AT_byte_size(0x01)
   10943              
   10944                      .dwendtag $C$DW$TU$5
   10945              
   10946              
   10947              $C$DW$TU$6      .dwtag  DW_TAG_type_unit
   10948                      .dwmtype  $C$DW$T$6
   10949              $C$DW$T$6       .dwtag  DW_TAG_base_type
   10950                      .dwattr $C$DW$T$6, DW_AT_encoding(DW_ATE_unsigned_char)
   10951                      .dwattr $C$DW$T$6, DW_AT_name("unsigned char")
   10952                      .dwattr $C$DW$T$6, DW_AT_byte_size(0x01)
   10953              
   10954                      .dwendtag $C$DW$TU$6
   10955              
   10956              
   10957              $C$DW$TU$7      .dwtag  DW_TAG_type_unit
   10958                      .dwmtype  $C$DW$T$7
   10959              $C$DW$T$7       .dwtag  DW_TAG_base_type
   10960                      .dwattr $C$DW$T$7, DW_AT_encoding(DW_ATE_signed_char)
   10961                      .dwattr $C$DW$T$7, DW_AT_name("wchar_t")
   10962                      .dwattr $C$DW$T$7, DW_AT_byte_size(0x02)
   10963              
   10964                      .dwendtag $C$DW$TU$7
   10965              
   10966              
   10967              $C$DW$TU$8      .dwtag  DW_TAG_type_unit
   10968                      .dwmtype  $C$DW$T$8
   10969              $C$DW$T$8       .dwtag  DW_TAG_base_type
   10970                      .dwattr $C$DW$T$8, DW_AT_encoding(DW_ATE_signed)
   10971                      .dwattr $C$DW$T$8, DW_AT_name("short")
   10972                      .dwattr $C$DW$T$8, DW_AT_byte_size(0x01)
   10973              
   10974                      .dwendtag $C$DW$TU$8
   10975              
   10976              
   10977              $C$DW$TU$9      .dwtag  DW_TAG_type_unit
   10978                      .dwmtype  $C$DW$T$9
   10979              $C$DW$T$9       .dwtag  DW_TAG_base_type
   10980                      .dwattr $C$DW$T$9, DW_AT_encoding(DW_ATE_unsigned)
   10981                      .dwattr $C$DW$T$9, DW_AT_name("unsigned short")
   10982                      .dwattr $C$DW$T$9, DW_AT_byte_size(0x01)
   10983              
   10984                      .dwendtag $C$DW$TU$9
   10985              
   10986              
   10987              $C$DW$TU$10     .dwtag  DW_TAG_type_unit
   10988                      .dwmtype  $C$DW$T$10
   10989              $C$DW$T$10      .dwtag  DW_TAG_base_type
   10990                      .dwattr $C$DW$T$10, DW_AT_encoding(DW_ATE_signed)
   10991                      .dwattr $C$DW$T$10, DW_AT_name("int")
   10992                      .dwattr $C$DW$T$10, DW_AT_byte_size(0x01)
TMS320C2000 Assembler PC v22.6.0 Mon Sep  2 11:55:45 2024

Copyright (c) 1996-2018 Texas Instruments Incorporated
clllc_hal.asm                                                        PAGE  220

   10993              
   10994                      .dwendtag $C$DW$TU$10
   10995              
   10996              
   10997              $C$DW$TU$232    .dwtag  DW_TAG_type_unit
   10998                      .dwmtype  $C$DW$T$232
   10999              $C$DW$T$232     .dwtag  DW_TAG_typedef
   11000                      .dwattr $C$DW$T$232, DW_AT_name("__int16_t")
   11001                      .dwattr $C$DW$T$232, DW_AT_type(*$C$DW$T$10)
   11002                      .dwattr $C$DW$T$232, DW_AT_decl_file("C:/ti/ccs1240/ccs/tools/compiler/ti-cgt-c2000_22.6.0.LTS/includ
   11003                      .dwattr $C$DW$T$232, DW_AT_decl_line(0x40)
   11004                      .dwattr $C$DW$T$232, DW_AT_decl_column(0x1d)
   11005              
   11006                      .dwendtag $C$DW$TU$232
   11007              
   11008              
   11009              $C$DW$TU$233    .dwtag  DW_TAG_type_unit
   11010                      .dwmtype  $C$DW$T$233
   11011              $C$DW$T$233     .dwtag  DW_TAG_typedef
   11012                      .dwattr $C$DW$T$233, DW_AT_name("int16_t")
   11013                      .dwattr $C$DW$T$233, DW_AT_type(*$C$DW$T$232)
   11014                      .dwattr $C$DW$T$233, DW_AT_decl_file("C:/ti/ccs1240/ccs/tools/compiler/ti-cgt-c2000_22.6.0.LTS/includ
   11015                      .dwattr $C$DW$T$233, DW_AT_decl_line(0x2b)
   11016                      .dwattr $C$DW$T$233, DW_AT_decl_column(0x14)
   11017              
   11018                      .dwendtag $C$DW$TU$233
   11019              
   11020              
   11021              $C$DW$TU$11     .dwtag  DW_TAG_type_unit
   11022                      .dwmtype  $C$DW$T$11
   11023              $C$DW$T$11      .dwtag  DW_TAG_base_type
   11024                      .dwattr $C$DW$T$11, DW_AT_encoding(DW_ATE_unsigned)
   11025                      .dwattr $C$DW$T$11, DW_AT_name("unsigned int")
   11026                      .dwattr $C$DW$T$11, DW_AT_byte_size(0x01)
   11027              
   11028                      .dwendtag $C$DW$TU$11
   11029              
   11030              
   11031              $C$DW$TU$162    .dwtag  DW_TAG_type_unit
   11032                      .dwmtype  $C$DW$T$162
   11033              $C$DW$T$162     .dwtag  DW_TAG_typedef
   11034                      .dwattr $C$DW$T$162, DW_AT_name("__uint16_t")
   11035                      .dwattr $C$DW$T$162, DW_AT_type(*$C$DW$T$11)
   11036                      .dwattr $C$DW$T$162, DW_AT_decl_file("C:/ti/ccs1240/ccs/tools/compiler/ti-cgt-c2000_22.6.0.LTS/includ
   11037                      .dwattr $C$DW$T$162, DW_AT_decl_line(0x41)
   11038                      .dwattr $C$DW$T$162, DW_AT_decl_column(0x1c)
   11039              
   11040                      .dwendtag $C$DW$TU$162
   11041              
   11042              
   11043              $C$DW$TU$163    .dwtag  DW_TAG_type_unit
   11044                      .dwmtype  $C$DW$T$163
   11045              $C$DW$T$163     .dwtag  DW_TAG_typedef
   11046                      .dwattr $C$DW$T$163, DW_AT_name("uint16_t")
   11047                      .dwattr $C$DW$T$163, DW_AT_type(*$C$DW$T$162)
TMS320C2000 Assembler PC v22.6.0 Mon Sep  2 11:55:45 2024

Copyright (c) 1996-2018 Texas Instruments Incorporated
clllc_hal.asm                                                        PAGE  221

   11048                      .dwattr $C$DW$T$163, DW_AT_decl_file("C:/ti/ccs1240/ccs/tools/compiler/ti-cgt-c2000_22.6.0.LTS/includ
   11049                      .dwattr $C$DW$T$163, DW_AT_decl_line(0x41)
   11050                      .dwattr $C$DW$T$163, DW_AT_decl_column(0x15)
   11051              
   11052                      .dwendtag $C$DW$TU$163
   11053              
   11054              
   11055              $C$DW$TU$237    .dwtag  DW_TAG_type_unit
   11056                      .dwmtype  $C$DW$T$237
   11057              $C$DW$907       .dwtag  DW_TAG_TI_far_type
   11058                      .dwattr $C$DW$907, DW_AT_type(*$C$DW$T$163)
   11059              
   11060              $C$DW$T$237     .dwtag  DW_TAG_const_type
   11061                      .dwattr $C$DW$T$237, DW_AT_type(*$C$DW$907)
   11062              
   11063                      .dwendtag $C$DW$TU$237
   11064              
   11065              
   11066              $C$DW$TU$12     .dwtag  DW_TAG_type_unit
   11067                      .dwmtype  $C$DW$T$12
   11068              $C$DW$T$12      .dwtag  DW_TAG_base_type
   11069                      .dwattr $C$DW$T$12, DW_AT_encoding(DW_ATE_signed)
   11070                      .dwattr $C$DW$T$12, DW_AT_name("long")
   11071                      .dwattr $C$DW$T$12, DW_AT_byte_size(0x02)
   11072              
   11073                      .dwendtag $C$DW$TU$12
   11074              
   11075              
   11076              $C$DW$TU$238    .dwtag  DW_TAG_type_unit
   11077                      .dwmtype  $C$DW$T$238
   11078              $C$DW$T$238     .dwtag  DW_TAG_typedef
   11079                      .dwattr $C$DW$T$238, DW_AT_name("__int32_t")
   11080                      .dwattr $C$DW$T$238, DW_AT_type(*$C$DW$T$12)
   11081                      .dwattr $C$DW$T$238, DW_AT_decl_file("C:/ti/ccs1240/ccs/tools/compiler/ti-cgt-c2000_22.6.0.LTS/includ
   11082                      .dwattr $C$DW$T$238, DW_AT_decl_line(0x42)
   11083                      .dwattr $C$DW$T$238, DW_AT_decl_column(0x1d)
   11084              
   11085                      .dwendtag $C$DW$TU$238
   11086              
   11087              
   11088              $C$DW$TU$239    .dwtag  DW_TAG_type_unit
   11089                      .dwmtype  $C$DW$T$239
   11090              $C$DW$T$239     .dwtag  DW_TAG_typedef
   11091                      .dwattr $C$DW$T$239, DW_AT_name("int32_t")
   11092                      .dwattr $C$DW$T$239, DW_AT_type(*$C$DW$T$238)
   11093                      .dwattr $C$DW$T$239, DW_AT_decl_file("C:/ti/ccs1240/ccs/tools/compiler/ti-cgt-c2000_22.6.0.LTS/includ
   11094                      .dwattr $C$DW$T$239, DW_AT_decl_line(0x30)
   11095                      .dwattr $C$DW$T$239, DW_AT_decl_column(0x14)
   11096              
   11097                      .dwendtag $C$DW$TU$239
   11098              
   11099              
   11100              $C$DW$TU$13     .dwtag  DW_TAG_type_unit
   11101                      .dwmtype  $C$DW$T$13
   11102              $C$DW$T$13      .dwtag  DW_TAG_base_type
TMS320C2000 Assembler PC v22.6.0 Mon Sep  2 11:55:45 2024

Copyright (c) 1996-2018 Texas Instruments Incorporated
clllc_hal.asm                                                        PAGE  222

   11103                      .dwattr $C$DW$T$13, DW_AT_encoding(DW_ATE_unsigned)
   11104                      .dwattr $C$DW$T$13, DW_AT_name("unsigned long")
   11105                      .dwattr $C$DW$T$13, DW_AT_byte_size(0x02)
   11106              
   11107                      .dwendtag $C$DW$TU$13
   11108              
   11109              
   11110              $C$DW$TU$141    .dwtag  DW_TAG_type_unit
   11111                      .dwmtype  $C$DW$T$141
   11112              $C$DW$T$141     .dwtag  DW_TAG_typedef
   11113                      .dwattr $C$DW$T$141, DW_AT_name("__uint32_t")
   11114                      .dwattr $C$DW$T$141, DW_AT_type(*$C$DW$T$13)
   11115                      .dwattr $C$DW$T$141, DW_AT_decl_file("C:/ti/ccs1240/ccs/tools/compiler/ti-cgt-c2000_22.6.0.LTS/includ
   11116                      .dwattr $C$DW$T$141, DW_AT_decl_line(0x43)
   11117                      .dwattr $C$DW$T$141, DW_AT_decl_column(0x1c)
   11118              
   11119                      .dwendtag $C$DW$TU$141
   11120              
   11121              
   11122              $C$DW$TU$142    .dwtag  DW_TAG_type_unit
   11123                      .dwmtype  $C$DW$T$142
   11124              $C$DW$T$142     .dwtag  DW_TAG_typedef
   11125                      .dwattr $C$DW$T$142, DW_AT_name("uint32_t")
   11126                      .dwattr $C$DW$T$142, DW_AT_type(*$C$DW$T$141)
   11127                      .dwattr $C$DW$T$142, DW_AT_decl_file("C:/ti/ccs1240/ccs/tools/compiler/ti-cgt-c2000_22.6.0.LTS/includ
   11128                      .dwattr $C$DW$T$142, DW_AT_decl_line(0x46)
   11129                      .dwattr $C$DW$T$142, DW_AT_decl_column(0x15)
   11130              
   11131                      .dwendtag $C$DW$TU$142
   11132              
   11133              
   11134              $C$DW$TU$244    .dwtag  DW_TAG_type_unit
   11135                      .dwmtype  $C$DW$T$244
   11136              $C$DW$908       .dwtag  DW_TAG_TI_far_type
   11137                      .dwattr $C$DW$908, DW_AT_type(*$C$DW$T$142)
   11138              
   11139              $C$DW$T$244     .dwtag  DW_TAG_volatile_type
   11140                      .dwattr $C$DW$T$244, DW_AT_type(*$C$DW$908)
   11141              
   11142                      .dwendtag $C$DW$TU$244
   11143              
   11144              
   11145              $C$DW$TU$245    .dwtag  DW_TAG_type_unit
   11146                      .dwmtype  $C$DW$T$245
   11147              
   11148              $C$DW$T$245     .dwtag  DW_TAG_array_type
   11149                      .dwattr $C$DW$T$245, DW_AT_type(*$C$DW$T$244)
   11150                      .dwattr $C$DW$T$245, DW_AT_byte_size(0x12)
   11151              $C$DW$909       .dwtag  DW_TAG_subrange_type
   11152                      .dwattr $C$DW$909, DW_AT_upper_bound(0x08)
   11153              
   11154                      .dwendtag $C$DW$T$245
   11155              
   11156                      .dwendtag $C$DW$TU$245
   11157              
TMS320C2000 Assembler PC v22.6.0 Mon Sep  2 11:55:45 2024

Copyright (c) 1996-2018 Texas Instruments Incorporated
clllc_hal.asm                                                        PAGE  223

   11158              
   11159              $C$DW$TU$246    .dwtag  DW_TAG_type_unit
   11160                      .dwmtype  $C$DW$T$246
   11161              $C$DW$910       .dwtag  DW_TAG_TI_far_type
   11162                      .dwattr $C$DW$910, DW_AT_type(*$C$DW$T$142)
   11163              
   11164              $C$DW$T$246     .dwtag  DW_TAG_const_type
   11165                      .dwattr $C$DW$T$246, DW_AT_type(*$C$DW$910)
   11166              
   11167                      .dwendtag $C$DW$TU$246
   11168              
   11169              
   11170              $C$DW$TU$14     .dwtag  DW_TAG_type_unit
   11171                      .dwmtype  $C$DW$T$14
   11172              $C$DW$T$14      .dwtag  DW_TAG_base_type
   11173                      .dwattr $C$DW$T$14, DW_AT_encoding(DW_ATE_signed)
   11174                      .dwattr $C$DW$T$14, DW_AT_name("long long")
   11175                      .dwattr $C$DW$T$14, DW_AT_byte_size(0x04)
   11176              
   11177                      .dwendtag $C$DW$TU$14
   11178              
   11179              
   11180              $C$DW$TU$15     .dwtag  DW_TAG_type_unit
   11181                      .dwmtype  $C$DW$T$15
   11182              $C$DW$T$15      .dwtag  DW_TAG_base_type
   11183                      .dwattr $C$DW$T$15, DW_AT_encoding(DW_ATE_unsigned)
   11184                      .dwattr $C$DW$T$15, DW_AT_name("unsigned long long")
   11185                      .dwattr $C$DW$T$15, DW_AT_byte_size(0x04)
   11186              
   11187                      .dwendtag $C$DW$TU$15
   11188              
   11189              
   11190              $C$DW$TU$16     .dwtag  DW_TAG_type_unit
   11191                      .dwmtype  $C$DW$T$16
   11192              $C$DW$T$16      .dwtag  DW_TAG_base_type
   11193                      .dwattr $C$DW$T$16, DW_AT_encoding(DW_ATE_float)
   11194                      .dwattr $C$DW$T$16, DW_AT_name("float")
   11195                      .dwattr $C$DW$T$16, DW_AT_byte_size(0x02)
   11196              
   11197                      .dwendtag $C$DW$TU$16
   11198              
   11199              
   11200              $C$DW$TU$222    .dwtag  DW_TAG_type_unit
   11201                      .dwmtype  $C$DW$T$222
   11202              $C$DW$T$222     .dwtag  DW_TAG_typedef
   11203                      .dwattr $C$DW$T$222, DW_AT_name("float32_t")
   11204                      .dwattr $C$DW$T$222, DW_AT_type(*$C$DW$T$16)
   11205                      .dwattr $C$DW$T$222, DW_AT_decl_file("C:/Users/ZXC/Documents/mcu project/ti-project/clllc_nonpowerSUI
   11206                      .dwattr $C$DW$T$222, DW_AT_decl_line(0x64)
   11207                      .dwattr $C$DW$T$222, DW_AT_decl_column(0x17)
   11208              
   11209                      .dwendtag $C$DW$TU$222
   11210              
   11211              
   11212              $C$DW$TU$248    .dwtag  DW_TAG_type_unit
TMS320C2000 Assembler PC v22.6.0 Mon Sep  2 11:55:45 2024

Copyright (c) 1996-2018 Texas Instruments Incorporated
clllc_hal.asm                                                        PAGE  224

   11213                      .dwmtype  $C$DW$T$248
   11214              $C$DW$911       .dwtag  DW_TAG_TI_far_type
   11215                      .dwattr $C$DW$911, DW_AT_type(*$C$DW$T$222)
   11216              
   11217              $C$DW$T$248     .dwtag  DW_TAG_const_type
   11218                      .dwattr $C$DW$T$248, DW_AT_type(*$C$DW$911)
   11219              
   11220                      .dwendtag $C$DW$TU$248
   11221              
   11222              
   11223              $C$DW$TU$17     .dwtag  DW_TAG_type_unit
   11224                      .dwmtype  $C$DW$T$17
   11225              $C$DW$T$17      .dwtag  DW_TAG_base_type
   11226                      .dwattr $C$DW$T$17, DW_AT_encoding(DW_ATE_float)
   11227                      .dwattr $C$DW$T$17, DW_AT_name("double")
   11228                      .dwattr $C$DW$T$17, DW_AT_byte_size(0x04)
   11229              
   11230                      .dwendtag $C$DW$TU$17
   11231              
   11232              
   11233              $C$DW$TU$18     .dwtag  DW_TAG_type_unit
   11234                      .dwmtype  $C$DW$T$18
   11235              $C$DW$T$18      .dwtag  DW_TAG_base_type
   11236                      .dwattr $C$DW$T$18, DW_AT_encoding(DW_ATE_float)
   11237                      .dwattr $C$DW$T$18, DW_AT_name("long double")
   11238                      .dwattr $C$DW$T$18, DW_AT_byte_size(0x04)
   11239              
   11240                      .dwendtag $C$DW$TU$18
   11241              
   11242              
   11243              $C$DW$TU$169    .dwtag  DW_TAG_type_unit
   11244                      .dwmtype  $C$DW$T$169
   11245              $C$DW$T$169     .dwtag  DW_TAG_base_type
   11246                      .dwattr $C$DW$T$169, DW_AT_encoding(DW_ATE_unsigned_char)
   11247                      .dwattr $C$DW$T$169, DW_AT_name("unsigned char")
   11248                      .dwattr $C$DW$T$169, DW_AT_byte_size(0x01)
   11249              
   11250                      .dwendtag $C$DW$TU$169
   11251              

No Assembly Errors, No Assembly Warnings
