TMS320C2000 Assembler PC v22.6.0 Fri Aug 30 17:52:41 2024

Copyright (c) 1996-2018 Texas Instruments Incorporated
clllc_main.asm                                                       PAGE    1

       1              ;***************************************************************
       2              ;* TMS320C2000 G3 C/C++ Codegen                               PC v22.6.0.LTS *
       3              ;* Date/Time created: Fri Aug 30 17:52:40 2024                 *
       4              ;***************************************************************
       5                      .compiler_opts --abi=eabi --cla_support=cla2 --diag_wrap=off --float_support=fpu32 --hll_source=on --
       6                      .asg    XAR2, FP
       7              
       8              $C$DW$CU        .dwtag  DW_TAG_compile_unit
       9                      .dwattr $C$DW$CU, DW_AT_name("../clllc_main.c")
      10                      .dwattr $C$DW$CU, DW_AT_producer("TI TMS320C2000 G3 C/C++ Codegen PC v22.6.0.LTS Copyright (c) 1996-2
      11                      .dwattr $C$DW$CU, DW_AT_TI_version(0x01)
      12                      .dwattr $C$DW$CU, DW_AT_comp_dir("C:\Users\ZXC\Documents\mcu project\ti-project\clllc_nonpowerSUITE_F
      13              
      14              $C$DW$1 .dwtag  DW_TAG_subprogram
      15                      .dwattr $C$DW$1, DW_AT_name("Interrupt_enable")
      16                      .dwattr $C$DW$1, DW_AT_linkage_name("Interrupt_enable")
      17                      .dwattr $C$DW$1, DW_AT_declaration
      18                      .dwattr $C$DW$1, DW_AT_external
      19                      .dwattr $C$DW$1, DW_AT_decl_file("C:\Users\ZXC\Documents\mcu project\ti-project\clllc_nonpowerSUITE_F
      20                      .dwattr $C$DW$1, DW_AT_decl_line(0x1c7)
      21                      .dwattr $C$DW$1, DW_AT_decl_column(0x01)
      22              $C$DW$2 .dwtag  DW_TAG_formal_parameter
      23                      .dwattr $C$DW$2, DW_AT_type(*$C$DW$T$33)
      24              
      25                      .dwendtag $C$DW$1
      26              
      27              
      28              $C$DW$3 .dwtag  DW_TAG_subprogram
      29                      .dwattr $C$DW$3, DW_AT_name("CLLLC_HAL_sendCommandOverSCI")
      30                      .dwattr $C$DW$3, DW_AT_linkage_name("CLLLC_HAL_sendCommandOverSCI")
      31                      .dwattr $C$DW$3, DW_AT_declaration
      32                      .dwattr $C$DW$3, DW_AT_external
      33                      .dwattr $C$DW$3, DW_AT_decl_file("..\clllc_hal.h")
      34                      .dwattr $C$DW$3, DW_AT_decl_line(0x35)
      35                      .dwattr $C$DW$3, DW_AT_decl_column(0x06)
      36              $C$DW$4 .dwtag  DW_TAG_formal_parameter
      37                      .dwattr $C$DW$4, DW_AT_type(*$C$DW$T$57)
      38              
      39              $C$DW$5 .dwtag  DW_TAG_formal_parameter
      40                      .dwattr $C$DW$5, DW_AT_type(*$C$DW$T$57)
      41              
      42                      .dwendtag $C$DW$3
      43              
      44              
      45              $C$DW$6 .dwtag  DW_TAG_subprogram
      46                      .dwattr $C$DW$6, DW_AT_name("CLLLC_HAL_setupDevice")
      47                      .dwattr $C$DW$6, DW_AT_linkage_name("CLLLC_HAL_setupDevice")
      48                      .dwattr $C$DW$6, DW_AT_declaration
      49                      .dwattr $C$DW$6, DW_AT_external
      50                      .dwattr $C$DW$6, DW_AT_decl_file("..\clllc_hal.h")
      51                      .dwattr $C$DW$6, DW_AT_decl_line(0x2a)
      52                      .dwattr $C$DW$6, DW_AT_decl_column(0x06)
      53                      .dwendtag $C$DW$6
      54              
      55              
TMS320C2000 Assembler PC v22.6.0 Fri Aug 30 17:52:41 2024

Copyright (c) 1996-2018 Texas Instruments Incorporated
clllc_main.asm                                                       PAGE    2

      56              $C$DW$7 .dwtag  DW_TAG_subprogram
      57                      .dwattr $C$DW$7, DW_AT_name("CLLLC_initGlobalVariables")
      58                      .dwattr $C$DW$7, DW_AT_linkage_name("CLLLC_initGlobalVariables")
      59                      .dwattr $C$DW$7, DW_AT_declaration
      60                      .dwattr $C$DW$7, DW_AT_external
      61                      .dwattr $C$DW$7, DW_AT_decl_file("..\clllc.h")
      62                      .dwattr $C$DW$7, DW_AT_decl_line(0x9d)
      63                      .dwattr $C$DW$7, DW_AT_decl_column(0x06)
      64                      .dwendtag $C$DW$7
      65              
      66              
      67              $C$DW$8 .dwtag  DW_TAG_subprogram
      68                      .dwattr $C$DW$8, DW_AT_name("CLLLC_HAL_disablePWMClkCounting")
      69                      .dwattr $C$DW$8, DW_AT_linkage_name("CLLLC_HAL_disablePWMClkCounting")
      70                      .dwattr $C$DW$8, DW_AT_declaration
      71                      .dwattr $C$DW$8, DW_AT_external
      72                      .dwattr $C$DW$8, DW_AT_decl_file("..\clllc_hal.h")
      73                      .dwattr $C$DW$8, DW_AT_decl_line(0x49)
      74                      .dwattr $C$DW$8, DW_AT_decl_column(0x06)
      75                      .dwendtag $C$DW$8
      76              
      77              
      78              $C$DW$9 .dwtag  DW_TAG_subprogram
      79                      .dwattr $C$DW$9, DW_AT_name("CLLLC_HAL_setupPWM")
      80                      .dwattr $C$DW$9, DW_AT_linkage_name("CLLLC_HAL_setupPWM")
      81                      .dwattr $C$DW$9, DW_AT_declaration
      82                      .dwattr $C$DW$9, DW_AT_external
      83                      .dwattr $C$DW$9, DW_AT_decl_file("..\clllc_hal.h")
      84                      .dwattr $C$DW$9, DW_AT_decl_line(0x41)
      85                      .dwattr $C$DW$9, DW_AT_decl_column(0x06)
      86              $C$DW$10        .dwtag  DW_TAG_formal_parameter
      87                      .dwattr $C$DW$10, DW_AT_type(*$C$DW$T$57)
      88              
      89                      .dwendtag $C$DW$9
      90              
      91              
      92              $C$DW$11        .dwtag  DW_TAG_subprogram
      93                      .dwattr $C$DW$11, DW_AT_name("CLLLC_HAL_setupPWMinUpDownCountMode")
      94                      .dwattr $C$DW$11, DW_AT_linkage_name("CLLLC_HAL_setupPWMinUpDownCountMode")
      95                      .dwattr $C$DW$11, DW_AT_declaration
      96                      .dwattr $C$DW$11, DW_AT_external
      97                      .dwattr $C$DW$11, DW_AT_decl_file("..\clllc_hal.h")
      98                      .dwattr $C$DW$11, DW_AT_decl_line(0x58)
      99                      .dwattr $C$DW$11, DW_AT_decl_column(0x06)
     100              $C$DW$12        .dwtag  DW_TAG_formal_parameter
     101                      .dwattr $C$DW$12, DW_AT_type(*$C$DW$T$33)
     102              
     103              $C$DW$13        .dwtag  DW_TAG_formal_parameter
     104                      .dwattr $C$DW$13, DW_AT_type(*$C$DW$T$31)
     105              
     106              $C$DW$14        .dwtag  DW_TAG_formal_parameter
     107                      .dwattr $C$DW$14, DW_AT_type(*$C$DW$T$31)
     108              
     109                      .dwendtag $C$DW$11
     110              
TMS320C2000 Assembler PC v22.6.0 Fri Aug 30 17:52:41 2024

Copyright (c) 1996-2018 Texas Instruments Incorporated
clllc_main.asm                                                       PAGE    3

     111              
     112              $C$DW$15        .dwtag  DW_TAG_subprogram
     113                      .dwattr $C$DW$15, DW_AT_name("CLLLC_HAL_setupECAPinPWMMode")
     114                      .dwattr $C$DW$15, DW_AT_linkage_name("CLLLC_HAL_setupECAPinPWMMode")
     115                      .dwattr $C$DW$15, DW_AT_declaration
     116                      .dwattr $C$DW$15, DW_AT_external
     117                      .dwattr $C$DW$15, DW_AT_decl_file("..\clllc_hal.h")
     118                      .dwattr $C$DW$15, DW_AT_decl_line(0x5e)
     119                      .dwattr $C$DW$15, DW_AT_decl_column(0x06)
     120              $C$DW$16        .dwtag  DW_TAG_formal_parameter
     121                      .dwattr $C$DW$16, DW_AT_type(*$C$DW$T$33)
     122              
     123              $C$DW$17        .dwtag  DW_TAG_formal_parameter
     124                      .dwattr $C$DW$17, DW_AT_type(*$C$DW$T$31)
     125              
     126              $C$DW$18        .dwtag  DW_TAG_formal_parameter
     127                      .dwattr $C$DW$18, DW_AT_type(*$C$DW$T$31)
     128              
     129                      .dwendtag $C$DW$15
     130              
     131              
     132              $C$DW$19        .dwtag  DW_TAG_subprogram
     133                      .dwattr $C$DW$19, DW_AT_name("CLLLC_HAL_setupADC")
     134                      .dwattr $C$DW$19, DW_AT_linkage_name("CLLLC_HAL_setupADC")
     135                      .dwattr $C$DW$19, DW_AT_declaration
     136                      .dwattr $C$DW$19, DW_AT_external
     137                      .dwattr $C$DW$19, DW_AT_decl_file("..\clllc_hal.h")
     138                      .dwattr $C$DW$19, DW_AT_decl_line(0x2b)
     139                      .dwattr $C$DW$19, DW_AT_decl_column(0x06)
     140                      .dwendtag $C$DW$19
     141              
     142              
     143              $C$DW$20        .dwtag  DW_TAG_subprogram
     144                      .dwattr $C$DW$20, DW_AT_name("CLLLC_HAL_setupIprimSensedSignalChain")
     145                      .dwattr $C$DW$20, DW_AT_linkage_name("CLLLC_HAL_setupIprimSensedSignalChain")
     146                      .dwattr $C$DW$20, DW_AT_declaration
     147                      .dwattr $C$DW$20, DW_AT_external
     148                      .dwattr $C$DW$20, DW_AT_decl_file("..\clllc_hal.h")
     149                      .dwattr $C$DW$20, DW_AT_decl_line(0x2c)
     150                      .dwattr $C$DW$20, DW_AT_decl_column(0x06)
     151                      .dwendtag $C$DW$20
     152              
     153              
     154              $C$DW$21        .dwtag  DW_TAG_subprogram
     155                      .dwattr $C$DW$21, DW_AT_name("CLLLC_HAL_setupProfilingGPIO")
     156                      .dwattr $C$DW$21, DW_AT_linkage_name("CLLLC_HAL_setupProfilingGPIO")
     157                      .dwattr $C$DW$21, DW_AT_declaration
     158                      .dwattr $C$DW$21, DW_AT_external
     159                      .dwattr $C$DW$21, DW_AT_decl_file("..\clllc_hal.h")
     160                      .dwattr $C$DW$21, DW_AT_decl_line(0x33)
     161                      .dwattr $C$DW$21, DW_AT_decl_column(0x06)
     162                      .dwendtag $C$DW$21
     163              
     164              
     165              $C$DW$22        .dwtag  DW_TAG_subprogram
TMS320C2000 Assembler PC v22.6.0 Fri Aug 30 17:52:41 2024

Copyright (c) 1996-2018 Texas Instruments Incorporated
clllc_main.asm                                                       PAGE    4

     166                      .dwattr $C$DW$22, DW_AT_name("CLLLC_HAL_setupLED1")
     167                      .dwattr $C$DW$22, DW_AT_linkage_name("CLLLC_HAL_setupLED1")
     168                      .dwattr $C$DW$22, DW_AT_declaration
     169                      .dwattr $C$DW$22, DW_AT_external
     170                      .dwattr $C$DW$22, DW_AT_decl_file("..\clllc_hal.h")
     171                      .dwattr $C$DW$22, DW_AT_decl_line(0x31)
     172                      .dwattr $C$DW$22, DW_AT_decl_column(0x06)
     173                      .dwendtag $C$DW$22
     174              
     175              
     176              $C$DW$23        .dwtag  DW_TAG_subprogram
     177                      .dwattr $C$DW$23, DW_AT_name("CLLLC_HAL_setupSynchronousRectificationAction")
     178                      .dwattr $C$DW$23, DW_AT_linkage_name("CLLLC_HAL_setupSynchronousRectificationAction")
     179                      .dwattr $C$DW$23, DW_AT_declaration
     180                      .dwattr $C$DW$23, DW_AT_external
     181                      .dwattr $C$DW$23, DW_AT_decl_file("..\clllc_hal.h")
     182                      .dwattr $C$DW$23, DW_AT_decl_line(0x2e)
     183                      .dwattr $C$DW$23, DW_AT_decl_column(0x06)
     184              $C$DW$24        .dwtag  DW_TAG_formal_parameter
     185                      .dwattr $C$DW$24, DW_AT_type(*$C$DW$T$57)
     186              
     187                      .dwendtag $C$DW$23
     188              
     189              
     190              $C$DW$25        .dwtag  DW_TAG_subprogram
     191                      .dwattr $C$DW$25, DW_AT_name("CLLLC_HAL_setupSynchronousRectificationActionDebug")
     192                      .dwattr $C$DW$25, DW_AT_linkage_name("CLLLC_HAL_setupSynchronousRectificationActionDebug")
     193                      .dwattr $C$DW$25, DW_AT_declaration
     194                      .dwattr $C$DW$25, DW_AT_external
     195                      .dwattr $C$DW$25, DW_AT_decl_file("..\clllc_hal.h")
     196                      .dwattr $C$DW$25, DW_AT_decl_line(0x2f)
     197                      .dwattr $C$DW$25, DW_AT_decl_column(0x06)
     198              $C$DW$26        .dwtag  DW_TAG_formal_parameter
     199                      .dwattr $C$DW$26, DW_AT_type(*$C$DW$T$57)
     200              
     201                      .dwendtag $C$DW$25
     202              
     203              
     204              $C$DW$27        .dwtag  DW_TAG_subprogram
     205                      .dwattr $C$DW$27, DW_AT_name("CLLLC_HAL_setupBoardProtection")
     206                      .dwattr $C$DW$27, DW_AT_linkage_name("CLLLC_HAL_setupBoardProtection")
     207                      .dwattr $C$DW$27, DW_AT_declaration
     208                      .dwattr $C$DW$27, DW_AT_external
     209                      .dwattr $C$DW$27, DW_AT_decl_file("..\clllc_hal.h")
     210                      .dwattr $C$DW$27, DW_AT_decl_line(0x2d)
     211                      .dwattr $C$DW$27, DW_AT_decl_column(0x06)
     212                      .dwendtag $C$DW$27
     213              
     214              
     215              $C$DW$28        .dwtag  DW_TAG_subprogram
     216                      .dwattr $C$DW$28, DW_AT_name("CLLLC_setBuildLevelIndicatorVariable")
     217                      .dwattr $C$DW$28, DW_AT_linkage_name("CLLLC_setBuildLevelIndicatorVariable")
     218                      .dwattr $C$DW$28, DW_AT_declaration
     219                      .dwattr $C$DW$28, DW_AT_external
     220                      .dwattr $C$DW$28, DW_AT_decl_file("..\clllc.h")
TMS320C2000 Assembler PC v22.6.0 Fri Aug 30 17:52:41 2024

Copyright (c) 1996-2018 Texas Instruments Incorporated
clllc_main.asm                                                       PAGE    5

     221                      .dwattr $C$DW$28, DW_AT_decl_line(0xad)
     222                      .dwattr $C$DW$28, DW_AT_decl_column(0x06)
     223                      .dwendtag $C$DW$28
     224              
     225              
     226              $C$DW$29        .dwtag  DW_TAG_subprogram
     227                      .dwattr $C$DW$29, DW_AT_name("CLLLC_HAL_setupTrigForADC")
     228                      .dwattr $C$DW$29, DW_AT_linkage_name("CLLLC_HAL_setupTrigForADC")
     229                      .dwattr $C$DW$29, DW_AT_declaration
     230                      .dwattr $C$DW$29, DW_AT_external
     231                      .dwattr $C$DW$29, DW_AT_decl_file("..\clllc_hal.h")
     232                      .dwattr $C$DW$29, DW_AT_decl_line(0x30)
     233                      .dwattr $C$DW$29, DW_AT_decl_column(0x06)
     234                      .dwendtag $C$DW$29
     235              
     236              
     237              $C$DW$30        .dwtag  DW_TAG_subprogram
     238                      .dwattr $C$DW$30, DW_AT_name("CLLLC_HAL_setupPWMpins")
     239                      .dwattr $C$DW$30, DW_AT_linkage_name("CLLLC_HAL_setupPWMpins")
     240                      .dwattr $C$DW$30, DW_AT_declaration
     241                      .dwattr $C$DW$30, DW_AT_external
     242                      .dwattr $C$DW$30, DW_AT_decl_file("..\clllc_hal.h")
     243                      .dwattr $C$DW$30, DW_AT_decl_line(0x3f)
     244                      .dwattr $C$DW$30, DW_AT_decl_column(0x06)
     245              $C$DW$31        .dwtag  DW_TAG_formal_parameter
     246                      .dwattr $C$DW$31, DW_AT_type(*$C$DW$T$57)
     247              
     248                      .dwendtag $C$DW$30
     249              
     250              
     251              $C$DW$32        .dwtag  DW_TAG_subprogram
     252                      .dwattr $C$DW$32, DW_AT_name("CLLLC_HAL_enablePWMClkCounting")
     253                      .dwattr $C$DW$32, DW_AT_linkage_name("CLLLC_HAL_enablePWMClkCounting")
     254                      .dwattr $C$DW$32, DW_AT_declaration
     255                      .dwattr $C$DW$32, DW_AT_external
     256                      .dwattr $C$DW$32, DW_AT_decl_file("..\clllc_hal.h")
     257                      .dwattr $C$DW$32, DW_AT_decl_line(0x4a)
     258                      .dwattr $C$DW$32, DW_AT_decl_column(0x06)
     259                      .dwendtag $C$DW$32
     260              
     261              
     262              $C$DW$33        .dwtag  DW_TAG_subprogram
     263                      .dwattr $C$DW$33, DW_AT_name("CLLLC_runISR3")
     264                      .dwattr $C$DW$33, DW_AT_linkage_name("CLLLC_runISR3")
     265                      .dwattr $C$DW$33, DW_AT_declaration
     266                      .dwattr $C$DW$33, DW_AT_external
     267                      .dwattr $C$DW$33, DW_AT_decl_file("..\clllc.h")
     268                      .dwattr $C$DW$33, DW_AT_decl_line(0x98)
     269                      .dwattr $C$DW$33, DW_AT_decl_column(0x06)
     270                      .dwendtag $C$DW$33
     271              
     272              
     273              $C$DW$34        .dwtag  DW_TAG_subprogram
     274                      .dwattr $C$DW$34, DW_AT_name("CLLLC_changeSynchronousRectifierPwmBehavior")
     275                      .dwattr $C$DW$34, DW_AT_linkage_name("CLLLC_changeSynchronousRectifierPwmBehavior")
TMS320C2000 Assembler PC v22.6.0 Fri Aug 30 17:52:41 2024

Copyright (c) 1996-2018 Texas Instruments Incorporated
clllc_main.asm                                                       PAGE    6

     276                      .dwattr $C$DW$34, DW_AT_declaration
     277                      .dwattr $C$DW$34, DW_AT_external
     278                      .dwattr $C$DW$34, DW_AT_decl_file("..\clllc.h")
     279                      .dwattr $C$DW$34, DW_AT_decl_line(0xae)
     280                      .dwattr $C$DW$34, DW_AT_decl_column(0x06)
     281              $C$DW$35        .dwtag  DW_TAG_formal_parameter
     282                      .dwattr $C$DW$35, DW_AT_type(*$C$DW$T$57)
     283              
     284                      .dwendtag $C$DW$34
     285              
     286              
     287              $C$DW$36        .dwtag  DW_TAG_subprogram
     288                      .dwattr $C$DW$36, DW_AT_name("CLLLC_updateBoardStatus")
     289                      .dwattr $C$DW$36, DW_AT_linkage_name("CLLLC_updateBoardStatus")
     290                      .dwattr $C$DW$36, DW_AT_declaration
     291                      .dwattr $C$DW$36, DW_AT_external
     292                      .dwattr $C$DW$36, DW_AT_decl_file("..\clllc.h")
     293                      .dwattr $C$DW$36, DW_AT_decl_line(0xa2)
     294                      .dwattr $C$DW$36, DW_AT_decl_column(0x06)
     295                      .dwendtag $C$DW$36
     296              
     297              
     298              $C$DW$37        .dwtag  DW_TAG_subprogram
     299                      .dwattr $C$DW$37, DW_AT_name("CLLLC_HAL_toggleLED1")
     300                      .dwattr $C$DW$37, DW_AT_linkage_name("CLLLC_HAL_toggleLED1")
     301                      .dwattr $C$DW$37, DW_AT_declaration
     302                      .dwattr $C$DW$37, DW_AT_external
     303                      .dwattr $C$DW$37, DW_AT_decl_file("..\clllc_hal.h")
     304                      .dwattr $C$DW$37, DW_AT_decl_line(0x32)
     305                      .dwattr $C$DW$37, DW_AT_decl_column(0x06)
     306                      .dwendtag $C$DW$37
     307              
     308              $C$DW$38        .dwtag  DW_TAG_variable
     309                      .dwattr $C$DW$38, DW_AT_name("CLLLC_pwmISRTrig_ticks")
     310                      .dwattr $C$DW$38, DW_AT_linkage_name("CLLLC_pwmISRTrig_ticks")
     311                      .dwattr $C$DW$38, DW_AT_type(*$C$DW$T$84)
     312                      .dwattr $C$DW$38, DW_AT_declaration
     313                      .dwattr $C$DW$38, DW_AT_external
     314                      .dwattr $C$DW$38, DW_AT_decl_file("..\clllc.h")
     315                      .dwattr $C$DW$38, DW_AT_decl_line(0x176)
     316                      .dwattr $C$DW$38, DW_AT_decl_column(0x1a)
     317              
     318              $C$DW$39        .dwtag  DW_TAG_variable
     319                      .dwattr $C$DW$39, DW_AT_name("CLLLC_powerFlowStateActive")
     320                      .dwattr $C$DW$39, DW_AT_linkage_name("CLLLC_powerFlowStateActive")
     321                      .dwattr $C$DW$39, DW_AT_type(*$C$DW$T$47)
     322                      .dwattr $C$DW$39, DW_AT_declaration
     323                      .dwattr $C$DW$39, DW_AT_external
     324                      .dwattr $C$DW$39, DW_AT_decl_file("..\clllc.h")
     325                      .dwattr $C$DW$39, DW_AT_decl_line(0xf9)
     326                      .dwattr $C$DW$39, DW_AT_decl_column(0x27)
     327              
     328              $C$DW$40        .dwtag  DW_TAG_variable
     329                      .dwattr $C$DW$40, DW_AT_name("CLLLC_commandSentTo_AC_DC")
     330                      .dwattr $C$DW$40, DW_AT_linkage_name("CLLLC_commandSentTo_AC_DC")
TMS320C2000 Assembler PC v22.6.0 Fri Aug 30 17:52:41 2024

Copyright (c) 1996-2018 Texas Instruments Incorporated
clllc_main.asm                                                       PAGE    7

     331                      .dwattr $C$DW$40, DW_AT_type(*$C$DW$T$48)
     332                      .dwattr $C$DW$40, DW_AT_declaration
     333                      .dwattr $C$DW$40, DW_AT_external
     334                      .dwattr $C$DW$40, DW_AT_decl_file("..\clllc.h")
     335                      .dwattr $C$DW$40, DW_AT_decl_line(0x106)
     336                      .dwattr $C$DW$40, DW_AT_decl_column(0x2c)
     337              
     338              $C$DW$41        .dwtag  DW_TAG_variable
     339                      .dwattr $C$DW$41, DW_AT_name("CLLLC_giOut")
     340                      .dwattr $C$DW$41, DW_AT_linkage_name("CLLLC_giOut")
     341                      .dwattr $C$DW$41, DW_AT_type(*$C$DW$T$31)
     342                      .dwattr $C$DW$41, DW_AT_declaration
     343                      .dwattr $C$DW$41, DW_AT_external
     344                      .dwattr $C$DW$41, DW_AT_decl_file("..\clllc.h")
     345                      .dwattr $C$DW$41, DW_AT_decl_line(0x10d)
     346                      .dwattr $C$DW$41, DW_AT_decl_column(0x12)
     347              
     348              $C$DW$42        .dwtag  DW_TAG_variable
     349                      .dwattr $C$DW$42, DW_AT_name("CLLLC_giError")
     350                      .dwattr $C$DW$42, DW_AT_linkage_name("CLLLC_giError")
     351                      .dwattr $C$DW$42, DW_AT_type(*$C$DW$T$31)
     352                      .dwattr $C$DW$42, DW_AT_declaration
     353                      .dwattr $C$DW$42, DW_AT_external
     354                      .dwattr $C$DW$42, DW_AT_decl_file("..\clllc.h")
     355                      .dwattr $C$DW$42, DW_AT_decl_line(0x10e)
     356                      .dwattr $C$DW$42, DW_AT_decl_column(0x12)
     357              
     358              $C$DW$43        .dwtag  DW_TAG_variable
     359                      .dwattr $C$DW$43, DW_AT_name("CLLLC_giPartialComputedValue")
     360                      .dwattr $C$DW$43, DW_AT_linkage_name("CLLLC_giPartialComputedValue")
     361                      .dwattr $C$DW$43, DW_AT_type(*$C$DW$T$31)
     362                      .dwattr $C$DW$43, DW_AT_declaration
     363                      .dwattr $C$DW$43, DW_AT_external
     364                      .dwattr $C$DW$43, DW_AT_decl_file("..\clllc.h")
     365                      .dwattr $C$DW$43, DW_AT_decl_line(0x10f)
     366                      .dwattr $C$DW$43, DW_AT_decl_column(0x12)
     367              
     368              $C$DW$44        .dwtag  DW_TAG_variable
     369                      .dwattr $C$DW$44, DW_AT_name("CLLLC_gvOut")
     370                      .dwattr $C$DW$44, DW_AT_linkage_name("CLLLC_gvOut")
     371                      .dwattr $C$DW$44, DW_AT_type(*$C$DW$T$31)
     372                      .dwattr $C$DW$44, DW_AT_declaration
     373                      .dwattr $C$DW$44, DW_AT_external
     374                      .dwattr $C$DW$44, DW_AT_decl_file("..\clllc.h")
     375                      .dwattr $C$DW$44, DW_AT_decl_line(0x112)
     376                      .dwattr $C$DW$44, DW_AT_decl_column(0x12)
     377              
     378              $C$DW$45        .dwtag  DW_TAG_variable
     379                      .dwattr $C$DW$45, DW_AT_name("CLLLC_gvError")
     380                      .dwattr $C$DW$45, DW_AT_linkage_name("CLLLC_gvError")
     381                      .dwattr $C$DW$45, DW_AT_type(*$C$DW$T$31)
     382                      .dwattr $C$DW$45, DW_AT_declaration
     383                      .dwattr $C$DW$45, DW_AT_external
     384                      .dwattr $C$DW$45, DW_AT_decl_file("..\clllc.h")
     385                      .dwattr $C$DW$45, DW_AT_decl_line(0x113)
TMS320C2000 Assembler PC v22.6.0 Fri Aug 30 17:52:41 2024

Copyright (c) 1996-2018 Texas Instruments Incorporated
clllc_main.asm                                                       PAGE    8

     386                      .dwattr $C$DW$45, DW_AT_decl_column(0x12)
     387              
     388              $C$DW$46        .dwtag  DW_TAG_variable
     389                      .dwattr $C$DW$46, DW_AT_name("CLLLC_gvPartialComputedValue")
     390                      .dwattr $C$DW$46, DW_AT_linkage_name("CLLLC_gvPartialComputedValue")
     391                      .dwattr $C$DW$46, DW_AT_type(*$C$DW$T$31)
     392                      .dwattr $C$DW$46, DW_AT_declaration
     393                      .dwattr $C$DW$46, DW_AT_external
     394                      .dwattr $C$DW$46, DW_AT_decl_file("..\clllc.h")
     395                      .dwattr $C$DW$46, DW_AT_decl_line(0x114)
     396                      .dwattr $C$DW$46, DW_AT_decl_column(0x12)
     397              
     398              $C$DW$47        .dwtag  DW_TAG_variable
     399                      .dwattr $C$DW$47, DW_AT_name("CLLLC_closeGiLoop")
     400                      .dwattr $C$DW$47, DW_AT_linkage_name("CLLLC_closeGiLoop")
     401                      .dwattr $C$DW$47, DW_AT_type(*$C$DW$T$86)
     402                      .dwattr $C$DW$47, DW_AT_declaration
     403                      .dwattr $C$DW$47, DW_AT_external
     404                      .dwattr $C$DW$47, DW_AT_decl_file("..\clllc.h")
     405                      .dwattr $C$DW$47, DW_AT_decl_line(0x119)
     406                      .dwattr $C$DW$47, DW_AT_decl_column(0x19)
     407              
     408              $C$DW$48        .dwtag  DW_TAG_variable
     409                      .dwattr $C$DW$48, DW_AT_name("CLLLC_closeGvLoop")
     410                      .dwattr $C$DW$48, DW_AT_linkage_name("CLLLC_closeGvLoop")
     411                      .dwattr $C$DW$48, DW_AT_type(*$C$DW$T$86)
     412                      .dwattr $C$DW$48, DW_AT_declaration
     413                      .dwattr $C$DW$48, DW_AT_external
     414                      .dwattr $C$DW$48, DW_AT_decl_file("..\clllc.h")
     415                      .dwattr $C$DW$48, DW_AT_decl_line(0x11a)
     416                      .dwattr $C$DW$48, DW_AT_decl_column(0x19)
     417              
     418              $C$DW$49        .dwtag  DW_TAG_variable
     419                      .dwattr $C$DW$49, DW_AT_name("CLLLC_clearTrip")
     420                      .dwattr $C$DW$49, DW_AT_linkage_name("CLLLC_clearTrip")
     421                      .dwattr $C$DW$49, DW_AT_type(*$C$DW$T$86)
     422                      .dwattr $C$DW$49, DW_AT_declaration
     423                      .dwattr $C$DW$49, DW_AT_external
     424                      .dwattr $C$DW$49, DW_AT_decl_file("..\clllc.h")
     425                      .dwattr $C$DW$49, DW_AT_decl_line(0x11b)
     426                      .dwattr $C$DW$49, DW_AT_decl_column(0x19)
     427              
     428              $C$DW$50        .dwtag  DW_TAG_variable
     429                      .dwattr $C$DW$50, DW_AT_name("CLLLC_pwmFrequency_Hz")
     430                      .dwattr $C$DW$50, DW_AT_linkage_name("CLLLC_pwmFrequency_Hz")
     431                      .dwattr $C$DW$50, DW_AT_type(*$C$DW$T$97)
     432                      .dwattr $C$DW$50, DW_AT_declaration
     433                      .dwattr $C$DW$50, DW_AT_external
     434                      .dwattr $C$DW$50, DW_AT_decl_file("..\clllc.h")
     435                      .dwattr $C$DW$50, DW_AT_decl_line(0x11e)
     436                      .dwattr $C$DW$50, DW_AT_decl_column(0x1b)
     437              
     438              $C$DW$51        .dwtag  DW_TAG_variable
     439                      .dwattr $C$DW$51, DW_AT_name("CLLLC_pwmFrequencyPrev_Hz")
     440                      .dwattr $C$DW$51, DW_AT_linkage_name("CLLLC_pwmFrequencyPrev_Hz")
TMS320C2000 Assembler PC v22.6.0 Fri Aug 30 17:52:41 2024

Copyright (c) 1996-2018 Texas Instruments Incorporated
clllc_main.asm                                                       PAGE    9

     441                      .dwattr $C$DW$51, DW_AT_type(*$C$DW$T$97)
     442                      .dwattr $C$DW$51, DW_AT_declaration
     443                      .dwattr $C$DW$51, DW_AT_external
     444                      .dwattr $C$DW$51, DW_AT_decl_file("..\clllc.h")
     445                      .dwattr $C$DW$51, DW_AT_decl_line(0x11f)
     446                      .dwattr $C$DW$51, DW_AT_decl_column(0x1b)
     447              
     448              $C$DW$52        .dwtag  DW_TAG_variable
     449                      .dwattr $C$DW$52, DW_AT_name("CLLLC_pwmPeriodRef_pu")
     450                      .dwattr $C$DW$52, DW_AT_linkage_name("CLLLC_pwmPeriodRef_pu")
     451                      .dwattr $C$DW$52, DW_AT_type(*$C$DW$T$97)
     452                      .dwattr $C$DW$52, DW_AT_declaration
     453                      .dwattr $C$DW$52, DW_AT_external
     454                      .dwattr $C$DW$52, DW_AT_decl_file("..\clllc.h")
     455                      .dwattr $C$DW$52, DW_AT_decl_line(0x121)
     456                      .dwattr $C$DW$52, DW_AT_decl_column(0x1b)
     457              
     458              $C$DW$53        .dwtag  DW_TAG_variable
     459                      .dwattr $C$DW$53, DW_AT_name("CLLLC_pwmPeriod_pu")
     460                      .dwattr $C$DW$53, DW_AT_linkage_name("CLLLC_pwmPeriod_pu")
     461                      .dwattr $C$DW$53, DW_AT_type(*$C$DW$T$31)
     462                      .dwattr $C$DW$53, DW_AT_declaration
     463                      .dwattr $C$DW$53, DW_AT_external
     464                      .dwattr $C$DW$53, DW_AT_decl_file("..\clllc.h")
     465                      .dwattr $C$DW$53, DW_AT_decl_line(0x122)
     466                      .dwattr $C$DW$53, DW_AT_decl_column(0x12)
     467              
     468              $C$DW$54        .dwtag  DW_TAG_variable
     469                      .dwattr $C$DW$54, DW_AT_name("CLLLC_pwmPeriodSlewed_pu")
     470                      .dwattr $C$DW$54, DW_AT_linkage_name("CLLLC_pwmPeriodSlewed_pu")
     471                      .dwattr $C$DW$54, DW_AT_type(*$C$DW$T$31)
     472                      .dwattr $C$DW$54, DW_AT_declaration
     473                      .dwattr $C$DW$54, DW_AT_external
     474                      .dwattr $C$DW$54, DW_AT_decl_file("..\clllc.h")
     475                      .dwattr $C$DW$54, DW_AT_decl_line(0x123)
     476                      .dwattr $C$DW$54, DW_AT_decl_column(0x12)
     477              
     478              $C$DW$55        .dwtag  DW_TAG_variable
     479                      .dwattr $C$DW$55, DW_AT_name("CLLLC_pwmPeriodMin_pu")
     480                      .dwattr $C$DW$55, DW_AT_linkage_name("CLLLC_pwmPeriodMin_pu")
     481                      .dwattr $C$DW$55, DW_AT_type(*$C$DW$T$31)
     482                      .dwattr $C$DW$55, DW_AT_declaration
     483                      .dwattr $C$DW$55, DW_AT_external
     484                      .dwattr $C$DW$55, DW_AT_decl_file("..\clllc.h")
     485                      .dwattr $C$DW$55, DW_AT_decl_line(0x124)
     486                      .dwattr $C$DW$55, DW_AT_decl_column(0x12)
     487              
     488              $C$DW$56        .dwtag  DW_TAG_variable
     489                      .dwattr $C$DW$56, DW_AT_name("CLLLC_pwmPeriodMax_ticks")
     490                      .dwattr $C$DW$56, DW_AT_linkage_name("CLLLC_pwmPeriodMax_ticks")
     491                      .dwattr $C$DW$56, DW_AT_type(*$C$DW$T$31)
     492                      .dwattr $C$DW$56, DW_AT_declaration
     493                      .dwattr $C$DW$56, DW_AT_external
     494                      .dwattr $C$DW$56, DW_AT_decl_file("..\clllc.h")
     495                      .dwattr $C$DW$56, DW_AT_decl_line(0x126)
TMS320C2000 Assembler PC v22.6.0 Fri Aug 30 17:52:41 2024

Copyright (c) 1996-2018 Texas Instruments Incorporated
clllc_main.asm                                                       PAGE   10

     496                      .dwattr $C$DW$56, DW_AT_decl_column(0x12)
     497              
     498              $C$DW$57        .dwtag  DW_TAG_variable
     499                      .dwattr $C$DW$57, DW_AT_name("CLLLC_pwmPeriod_ticks")
     500                      .dwattr $C$DW$57, DW_AT_linkage_name("CLLLC_pwmPeriod_ticks")
     501                      .dwattr $C$DW$57, DW_AT_type(*$C$DW$T$33)
     502                      .dwattr $C$DW$57, DW_AT_declaration
     503                      .dwattr $C$DW$57, DW_AT_external
     504                      .dwattr $C$DW$57, DW_AT_decl_file("..\clllc.h")
     505                      .dwattr $C$DW$57, DW_AT_decl_line(0x127)
     506                      .dwattr $C$DW$57, DW_AT_decl_column(0x11)
     507              
     508              $C$DW$58        .dwtag  DW_TAG_variable
     509                      .dwattr $C$DW$58, DW_AT_name("CLLLC_iPrimSensed_pu")
     510                      .dwattr $C$DW$58, DW_AT_linkage_name("CLLLC_iPrimSensed_pu")
     511                      .dwattr $C$DW$58, DW_AT_type(*$C$DW$T$31)
     512                      .dwattr $C$DW$58, DW_AT_declaration
     513                      .dwattr $C$DW$58, DW_AT_external
     514                      .dwattr $C$DW$58, DW_AT_decl_file("..\clllc.h")
     515                      .dwattr $C$DW$58, DW_AT_decl_line(0x12d)
     516                      .dwattr $C$DW$58, DW_AT_decl_column(0x12)
     517              
     518              $C$DW$59        .dwtag  DW_TAG_variable
     519                      .dwattr $C$DW$59, DW_AT_name("CLLLC_iPrimSensedOffset_pu")
     520                      .dwattr $C$DW$59, DW_AT_linkage_name("CLLLC_iPrimSensedOffset_pu")
     521                      .dwattr $C$DW$59, DW_AT_type(*$C$DW$T$31)
     522                      .dwattr $C$DW$59, DW_AT_declaration
     523                      .dwattr $C$DW$59, DW_AT_external
     524                      .dwattr $C$DW$59, DW_AT_decl_file("..\clllc.h")
     525                      .dwattr $C$DW$59, DW_AT_decl_line(0x12e)
     526                      .dwattr $C$DW$59, DW_AT_decl_column(0x12)
     527              
     528              $C$DW$60        .dwtag  DW_TAG_variable
     529                      .dwattr $C$DW$60, DW_AT_name("CLLLC_iPrimSensedCalIntercept_pu")
     530                      .dwattr $C$DW$60, DW_AT_linkage_name("CLLLC_iPrimSensedCalIntercept_pu")
     531                      .dwattr $C$DW$60, DW_AT_type(*$C$DW$T$31)
     532                      .dwattr $C$DW$60, DW_AT_declaration
     533                      .dwattr $C$DW$60, DW_AT_external
     534                      .dwattr $C$DW$60, DW_AT_decl_file("..\clllc.h")
     535                      .dwattr $C$DW$60, DW_AT_decl_line(0x12f)
     536                      .dwattr $C$DW$60, DW_AT_decl_column(0x12)
     537              
     538              $C$DW$61        .dwtag  DW_TAG_variable
     539                      .dwattr $C$DW$61, DW_AT_name("CLLLC_iPrimSensedCalXvariable_pu")
     540                      .dwattr $C$DW$61, DW_AT_linkage_name("CLLLC_iPrimSensedCalXvariable_pu")
     541                      .dwattr $C$DW$61, DW_AT_type(*$C$DW$T$31)
     542                      .dwattr $C$DW$61, DW_AT_declaration
     543                      .dwattr $C$DW$61, DW_AT_external
     544                      .dwattr $C$DW$61, DW_AT_decl_file("..\clllc.h")
     545                      .dwattr $C$DW$61, DW_AT_decl_line(0x130)
     546                      .dwattr $C$DW$61, DW_AT_decl_column(0x12)
     547              
     548              $C$DW$62        .dwtag  DW_TAG_variable
     549                      .dwattr $C$DW$62, DW_AT_name("CLLLC_vPrimSensed_pu")
     550                      .dwattr $C$DW$62, DW_AT_linkage_name("CLLLC_vPrimSensed_pu")
TMS320C2000 Assembler PC v22.6.0 Fri Aug 30 17:52:41 2024

Copyright (c) 1996-2018 Texas Instruments Incorporated
clllc_main.asm                                                       PAGE   11

     551                      .dwattr $C$DW$62, DW_AT_type(*$C$DW$T$31)
     552                      .dwattr $C$DW$62, DW_AT_declaration
     553                      .dwattr $C$DW$62, DW_AT_external
     554                      .dwattr $C$DW$62, DW_AT_decl_file("..\clllc.h")
     555                      .dwattr $C$DW$62, DW_AT_decl_line(0x13b)
     556                      .dwattr $C$DW$62, DW_AT_decl_column(0x12)
     557              
     558              $C$DW$63        .dwtag  DW_TAG_variable
     559                      .dwattr $C$DW$63, DW_AT_name("CLLLC_vPrimSensedOffset_pu")
     560                      .dwattr $C$DW$63, DW_AT_linkage_name("CLLLC_vPrimSensedOffset_pu")
     561                      .dwattr $C$DW$63, DW_AT_type(*$C$DW$T$31)
     562                      .dwattr $C$DW$63, DW_AT_declaration
     563                      .dwattr $C$DW$63, DW_AT_external
     564                      .dwattr $C$DW$63, DW_AT_decl_file("..\clllc.h")
     565                      .dwattr $C$DW$63, DW_AT_decl_line(0x13c)
     566                      .dwattr $C$DW$63, DW_AT_decl_column(0x12)
     567              
     568              $C$DW$64        .dwtag  DW_TAG_variable
     569                      .dwattr $C$DW$64, DW_AT_name("CLLLC_vPrimRef_Volts")
     570                      .dwattr $C$DW$64, DW_AT_linkage_name("CLLLC_vPrimRef_Volts")
     571                      .dwattr $C$DW$64, DW_AT_type(*$C$DW$T$31)
     572                      .dwattr $C$DW$64, DW_AT_declaration
     573                      .dwattr $C$DW$64, DW_AT_external
     574                      .dwattr $C$DW$64, DW_AT_decl_file("..\clllc.h")
     575                      .dwattr $C$DW$64, DW_AT_decl_line(0x13f)
     576                      .dwattr $C$DW$64, DW_AT_decl_column(0x12)
     577              
     578              $C$DW$65        .dwtag  DW_TAG_variable
     579                      .dwattr $C$DW$65, DW_AT_name("CLLLC_vPrimRefSlewed_pu")
     580                      .dwattr $C$DW$65, DW_AT_linkage_name("CLLLC_vPrimRefSlewed_pu")
     581                      .dwattr $C$DW$65, DW_AT_type(*$C$DW$T$31)
     582                      .dwattr $C$DW$65, DW_AT_declaration
     583                      .dwattr $C$DW$65, DW_AT_external
     584                      .dwattr $C$DW$65, DW_AT_decl_file("..\clllc.h")
     585                      .dwattr $C$DW$65, DW_AT_decl_line(0x141)
     586                      .dwattr $C$DW$65, DW_AT_decl_column(0x12)
     587              
     588              $C$DW$66        .dwtag  DW_TAG_variable
     589                      .dwattr $C$DW$66, DW_AT_name("CLLLC_pwmDutyPrimRef_pu")
     590                      .dwattr $C$DW$66, DW_AT_linkage_name("CLLLC_pwmDutyPrimRef_pu")
     591                      .dwattr $C$DW$66, DW_AT_type(*$C$DW$T$97)
     592                      .dwattr $C$DW$66, DW_AT_declaration
     593                      .dwattr $C$DW$66, DW_AT_external
     594                      .dwattr $C$DW$66, DW_AT_decl_file("..\clllc.h")
     595                      .dwattr $C$DW$66, DW_AT_decl_line(0x143)
     596                      .dwattr $C$DW$66, DW_AT_decl_column(0x1b)
     597              
     598              $C$DW$67        .dwtag  DW_TAG_variable
     599                      .dwattr $C$DW$67, DW_AT_name("CLLLC_pwmDutyPrim_pu")
     600                      .dwattr $C$DW$67, DW_AT_linkage_name("CLLLC_pwmDutyPrim_pu")
     601                      .dwattr $C$DW$67, DW_AT_type(*$C$DW$T$31)
     602                      .dwattr $C$DW$67, DW_AT_declaration
     603                      .dwattr $C$DW$67, DW_AT_external
     604                      .dwattr $C$DW$67, DW_AT_decl_file("..\clllc.h")
     605                      .dwattr $C$DW$67, DW_AT_decl_line(0x144)
TMS320C2000 Assembler PC v22.6.0 Fri Aug 30 17:52:41 2024

Copyright (c) 1996-2018 Texas Instruments Incorporated
clllc_main.asm                                                       PAGE   12

     606                      .dwattr $C$DW$67, DW_AT_decl_column(0x12)
     607              
     608              $C$DW$68        .dwtag  DW_TAG_variable
     609                      .dwattr $C$DW$68, DW_AT_name("CLLLC_pwmDutyAPrim_ticks")
     610                      .dwattr $C$DW$68, DW_AT_linkage_name("CLLLC_pwmDutyAPrim_ticks")
     611                      .dwattr $C$DW$68, DW_AT_type(*$C$DW$T$33)
     612                      .dwattr $C$DW$68, DW_AT_declaration
     613                      .dwattr $C$DW$68, DW_AT_external
     614                      .dwattr $C$DW$68, DW_AT_decl_file("..\clllc.h")
     615                      .dwattr $C$DW$68, DW_AT_decl_line(0x145)
     616                      .dwattr $C$DW$68, DW_AT_decl_column(0x11)
     617              
     618              $C$DW$69        .dwtag  DW_TAG_variable
     619                      .dwattr $C$DW$69, DW_AT_name("CLLLC_pwmDutyBPrim_ticks")
     620                      .dwattr $C$DW$69, DW_AT_linkage_name("CLLLC_pwmDutyBPrim_ticks")
     621                      .dwattr $C$DW$69, DW_AT_type(*$C$DW$T$33)
     622                      .dwattr $C$DW$69, DW_AT_declaration
     623                      .dwattr $C$DW$69, DW_AT_external
     624                      .dwattr $C$DW$69, DW_AT_decl_file("..\clllc.h")
     625                      .dwattr $C$DW$69, DW_AT_decl_line(0x146)
     626                      .dwattr $C$DW$69, DW_AT_decl_column(0x11)
     627              
     628              $C$DW$70        .dwtag  DW_TAG_variable
     629                      .dwattr $C$DW$70, DW_AT_name("CLLLC_iSecSensed_pu")
     630                      .dwattr $C$DW$70, DW_AT_linkage_name("CLLLC_iSecSensed_pu")
     631                      .dwattr $C$DW$70, DW_AT_type(*$C$DW$T$31)
     632                      .dwattr $C$DW$70, DW_AT_declaration
     633                      .dwattr $C$DW$70, DW_AT_external
     634                      .dwattr $C$DW$70, DW_AT_decl_file("..\clllc.h")
     635                      .dwattr $C$DW$70, DW_AT_decl_line(0x152)
     636                      .dwattr $C$DW$70, DW_AT_decl_column(0x12)
     637              
     638              $C$DW$71        .dwtag  DW_TAG_variable
     639                      .dwattr $C$DW$71, DW_AT_name("CLLLC_iSecSensedOffset_pu")
     640                      .dwattr $C$DW$71, DW_AT_linkage_name("CLLLC_iSecSensedOffset_pu")
     641                      .dwattr $C$DW$71, DW_AT_type(*$C$DW$T$31)
     642                      .dwattr $C$DW$71, DW_AT_declaration
     643                      .dwattr $C$DW$71, DW_AT_external
     644                      .dwattr $C$DW$71, DW_AT_decl_file("..\clllc.h")
     645                      .dwattr $C$DW$71, DW_AT_decl_line(0x153)
     646                      .dwattr $C$DW$71, DW_AT_decl_column(0x12)
     647              
     648              $C$DW$72        .dwtag  DW_TAG_variable
     649                      .dwattr $C$DW$72, DW_AT_name("CLLLC_iSecSensedCalIntercept_pu")
     650                      .dwattr $C$DW$72, DW_AT_linkage_name("CLLLC_iSecSensedCalIntercept_pu")
     651                      .dwattr $C$DW$72, DW_AT_type(*$C$DW$T$31)
     652                      .dwattr $C$DW$72, DW_AT_declaration
     653                      .dwattr $C$DW$72, DW_AT_external
     654                      .dwattr $C$DW$72, DW_AT_decl_file("..\clllc.h")
     655                      .dwattr $C$DW$72, DW_AT_decl_line(0x154)
     656                      .dwattr $C$DW$72, DW_AT_decl_column(0x12)
     657              
     658              $C$DW$73        .dwtag  DW_TAG_variable
     659                      .dwattr $C$DW$73, DW_AT_name("CLLLC_iSecSensedCalXvariable_pu")
     660                      .dwattr $C$DW$73, DW_AT_linkage_name("CLLLC_iSecSensedCalXvariable_pu")
TMS320C2000 Assembler PC v22.6.0 Fri Aug 30 17:52:41 2024

Copyright (c) 1996-2018 Texas Instruments Incorporated
clllc_main.asm                                                       PAGE   13

     661                      .dwattr $C$DW$73, DW_AT_type(*$C$DW$T$31)
     662                      .dwattr $C$DW$73, DW_AT_declaration
     663                      .dwattr $C$DW$73, DW_AT_external
     664                      .dwattr $C$DW$73, DW_AT_decl_file("..\clllc.h")
     665                      .dwattr $C$DW$73, DW_AT_decl_line(0x155)
     666                      .dwattr $C$DW$73, DW_AT_decl_column(0x12)
     667              
     668              $C$DW$74        .dwtag  DW_TAG_variable
     669                      .dwattr $C$DW$74, DW_AT_name("CLLLC_iSecRefSlewed_pu")
     670                      .dwattr $C$DW$74, DW_AT_linkage_name("CLLLC_iSecRefSlewed_pu")
     671                      .dwattr $C$DW$74, DW_AT_type(*$C$DW$T$31)
     672                      .dwattr $C$DW$74, DW_AT_declaration
     673                      .dwattr $C$DW$74, DW_AT_external
     674                      .dwattr $C$DW$74, DW_AT_decl_file("..\clllc.h")
     675                      .dwattr $C$DW$74, DW_AT_decl_line(0x15a)
     676                      .dwattr $C$DW$74, DW_AT_decl_column(0x12)
     677              
     678              $C$DW$75        .dwtag  DW_TAG_variable
     679                      .dwattr $C$DW$75, DW_AT_name("CLLLC_vSecSensed_pu")
     680                      .dwattr $C$DW$75, DW_AT_linkage_name("CLLLC_vSecSensed_pu")
     681                      .dwattr $C$DW$75, DW_AT_type(*$C$DW$T$31)
     682                      .dwattr $C$DW$75, DW_AT_declaration
     683                      .dwattr $C$DW$75, DW_AT_external
     684                      .dwattr $C$DW$75, DW_AT_decl_file("..\clllc.h")
     685                      .dwattr $C$DW$75, DW_AT_decl_line(0x15d)
     686                      .dwattr $C$DW$75, DW_AT_decl_column(0x12)
     687              
     688              $C$DW$76        .dwtag  DW_TAG_variable
     689                      .dwattr $C$DW$76, DW_AT_name("CLLLC_vSecSensedOffset_pu")
     690                      .dwattr $C$DW$76, DW_AT_linkage_name("CLLLC_vSecSensedOffset_pu")
     691                      .dwattr $C$DW$76, DW_AT_type(*$C$DW$T$31)
     692                      .dwattr $C$DW$76, DW_AT_declaration
     693                      .dwattr $C$DW$76, DW_AT_external
     694                      .dwattr $C$DW$76, DW_AT_decl_file("..\clllc.h")
     695                      .dwattr $C$DW$76, DW_AT_decl_line(0x15e)
     696                      .dwattr $C$DW$76, DW_AT_decl_column(0x12)
     697              
     698              $C$DW$77        .dwtag  DW_TAG_variable
     699                      .dwattr $C$DW$77, DW_AT_name("CLLLC_vSecRefSlewed_pu")
     700                      .dwattr $C$DW$77, DW_AT_linkage_name("CLLLC_vSecRefSlewed_pu")
     701                      .dwattr $C$DW$77, DW_AT_type(*$C$DW$T$31)
     702                      .dwattr $C$DW$77, DW_AT_declaration
     703                      .dwattr $C$DW$77, DW_AT_external
     704                      .dwattr $C$DW$77, DW_AT_decl_file("..\clllc.h")
     705                      .dwattr $C$DW$77, DW_AT_decl_line(0x162)
     706                      .dwattr $C$DW$77, DW_AT_decl_column(0x12)
     707              
     708              $C$DW$78        .dwtag  DW_TAG_variable
     709                      .dwattr $C$DW$78, DW_AT_name("CLLLC_pwmDutySecRef_pu")
     710                      .dwattr $C$DW$78, DW_AT_linkage_name("CLLLC_pwmDutySecRef_pu")
     711                      .dwattr $C$DW$78, DW_AT_type(*$C$DW$T$97)
     712                      .dwattr $C$DW$78, DW_AT_declaration
     713                      .dwattr $C$DW$78, DW_AT_external
     714                      .dwattr $C$DW$78, DW_AT_decl_file("..\clllc.h")
     715                      .dwattr $C$DW$78, DW_AT_decl_line(0x165)
TMS320C2000 Assembler PC v22.6.0 Fri Aug 30 17:52:41 2024

Copyright (c) 1996-2018 Texas Instruments Incorporated
clllc_main.asm                                                       PAGE   14

     716                      .dwattr $C$DW$78, DW_AT_decl_column(0x1b)
     717              
     718              $C$DW$79        .dwtag  DW_TAG_variable
     719                      .dwattr $C$DW$79, DW_AT_name("CLLLC_pwmDutySec_pu")
     720                      .dwattr $C$DW$79, DW_AT_linkage_name("CLLLC_pwmDutySec_pu")
     721                      .dwattr $C$DW$79, DW_AT_type(*$C$DW$T$31)
     722                      .dwattr $C$DW$79, DW_AT_declaration
     723                      .dwattr $C$DW$79, DW_AT_external
     724                      .dwattr $C$DW$79, DW_AT_decl_file("..\clllc.h")
     725                      .dwattr $C$DW$79, DW_AT_decl_line(0x166)
     726                      .dwattr $C$DW$79, DW_AT_decl_column(0x12)
     727              
     728              $C$DW$80        .dwtag  DW_TAG_variable
     729                      .dwattr $C$DW$80, DW_AT_name("CLLLC_pwmDutyASec_ticks")
     730                      .dwattr $C$DW$80, DW_AT_linkage_name("CLLLC_pwmDutyASec_ticks")
     731                      .dwattr $C$DW$80, DW_AT_type(*$C$DW$T$33)
     732                      .dwattr $C$DW$80, DW_AT_declaration
     733                      .dwattr $C$DW$80, DW_AT_external
     734                      .dwattr $C$DW$80, DW_AT_decl_file("..\clllc.h")
     735                      .dwattr $C$DW$80, DW_AT_decl_line(0x167)
     736                      .dwattr $C$DW$80, DW_AT_decl_column(0x11)
     737              
     738              $C$DW$81        .dwtag  DW_TAG_variable
     739                      .dwattr $C$DW$81, DW_AT_name("CLLLC_pwmDutyBSec_ticks")
     740                      .dwattr $C$DW$81, DW_AT_linkage_name("CLLLC_pwmDutyBSec_ticks")
     741                      .dwattr $C$DW$81, DW_AT_type(*$C$DW$T$33)
     742                      .dwattr $C$DW$81, DW_AT_declaration
     743                      .dwattr $C$DW$81, DW_AT_external
     744                      .dwattr $C$DW$81, DW_AT_decl_file("..\clllc.h")
     745                      .dwattr $C$DW$81, DW_AT_decl_line(0x168)
     746                      .dwattr $C$DW$81, DW_AT_decl_column(0x11)
     747              
     748              $C$DW$82        .dwtag  DW_TAG_variable
     749                      .dwattr $C$DW$82, DW_AT_name("CLLLC_pwmPhaseShiftPrimSecRef_ns")
     750                      .dwattr $C$DW$82, DW_AT_linkage_name("CLLLC_pwmPhaseShiftPrimSecRef_ns")
     751                      .dwattr $C$DW$82, DW_AT_type(*$C$DW$T$97)
     752                      .dwattr $C$DW$82, DW_AT_declaration
     753                      .dwattr $C$DW$82, DW_AT_external
     754                      .dwattr $C$DW$82, DW_AT_decl_file("..\clllc.h")
     755                      .dwattr $C$DW$82, DW_AT_decl_line(0x170)
     756                      .dwattr $C$DW$82, DW_AT_decl_column(0x1b)
     757              
     758              $C$DW$83        .dwtag  DW_TAG_variable
     759                      .dwattr $C$DW$83, DW_AT_name("CLLLC_pwmPhaseShiftPrimSec_ns")
     760                      .dwattr $C$DW$83, DW_AT_linkage_name("CLLLC_pwmPhaseShiftPrimSec_ns")
     761                      .dwattr $C$DW$83, DW_AT_type(*$C$DW$T$31)
     762                      .dwattr $C$DW$83, DW_AT_declaration
     763                      .dwattr $C$DW$83, DW_AT_external
     764                      .dwattr $C$DW$83, DW_AT_decl_file("..\clllc.h")
     765                      .dwattr $C$DW$83, DW_AT_decl_line(0x171)
     766                      .dwattr $C$DW$83, DW_AT_decl_column(0x12)
     767              
     768              $C$DW$84        .dwtag  DW_TAG_variable
     769                      .dwattr $C$DW$84, DW_AT_name("CLLLC_pwmPhaseShiftPrimSec_ticks")
     770                      .dwattr $C$DW$84, DW_AT_linkage_name("CLLLC_pwmPhaseShiftPrimSec_ticks")
TMS320C2000 Assembler PC v22.6.0 Fri Aug 30 17:52:41 2024

Copyright (c) 1996-2018 Texas Instruments Incorporated
clllc_main.asm                                                       PAGE   15

     771                      .dwattr $C$DW$84, DW_AT_type(*$C$DW$T$21)
     772                      .dwattr $C$DW$84, DW_AT_declaration
     773                      .dwattr $C$DW$84, DW_AT_external
     774                      .dwattr $C$DW$84, DW_AT_decl_file("..\clllc.h")
     775                      .dwattr $C$DW$84, DW_AT_decl_line(0x172)
     776                      .dwattr $C$DW$84, DW_AT_decl_column(0x10)
     777              
     778              $C$DW$85        .dwtag  DW_TAG_variable
     779                      .dwattr $C$DW$85, DW_AT_name("CLLLC_slewSCIcommand")
     780                      .dwattr $C$DW$85, DW_AT_linkage_name("CLLLC_slewSCIcommand")
     781                      .dwattr $C$DW$85, DW_AT_type(*$C$DW$T$33)
     782                      .dwattr $C$DW$85, DW_AT_declaration
     783                      .dwattr $C$DW$85, DW_AT_external
     784                      .dwattr $C$DW$85, DW_AT_decl_file("..\clllc.h")
     785                      .dwattr $C$DW$85, DW_AT_decl_line(0x17a)
     786                      .dwattr $C$DW$85, DW_AT_decl_column(0x11)
     787              
     788                      .global ||Alpha_State_Ptr||
     789 00000000               .bss    ||Alpha_State_Ptr||,2,1,1
     790              $C$DW$86        .dwtag  DW_TAG_variable
     791                      .dwattr $C$DW$86, DW_AT_name("Alpha_State_Ptr")
     792                      .dwattr $C$DW$86, DW_AT_linkage_name("Alpha_State_Ptr")
     793                      .dwattr $C$DW$86, DW_AT_location[DW_OP_addr ||Alpha_State_Ptr||]
     794                      .dwattr $C$DW$86, DW_AT_type(*$C$DW$T$54)
     795                      .dwattr $C$DW$86, DW_AT_external
     796                      .dwattr $C$DW$86, DW_AT_decl_file("../clllc_main.c")
     797                      .dwattr $C$DW$86, DW_AT_decl_line(0x29)
     798                      .dwattr $C$DW$86, DW_AT_decl_column(0x08)
     799              
     800                      .global ||A_Task_Ptr||
     801 00000002               .bss    ||A_Task_Ptr||,2,1,1
     802              $C$DW$87        .dwtag  DW_TAG_variable
     803                      .dwattr $C$DW$87, DW_AT_name("A_Task_Ptr")
     804                      .dwattr $C$DW$87, DW_AT_linkage_name("A_Task_Ptr")
     805                      .dwattr $C$DW$87, DW_AT_location[DW_OP_addr ||A_Task_Ptr||]
     806                      .dwattr $C$DW$87, DW_AT_type(*$C$DW$T$54)
     807                      .dwattr $C$DW$87, DW_AT_external
     808                      .dwattr $C$DW$87, DW_AT_decl_file("../clllc_main.c")
     809                      .dwattr $C$DW$87, DW_AT_decl_line(0x2a)
     810                      .dwattr $C$DW$87, DW_AT_decl_column(0x08)
     811              
     812                      .global ||B_Task_Ptr||
     813 00000004               .bss    ||B_Task_Ptr||,2,1,1
     814              $C$DW$88        .dwtag  DW_TAG_variable
     815                      .dwattr $C$DW$88, DW_AT_name("B_Task_Ptr")
     816                      .dwattr $C$DW$88, DW_AT_linkage_name("B_Task_Ptr")
     817                      .dwattr $C$DW$88, DW_AT_location[DW_OP_addr ||B_Task_Ptr||]
     818                      .dwattr $C$DW$88, DW_AT_type(*$C$DW$T$54)
     819                      .dwattr $C$DW$88, DW_AT_external
     820                      .dwattr $C$DW$88, DW_AT_decl_file("../clllc_main.c")
     821                      .dwattr $C$DW$88, DW_AT_decl_line(0x2b)
     822                      .dwattr $C$DW$88, DW_AT_decl_column(0x08)
     823              
     824                      .global ||C_Task_Ptr||
     825 00000006               .bss    ||C_Task_Ptr||,2,1,1
TMS320C2000 Assembler PC v22.6.0 Fri Aug 30 17:52:41 2024

Copyright (c) 1996-2018 Texas Instruments Incorporated
clllc_main.asm                                                       PAGE   16

     826              $C$DW$89        .dwtag  DW_TAG_variable
     827                      .dwattr $C$DW$89, DW_AT_name("C_Task_Ptr")
     828                      .dwattr $C$DW$89, DW_AT_linkage_name("C_Task_Ptr")
     829                      .dwattr $C$DW$89, DW_AT_location[DW_OP_addr ||C_Task_Ptr||]
     830                      .dwattr $C$DW$89, DW_AT_type(*$C$DW$T$54)
     831                      .dwattr $C$DW$89, DW_AT_external
     832                      .dwattr $C$DW$89, DW_AT_decl_file("../clllc_main.c")
     833                      .dwattr $C$DW$89, DW_AT_decl_line(0x2c)
     834                      .dwattr $C$DW$89, DW_AT_decl_column(0x08)
     835              
     836              
     837              $C$DW$90        .dwtag  DW_TAG_subprogram
     838                      .dwattr $C$DW$90, DW_AT_name("__eallow")
     839                      .dwattr $C$DW$90, DW_AT_linkage_name("__eallow")
     840                      .dwattr $C$DW$90, DW_AT_declaration
     841                      .dwattr $C$DW$90, DW_AT_external
     842                      .dwendtag $C$DW$90
     843              
     844              
     845              $C$DW$91        .dwtag  DW_TAG_subprogram
     846                      .dwattr $C$DW$91, DW_AT_name("__edis")
     847                      .dwattr $C$DW$91, DW_AT_linkage_name("__edis")
     848                      .dwattr $C$DW$91, DW_AT_declaration
     849                      .dwattr $C$DW$91, DW_AT_external
     850                      .dwendtag $C$DW$91
     851              
     852                      .global ||vTimer0||
     853 00000000       ||vTimer0||:    .usect  ".bss:vTimer0",4,0,0
     854              $C$DW$92        .dwtag  DW_TAG_variable
     855                      .dwattr $C$DW$92, DW_AT_name("vTimer0")
     856                      .dwattr $C$DW$92, DW_AT_linkage_name("vTimer0")
     857                      .dwattr $C$DW$92, DW_AT_location[DW_OP_addr ||vTimer0||]
     858                      .dwattr $C$DW$92, DW_AT_type(*$C$DW$T$80)
     859                      .dwattr $C$DW$92, DW_AT_external
     860                      .dwattr $C$DW$92, DW_AT_decl_file("../clllc_main.c")
     861                      .dwattr $C$DW$92, DW_AT_decl_line(0x23)
     862                      .dwattr $C$DW$92, DW_AT_decl_column(0x09)
     863              
     864                      .global ||vTimer1||
     865 00000000       ||vTimer1||:    .usect  ".bss:vTimer1",4,0,0
     866              $C$DW$93        .dwtag  DW_TAG_variable
     867                      .dwattr $C$DW$93, DW_AT_name("vTimer1")
     868                      .dwattr $C$DW$93, DW_AT_linkage_name("vTimer1")
     869                      .dwattr $C$DW$93, DW_AT_location[DW_OP_addr ||vTimer1||]
     870                      .dwattr $C$DW$93, DW_AT_type(*$C$DW$T$80)
     871                      .dwattr $C$DW$93, DW_AT_external
     872                      .dwattr $C$DW$93, DW_AT_decl_file("../clllc_main.c")
     873                      .dwattr $C$DW$93, DW_AT_decl_line(0x24)
     874                      .dwattr $C$DW$93, DW_AT_decl_column(0x09)
     875              
     876              $C$DW$94        .dwtag  DW_TAG_variable
     877                      .dwattr $C$DW$94, DW_AT_name("CLLLC_gi")
     878                      .dwattr $C$DW$94, DW_AT_linkage_name("CLLLC_gi")
     879                      .dwattr $C$DW$94, DW_AT_type(*$C$DW$T$94)
     880                      .dwattr $C$DW$94, DW_AT_declaration
TMS320C2000 Assembler PC v22.6.0 Fri Aug 30 17:52:41 2024

Copyright (c) 1996-2018 Texas Instruments Incorporated
clllc_main.asm                                                       PAGE   17

     881                      .dwattr $C$DW$94, DW_AT_external
     882                      .dwattr $C$DW$94, DW_AT_decl_file("..\clllc.h")
     883                      .dwattr $C$DW$94, DW_AT_decl_line(0x10c)
     884                      .dwattr $C$DW$94, DW_AT_decl_column(0x11)
     885              
     886              $C$DW$95        .dwtag  DW_TAG_variable
     887                      .dwattr $C$DW$95, DW_AT_name("CLLLC_gv")
     888                      .dwattr $C$DW$95, DW_AT_linkage_name("CLLLC_gv")
     889                      .dwattr $C$DW$95, DW_AT_type(*$C$DW$T$94)
     890                      .dwattr $C$DW$95, DW_AT_declaration
     891                      .dwattr $C$DW$95, DW_AT_external
     892                      .dwattr $C$DW$95, DW_AT_decl_file("..\clllc.h")
     893                      .dwattr $C$DW$95, DW_AT_decl_line(0x111)
     894                      .dwattr $C$DW$95, DW_AT_decl_column(0x11)
     895              
     896                      .sblock ".bss"
     897              ;       C:\ti\ccs1240\ccs\tools\compiler\ti-cgt-c2000_22.6.0.LTS\bin\opt2000.exe C:\\Users\\ZXC\\AppData\\Loc
     898              ;       C:\ti\ccs1240\ccs\tools\compiler\ti-cgt-c2000_22.6.0.LTS\bin\acia2000.exe -@C:\\Users\\ZXC\\AppData\\
     899 00000000               .sect   ".text"
     900                      .clink
     901                      .global ||B3||
     902              
     903              $C$DW$96        .dwtag  DW_TAG_subprogram
     904                      .dwattr $C$DW$96, DW_AT_name("B3")
     905                      .dwattr $C$DW$96, DW_AT_low_pc(||B3||)
     906                      .dwattr $C$DW$96, DW_AT_high_pc(0x00)
     907                      .dwattr $C$DW$96, DW_AT_linkage_name("B3")
     908                      .dwattr $C$DW$96, DW_AT_external
     909                      .dwattr $C$DW$96, DW_AT_decl_file("../clllc_main.c")
     910                      .dwattr $C$DW$96, DW_AT_decl_line(0x18b)
     911                      .dwattr $C$DW$96, DW_AT_decl_column(0x06)
     912                      .dwattr $C$DW$96, DW_AT_TI_max_frame_size(-2)
     913                      .dwpsn  file "../clllc_main.c",line 396,column 1,is_stmt,address ||B3||,isa 0
     914              
     915                      .dwfde $C$DW$CIE, ||B3||
     916              
     917              ;***************************************************************
     918              ;* FNAME: B3                            FR SIZE:   0           *
     919              ;*                                                             *
     920              ;* FUNCTION ENVIRONMENT                                        *
     921              ;*                                                             *
     922              ;* FUNCTION PROPERTIES                                         *
     923              ;*                            0 Parameter,  0 Auto,  0 SOE     *
     924              ;***************************************************************
     925              
     926 00000000       ||B3||:
     927                      .dwcfi  cfa_offset, -2
     928                      .dwcfi  save_reg_to_mem, 26, 0
     929                      .dwpsn  file "../clllc_main.c",line 397,column 5,is_stmt,isa 0
     930              $C$DW$97        .dwtag  DW_TAG_TI_branch
     931                      .dwattr $C$DW$97, DW_AT_low_pc(0x00)
     932                      .dwattr $C$DW$97, DW_AT_name("CLLLC_HAL_toggleLED1")
     933                      .dwattr $C$DW$97, DW_AT_TI_call
     934              
     935 00000000 7640!         LCR       #||CLLLC_HAL_toggleLED1|| ; [CPU_ALU] |397| 
TMS320C2000 Assembler PC v22.6.0 Fri Aug 30 17:52:41 2024

Copyright (c) 1996-2018 Texas Instruments Incorporated
clllc_main.asm                                                       PAGE   18

         00000001 0000 
     936                      ; call occurs [#||CLLLC_HAL_toggleLED1||] ; [] |397| 
     937 00000002 761F!         MOVW      DP,#||B_Task_Ptr||    ; [CPU_ARAU] 
         00000003 0000 
     938                      .dwpsn  file "../clllc_main.c",line 402,column 5,is_stmt,isa 0
     939 00000004 8F00!         MOVL      XAR4,#||B1||          ; [CPU_ARAU] |402| 
         00000005 0000 
     940 00000006 A800!         MOVL      @||B_Task_Ptr||,XAR4  ; [CPU_ALU] |402| 
     941              $C$DW$98        .dwtag  DW_TAG_TI_branch
     942                      .dwattr $C$DW$98, DW_AT_low_pc(0x00)
     943                      .dwattr $C$DW$98, DW_AT_TI_return
     944              
     945 00000007 0006          LRETR     ; [CPU_ALU] 
     946                      ; return occurs ; [] 
     947                      .dwattr $C$DW$96, DW_AT_TI_end_file("../clllc_main.c")
     948                      .dwattr $C$DW$96, DW_AT_TI_end_line(0x194)
     949                      .dwattr $C$DW$96, DW_AT_TI_end_column(0x01)
     950                      .dwendentry
     951                      .dwendtag $C$DW$96
     952              
     953 00000008               .sect   ".text"
     954                      .clink
     955                      .global ||B2||
     956              
     957              $C$DW$99        .dwtag  DW_TAG_subprogram
     958                      .dwattr $C$DW$99, DW_AT_name("B2")
     959                      .dwattr $C$DW$99, DW_AT_low_pc(||B2||)
     960                      .dwattr $C$DW$99, DW_AT_high_pc(0x00)
     961                      .dwattr $C$DW$99, DW_AT_linkage_name("B2")
     962                      .dwattr $C$DW$99, DW_AT_external
     963                      .dwattr $C$DW$99, DW_AT_decl_file("../clllc_main.c")
     964                      .dwattr $C$DW$99, DW_AT_decl_line(0x181)
     965                      .dwattr $C$DW$99, DW_AT_decl_column(0x06)
     966                      .dwattr $C$DW$99, DW_AT_TI_max_frame_size(-2)
     967                      .dwpsn  file "../clllc_main.c",line 386,column 1,is_stmt,address ||B2||,isa 0
     968              
     969                      .dwfde $C$DW$CIE, ||B2||
     970              
     971              ;***************************************************************
     972              ;* FNAME: B2                            FR SIZE:   0           *
     973              ;*                                                             *
     974              ;* FUNCTION ENVIRONMENT                                        *
     975              ;*                                                             *
     976              ;* FUNCTION PROPERTIES                                         *
     977              ;*                            0 Parameter,  0 Auto,  0 SOE     *
     978              ;***************************************************************
     979              
     980 00000008       ||B2||:
     981                      .dwcfi  cfa_offset, -2
     982                      .dwcfi  save_reg_to_mem, 26, 0
     983                      .dwpsn  file "../clllc_main.c",line 391,column 5,is_stmt,isa 0
     984 00000008 8F00!         MOVL      XAR4,#||B3||          ; [CPU_ARAU] |391| 
         00000009 0000 
     985 0000000a 761F!         MOVW      DP,#||B_Task_Ptr||    ; [CPU_ARAU] 
         0000000b 0000 
TMS320C2000 Assembler PC v22.6.0 Fri Aug 30 17:52:41 2024

Copyright (c) 1996-2018 Texas Instruments Incorporated
clllc_main.asm                                                       PAGE   19

     986 0000000c A800!         MOVL      @||B_Task_Ptr||,XAR4  ; [CPU_ALU] |391| 
     987              $C$DW$100       .dwtag  DW_TAG_TI_branch
     988                      .dwattr $C$DW$100, DW_AT_low_pc(0x00)
     989                      .dwattr $C$DW$100, DW_AT_TI_return
     990              
     991 0000000d 0006          LRETR     ; [CPU_ALU] 
     992                      ; return occurs ; [] 
     993                      .dwattr $C$DW$99, DW_AT_TI_end_file("../clllc_main.c")
     994                      .dwattr $C$DW$99, DW_AT_TI_end_line(0x189)
     995                      .dwattr $C$DW$99, DW_AT_TI_end_column(0x01)
     996                      .dwendentry
     997                      .dwendtag $C$DW$99
     998              
     999 0000000e               .sect   ".text"
    1000                      .clink
    1001                      .global ||B1||
    1002              
    1003              $C$DW$101       .dwtag  DW_TAG_subprogram
    1004                      .dwattr $C$DW$101, DW_AT_name("B1")
    1005                      .dwattr $C$DW$101, DW_AT_low_pc(||B1||)
    1006                      .dwattr $C$DW$101, DW_AT_high_pc(0x00)
    1007                      .dwattr $C$DW$101, DW_AT_linkage_name("B1")
    1008                      .dwattr $C$DW$101, DW_AT_external
    1009                      .dwattr $C$DW$101, DW_AT_decl_file("../clllc_main.c")
    1010                      .dwattr $C$DW$101, DW_AT_decl_line(0x176)
    1011                      .dwattr $C$DW$101, DW_AT_decl_column(0x06)
    1012                      .dwattr $C$DW$101, DW_AT_TI_max_frame_size(-2)
    1013                      .dwpsn  file "../clllc_main.c",line 375,column 1,is_stmt,address ||B1||,isa 0
    1014              
    1015                      .dwfde $C$DW$CIE, ||B1||
    1016              
    1017              ;***************************************************************
    1018              ;* FNAME: B1                            FR SIZE:   0           *
    1019              ;*                                                             *
    1020              ;* FUNCTION ENVIRONMENT                                        *
    1021              ;*                                                             *
    1022              ;* FUNCTION PROPERTIES                                         *
    1023              ;*                            0 Parameter,  0 Auto,  0 SOE     *
    1024              ;***************************************************************
    1025              
    1026 0000000e       ||B1||:
    1027                      .dwcfi  cfa_offset, -2
    1028                      .dwcfi  save_reg_to_mem, 26, 0
    1029                      .dwpsn  file "../clllc_main.c",line 377,column 5,is_stmt,isa 0
    1030              $C$DW$102       .dwtag  DW_TAG_TI_branch
    1031                      .dwattr $C$DW$102, DW_AT_low_pc(0x00)
    1032                      .dwattr $C$DW$102, DW_AT_name("CLLLC_updateBoardStatus")
    1033                      .dwattr $C$DW$102, DW_AT_TI_call
    1034              
    1035 0000000e 7640!         LCR       #||CLLLC_updateBoardStatus|| ; [CPU_ALU] |377| 
         0000000f 0000 
    1036                      ; call occurs [#||CLLLC_updateBoardStatus||] ; [] |377| 
    1037 00000010 761F!         MOVW      DP,#||B_Task_Ptr||    ; [CPU_ARAU] 
         00000011 0000 
    1038                      .dwpsn  file "../clllc_main.c",line 382,column 5,is_stmt,isa 0
TMS320C2000 Assembler PC v22.6.0 Fri Aug 30 17:52:41 2024

Copyright (c) 1996-2018 Texas Instruments Incorporated
clllc_main.asm                                                       PAGE   20

    1039 00000012 8F00!         MOVL      XAR4,#||B2||          ; [CPU_ARAU] |382| 
         00000013 0000 
    1040 00000014 A800!         MOVL      @||B_Task_Ptr||,XAR4  ; [CPU_ALU] |382| 
    1041              $C$DW$103       .dwtag  DW_TAG_TI_branch
    1042                      .dwattr $C$DW$103, DW_AT_low_pc(0x00)
    1043                      .dwattr $C$DW$103, DW_AT_TI_return
    1044              
    1045 00000015 0006          LRETR     ; [CPU_ALU] 
    1046                      ; return occurs ; [] 
    1047                      .dwattr $C$DW$101, DW_AT_TI_end_file("../clllc_main.c")
    1048                      .dwattr $C$DW$101, DW_AT_TI_end_line(0x17f)
    1049                      .dwattr $C$DW$101, DW_AT_TI_end_column(0x01)
    1050                      .dwendentry
    1051                      .dwendtag $C$DW$101
    1052              
    1053 00000016               .sect   ".text"
    1054                      .clink
    1055                      .global ||A1||
    1056              
    1057              $C$DW$104       .dwtag  DW_TAG_subprogram
    1058                      .dwattr $C$DW$104, DW_AT_name("A1")
    1059                      .dwattr $C$DW$104, DW_AT_low_pc(||A1||)
    1060                      .dwattr $C$DW$104, DW_AT_high_pc(0x00)
    1061                      .dwattr $C$DW$104, DW_AT_linkage_name("A1")
    1062                      .dwattr $C$DW$104, DW_AT_external
    1063                      .dwattr $C$DW$104, DW_AT_decl_file("../clllc_main.c")
    1064                      .dwattr $C$DW$104, DW_AT_decl_line(0x161)
    1065                      .dwattr $C$DW$104, DW_AT_decl_column(0x06)
    1066                      .dwattr $C$DW$104, DW_AT_TI_max_frame_size(-2)
    1067                      .dwpsn  file "../clllc_main.c",line 354,column 1,is_stmt,address ||A1||,isa 0
    1068              
    1069                      .dwfde $C$DW$CIE, ||A1||
    1070              
    1071              ;***************************************************************
    1072              ;* FNAME: A1                            FR SIZE:   0           *
    1073              ;*                                                             *
    1074              ;* FUNCTION ENVIRONMENT                                        *
    1075              ;*                                                             *
    1076              ;* FUNCTION PROPERTIES                                         *
    1077              ;*                            0 Parameter,  0 Auto,  0 SOE     *
    1078              ;***************************************************************
    1079              
    1080 00000016       ||A1||:
    1081                      .dwcfi  cfa_offset, -2
    1082                      .dwcfi  save_reg_to_mem, 26, 0
    1083                      .dwpsn  file "../clllc_main.c",line 359,column 5,is_stmt,isa 0
    1084 00000016 9A01          MOVB      AL,#1                 ; [CPU_ALU] |359| 
    1085              $C$DW$105       .dwtag  DW_TAG_TI_branch
    1086                      .dwattr $C$DW$105, DW_AT_low_pc(0x00)
    1087                      .dwattr $C$DW$105, DW_AT_name("CLLLC_changeSynchronousRectifierPwmBehavior")
    1088                      .dwattr $C$DW$105, DW_AT_TI_call
    1089              
    1090 00000017 7640!         LCR       #||CLLLC_changeSynchronousRectifierPwmBehavior|| ; [CPU_ALU] |359| 
         00000018 0000 
    1091                      ; call occurs [#||CLLLC_changeSynchronousRectifierPwmBehavior||] ; [] |359| 
TMS320C2000 Assembler PC v22.6.0 Fri Aug 30 17:52:41 2024

Copyright (c) 1996-2018 Texas Instruments Incorporated
clllc_main.asm                                                       PAGE   21

    1092 00000019 761F!         MOVW      DP,#||A_Task_Ptr||    ; [CPU_ARAU] 
         0000001a 0000 
    1093                      .dwpsn  file "../clllc_main.c",line 364,column 5,is_stmt,isa 0
    1094 0000001b 8F00!         MOVL      XAR4,#||A1||          ; [CPU_ARAU] |364| 
         0000001c 0000 
    1095 0000001d A800!         MOVL      @||A_Task_Ptr||,XAR4  ; [CPU_ALU] |364| 
    1096              $C$DW$106       .dwtag  DW_TAG_TI_branch
    1097                      .dwattr $C$DW$106, DW_AT_low_pc(0x00)
    1098                      .dwattr $C$DW$106, DW_AT_TI_return
    1099              
    1100 0000001e 0006          LRETR     ; [CPU_ALU] 
    1101                      ; return occurs ; [] 
    1102                      .dwattr $C$DW$104, DW_AT_TI_end_file("../clllc_main.c")
    1103                      .dwattr $C$DW$104, DW_AT_TI_end_line(0x16e)
    1104                      .dwattr $C$DW$104, DW_AT_TI_end_column(0x01)
    1105                      .dwendentry
    1106                      .dwendtag $C$DW$104
    1107              
    1108 0000001f               .sect   ".text"
    1109                      .clink
    1110                      .global ||A0||
    1111              
    1112              $C$DW$107       .dwtag  DW_TAG_subprogram
    1113                      .dwattr $C$DW$107, DW_AT_name("A0")
    1114                      .dwattr $C$DW$107, DW_AT_low_pc(||A0||)
    1115                      .dwattr $C$DW$107, DW_AT_high_pc(0x00)
    1116                      .dwattr $C$DW$107, DW_AT_linkage_name("A0")
    1117                      .dwattr $C$DW$107, DW_AT_external
    1118                      .dwattr $C$DW$107, DW_AT_decl_file("../clllc_main.c")
    1119                      .dwattr $C$DW$107, DW_AT_decl_line(0x131)
    1120                      .dwattr $C$DW$107, DW_AT_decl_column(0x06)
    1121                      .dwattr $C$DW$107, DW_AT_TI_max_frame_size(-2)
    1122                      .dwpsn  file "../clllc_main.c",line 306,column 1,is_stmt,address ||A0||,isa 0
    1123              
    1124                      .dwfde $C$DW$CIE, ||A0||
    1125              
    1126              ;***************************************************************
    1127              ;* FNAME: A0                            FR SIZE:   0           *
    1128              ;*                                                             *
    1129              ;* FUNCTION ENVIRONMENT                                        *
    1130              ;*                                                             *
    1131              ;* FUNCTION PROPERTIES                                         *
    1132              ;*                            0 Parameter,  0 Auto,  0 SOE     *
    1133              ;***************************************************************
    1134              
    1135 0000001f       ||A0||:
    1136              ;* AL    assigned to $O$R1
    1137                      .dwcfi  cfa_offset, -2
    1138                      .dwcfi  save_reg_to_mem, 26, 0
    1139                      .dwpsn  file "C:/Users/ZXC/Documents/mcu project/ti-project/clllc_nonpowerSUITE_F28004x/device/driver
    1140 0000001f F5A9          MOV       AL,*(0:0x0c04)        ; [CPU_ALU] |397| 
         00000020 0C04 
    1141 00000021 FFCE          LSR       AL,15                 ; [CPU_ALU] |397| 
    1142                      .dwpsn  file "../clllc_main.c",line 310,column 5,is_stmt,isa 0
    1143 00000022 5201          CMPB      AL,#1                 ; [CPU_ALU] |310| 
TMS320C2000 Assembler PC v22.6.0 Fri Aug 30 17:52:41 2024

Copyright (c) 1996-2018 Texas Instruments Incorporated
clllc_main.asm                                                       PAGE   22

    1144 00000023 600E          B         ||$C$L1||,NEQ         ; [CPU_ALU] |310| 
    1145                      ; branchcc occurs ; [] |310| 
    1146 00000024 761F!         MOVW      DP,#||A_Task_Ptr||    ; [CPU_ARAU] 
         00000025 0000 
    1147                      .dwpsn  file "C:/Users/ZXC/Documents/mcu project/ti-project/clllc_nonpowerSUITE_F28004x/device/driver
    1148 00000026 F5A9          MOV       AL,*(0:0x0c04)        ; [CPU_ALU] |165| 
         00000027 0C04 
    1149                      .dwpsn  file "../clllc_main.c",line 317,column 9,is_stmt,isa 0
    1150 00000028 C500!         MOVL      XAR7,@||A_Task_Ptr||  ; [CPU_ALU] |317| 
    1151                      .dwpsn  file "C:/Users/ZXC/Documents/mcu project/ti-project/clllc_nonpowerSUITE_F28004x/device/driver
    1152 00000029 1AA9          OR        AL,#0x8000            ; [CPU_ALU] |165| 
         0000002a 8000 
    1153 0000002b F4A9          MOV       *(0:0x0c04),AL        ; [CPU_ALU] |165| 
         0000002c 0C04 
    1154                      .dwpsn  file "../clllc_main.c",line 317,column 9,is_stmt,isa 0
    1155              $C$DW$108       .dwtag  DW_TAG_TI_branch
    1156                      .dwattr $C$DW$108, DW_AT_low_pc(0x00)
    1157                      .dwattr $C$DW$108, DW_AT_TI_call
    1158                      .dwattr $C$DW$108, DW_AT_TI_indirect
    1159              
    1160 0000002d 3E67          LCR       *XAR7                 ; [CPU_ALU] |317| 
    1161                      ; call occurs [XAR7] ; [] |317| 
    1162 0000002e 761F!         MOVW      DP,#||vTimer0||       ; [CPU_ARAU] 
         0000002f 0000 
    1163                      .dwpsn  file "../clllc_main.c",line 319,column 9,is_stmt,isa 0
    1164 00000030 0A00!         INC       @||vTimer0||          ; [CPU_ALU] |319| 
    1165 00000031       ||$C$L1||:    
    1166                      .dwpsn  file "../clllc_main.c",line 321,column 5,is_stmt,isa 0
    1167 00000031 8F00!         MOVL      XAR4,#||B0||          ; [CPU_ARAU] |321| 
         00000032 0000 
    1168 00000033 761F!         MOVW      DP,#||Alpha_State_Ptr|| ; [CPU_ARAU] 
         00000034 0000 
    1169 00000035 A800!         MOVL      @||Alpha_State_Ptr||,XAR4 ; [CPU_ALU] |321| 
    1170              $C$DW$109       .dwtag  DW_TAG_TI_branch
    1171                      .dwattr $C$DW$109, DW_AT_low_pc(0x00)
    1172                      .dwattr $C$DW$109, DW_AT_TI_return
    1173              
    1174 00000036 0006          LRETR     ; [CPU_ALU] 
    1175                      ; return occurs ; [] 
    1176                      .dwattr $C$DW$107, DW_AT_TI_end_file("../clllc_main.c")
    1177                      .dwattr $C$DW$107, DW_AT_TI_end_line(0x142)
    1178                      .dwattr $C$DW$107, DW_AT_TI_end_column(0x01)
    1179                      .dwendentry
    1180                      .dwendtag $C$DW$107
    1181              
    1182 00000037               .sect   ".text"
    1183                      .clink
    1184                      .global ||B0||
    1185              
    1186              $C$DW$110       .dwtag  DW_TAG_subprogram
    1187                      .dwattr $C$DW$110, DW_AT_name("B0")
    1188                      .dwattr $C$DW$110, DW_AT_low_pc(||B0||)
    1189                      .dwattr $C$DW$110, DW_AT_high_pc(0x00)
    1190                      .dwattr $C$DW$110, DW_AT_linkage_name("B0")
    1191                      .dwattr $C$DW$110, DW_AT_external
TMS320C2000 Assembler PC v22.6.0 Fri Aug 30 17:52:41 2024

Copyright (c) 1996-2018 Texas Instruments Incorporated
clllc_main.asm                                                       PAGE   23

    1192                      .dwattr $C$DW$110, DW_AT_decl_file("../clllc_main.c")
    1193                      .dwattr $C$DW$110, DW_AT_decl_line(0x144)
    1194                      .dwattr $C$DW$110, DW_AT_decl_column(0x06)
    1195                      .dwattr $C$DW$110, DW_AT_TI_max_frame_size(-2)
    1196                      .dwpsn  file "../clllc_main.c",line 325,column 1,is_stmt,address ||B0||,isa 0
    1197              
    1198                      .dwfde $C$DW$CIE, ||B0||
    1199              
    1200              ;***************************************************************
    1201              ;* FNAME: B0                            FR SIZE:   0           *
    1202              ;*                                                             *
    1203              ;* FUNCTION ENVIRONMENT                                        *
    1204              ;*                                                             *
    1205              ;* FUNCTION PROPERTIES                                         *
    1206              ;*                            0 Parameter,  0 Auto,  0 SOE     *
    1207              ;***************************************************************
    1208              
    1209 00000037       ||B0||:
    1210              ;* AL    assigned to $O$R1
    1211                      .dwcfi  cfa_offset, -2
    1212                      .dwcfi  save_reg_to_mem, 26, 0
    1213                      .dwpsn  file "C:/Users/ZXC/Documents/mcu project/ti-project/clllc_nonpowerSUITE_F28004x/device/driver
    1214 00000037 F5A9          MOV       AL,*(0:0x0c0c)        ; [CPU_ALU] |397| 
         00000038 0C0C 
    1215 00000039 FFCE          LSR       AL,15                 ; [CPU_ALU] |397| 
    1216                      .dwpsn  file "../clllc_main.c",line 329,column 5,is_stmt,isa 0
    1217 0000003a 5201          CMPB      AL,#1                 ; [CPU_ALU] |329| 
    1218 0000003b 600E          B         ||$C$L2||,NEQ         ; [CPU_ALU] |329| 
    1219                      ; branchcc occurs ; [] |329| 
    1220 0000003c 761F!         MOVW      DP,#||B_Task_Ptr||    ; [CPU_ARAU] 
         0000003d 0000 
    1221                      .dwpsn  file "C:/Users/ZXC/Documents/mcu project/ti-project/clllc_nonpowerSUITE_F28004x/device/driver
    1222 0000003e F5A9          MOV       AL,*(0:0x0c0c)        ; [CPU_ALU] |165| 
         0000003f 0C0C 
    1223                      .dwpsn  file "../clllc_main.c",line 336,column 9,is_stmt,isa 0
    1224 00000040 C500!         MOVL      XAR7,@||B_Task_Ptr||  ; [CPU_ALU] |336| 
    1225                      .dwpsn  file "C:/Users/ZXC/Documents/mcu project/ti-project/clllc_nonpowerSUITE_F28004x/device/driver
    1226 00000041 1AA9          OR        AL,#0x8000            ; [CPU_ALU] |165| 
         00000042 8000 
    1227 00000043 F4A9          MOV       *(0:0x0c0c),AL        ; [CPU_ALU] |165| 
         00000044 0C0C 
    1228                      .dwpsn  file "../clllc_main.c",line 336,column 9,is_stmt,isa 0
    1229              $C$DW$111       .dwtag  DW_TAG_TI_branch
    1230                      .dwattr $C$DW$111, DW_AT_low_pc(0x00)
    1231                      .dwattr $C$DW$111, DW_AT_TI_call
    1232                      .dwattr $C$DW$111, DW_AT_TI_indirect
    1233              
    1234 00000045 3E67          LCR       *XAR7                 ; [CPU_ALU] |336| 
    1235                      ; call occurs [XAR7] ; [] |336| 
    1236 00000046 761F!         MOVW      DP,#||vTimer1||       ; [CPU_ARAU] 
         00000047 0000 
    1237                      .dwpsn  file "../clllc_main.c",line 338,column 9,is_stmt,isa 0
    1238 00000048 0A00!         INC       @||vTimer1||          ; [CPU_ALU] |338| 
    1239 00000049       ||$C$L2||:    
    1240                      .dwpsn  file "../clllc_main.c",line 344,column 5,is_stmt,isa 0
TMS320C2000 Assembler PC v22.6.0 Fri Aug 30 17:52:41 2024

Copyright (c) 1996-2018 Texas Instruments Incorporated
clllc_main.asm                                                       PAGE   24

    1241 00000049 8F00!         MOVL      XAR4,#||A0||          ; [CPU_ARAU] |344| 
         0000004a 0000 
    1242 0000004b 761F!         MOVW      DP,#||Alpha_State_Ptr|| ; [CPU_ARAU] 
         0000004c 0000 
    1243 0000004d A800!         MOVL      @||Alpha_State_Ptr||,XAR4 ; [CPU_ALU] |344| 
    1244              $C$DW$112       .dwtag  DW_TAG_TI_branch
    1245                      .dwattr $C$DW$112, DW_AT_low_pc(0x00)
    1246                      .dwattr $C$DW$112, DW_AT_TI_return
    1247              
    1248 0000004e 0006          LRETR     ; [CPU_ALU] 
    1249                      ; return occurs ; [] 
    1250                      .dwattr $C$DW$110, DW_AT_TI_end_file("../clllc_main.c")
    1251                      .dwattr $C$DW$110, DW_AT_TI_end_line(0x159)
    1252                      .dwattr $C$DW$110, DW_AT_TI_end_column(0x01)
    1253                      .dwendentry
    1254                      .dwendtag $C$DW$110
    1255              
    1256 0000004f               .sect   ".text"
    1257                      .clink
    1258                      .global ||main||
    1259              
    1260              $C$DW$113       .dwtag  DW_TAG_subprogram
    1261                      .dwattr $C$DW$113, DW_AT_name("main")
    1262                      .dwattr $C$DW$113, DW_AT_low_pc(||main||)
    1263                      .dwattr $C$DW$113, DW_AT_high_pc(0x00)
    1264                      .dwattr $C$DW$113, DW_AT_linkage_name("main")
    1265                      .dwattr $C$DW$113, DW_AT_external
    1266                      .dwattr $C$DW$113, DW_AT_decl_file("../clllc_main.c")
    1267                      .dwattr $C$DW$113, DW_AT_decl_line(0x49)
    1268                      .dwattr $C$DW$113, DW_AT_decl_column(0x06)
    1269                      .dwattr $C$DW$113, DW_AT_TI_max_frame_size(-4)
    1270                      .dwpsn  file "../clllc_main.c",line 74,column 1,is_stmt,address ||main||,isa 0
    1271              
    1272                      .dwfde $C$DW$CIE, ||main||
    1273              
    1274              ;***************************************************************
    1275              ;* FNAME: main                          FR SIZE:   2           *
    1276              ;*                                                             *
    1277              ;* FUNCTION ENVIRONMENT                                        *
    1278              ;*                                                             *
    1279              ;* FUNCTION PROPERTIES                                         *
    1280              ;*                            0 Parameter,  0 Auto,  2 SOE     *
    1281              ;***************************************************************
    1282              
    1283              ||main||:
    1284              ;* AR1   assigned to powerFlow
    1285              $C$DW$114       .dwtag  DW_TAG_variable
    1286                      .dwattr $C$DW$114, DW_AT_name("powerFlow")
    1287                      .dwattr $C$DW$114, DW_AT_type(*$C$DW$T$57)
    1288                      .dwattr $C$DW$114, DW_AT_location[DW_OP_reg6]
    1289              
    1290              ;* AL    assigned to tcrValue
    1291              $C$DW$115       .dwtag  DW_TAG_variable
    1292                      .dwattr $C$DW$115, DW_AT_name("tcrValue")
    1293                      .dwattr $C$DW$115, DW_AT_type(*$C$DW$T$57)
TMS320C2000 Assembler PC v22.6.0 Fri Aug 30 17:52:41 2024

Copyright (c) 1996-2018 Texas Instruments Incorporated
clllc_main.asm                                                       PAGE   25

    1294                      .dwattr $C$DW$115, DW_AT_location[DW_OP_reg0]
    1295              
    1296                      .dwcfi  cfa_offset, -2
    1297                      .dwcfi  save_reg_to_mem, 26, 0
    1298 0000004f B2BD          MOVL      *SP++,XAR1            ; [CPU_ALU] 
    1299                      .dwcfi  save_reg_to_mem, 7, 2
    1300                      .dwcfi  cfa_offset, -4
    1301                      .dwpsn  file "../clllc_main.c",line 82,column 5,is_stmt,isa 0
    1302              $C$DW$116       .dwtag  DW_TAG_TI_branch
    1303                      .dwattr $C$DW$116, DW_AT_low_pc(0x00)
    1304                      .dwattr $C$DW$116, DW_AT_name("CLLLC_HAL_setupDevice")
    1305                      .dwattr $C$DW$116, DW_AT_TI_call
    1306              
    1307 00000050 7640!         LCR       #||CLLLC_HAL_setupDevice|| ; [CPU_ALU] |82| 
         00000051 0000 
    1308                      ; call occurs [#||CLLLC_HAL_setupDevice||] ; [] |82| 
    1309                      .dwpsn  file "../clllc_main.c",line 87,column 5,is_stmt,isa 0
    1310              $C$DW$117       .dwtag  DW_TAG_TI_branch
    1311                      .dwattr $C$DW$117, DW_AT_low_pc(0x00)
    1312                      .dwattr $C$DW$117, DW_AT_name("CLLLC_initGlobalVariables")
    1313                      .dwattr $C$DW$117, DW_AT_TI_call
    1314              
    1315 00000052 7640!         LCR       #||CLLLC_initGlobalVariables|| ; [CPU_ALU] |87| 
         00000053 0000 
    1316                      ; call occurs [#||CLLLC_initGlobalVariables||] ; [] |87| 
    1317 00000054 761F!         MOVW      DP,#||Alpha_State_Ptr|| ; [CPU_ARAU] 
         00000055 0000 
    1318                      .dwpsn  file "../clllc_main.c",line 92,column 5,is_stmt,isa 0
    1319 00000056 7680!         MOVL      XAR6,#||A0||          ; [CPU_ARAU] |92| 
         00000057 0000 
    1320                      .dwpsn  file "../clllc_main.c",line 93,column 5,is_stmt,isa 0
    1321 00000058 8F40!         MOVL      XAR5,#||A1||          ; [CPU_ARAU] |93| 
         00000059 0000 
    1322                      .dwpsn  file "../clllc_main.c",line 94,column 5,is_stmt,isa 0
    1323 0000005a 8F00!         MOVL      XAR4,#||B1||          ; [CPU_ARAU] |94| 
         0000005b 0000 
    1324                      .dwpsn  file "../clllc_main.c",line 92,column 5,is_stmt,isa 0
    1325 0000005c C200!         MOVL      @||Alpha_State_Ptr||,XAR6 ; [CPU_ALU] |92| 
    1326                      .dwpsn  file "../clllc_main.c",line 93,column 5,is_stmt,isa 0
    1327 0000005d A000!         MOVL      @||A_Task_Ptr||,XAR5  ; [CPU_ALU] |93| 
    1328                      .dwpsn  file "../clllc_main.c",line 94,column 5,is_stmt,isa 0
    1329 0000005e A800!         MOVL      @||B_Task_Ptr||,XAR4  ; [CPU_ALU] |94| 
    1330                      .dwpsn  file "../clllc_main.c",line 99,column 5,is_stmt,isa 0
    1331              $C$DW$118       .dwtag  DW_TAG_TI_branch
    1332                      .dwattr $C$DW$118, DW_AT_low_pc(0x00)
    1333                      .dwattr $C$DW$118, DW_AT_name("CLLLC_HAL_disablePWMClkCounting")
    1334                      .dwattr $C$DW$118, DW_AT_TI_call
    1335              
    1336 0000005f 7640!         LCR       #||CLLLC_HAL_disablePWMClkCounting|| ; [CPU_ALU] |99| 
         00000060 0000 
    1337                      ; call occurs [#||CLLLC_HAL_disablePWMClkCounting||] ; [] |99| 
    1338 00000061 761F!         MOVW      DP,#||CLLLC_powerFlowStateActive|| ; [CPU_ARAU] 
         00000062 0000 
    1339                      .dwpsn  file "../clllc_main.c",line 105,column 5,is_stmt,isa 0
    1340 00000063 9200!         MOV       AL,@||CLLLC_powerFlowStateActive|| ; [CPU_ALU] |105| 
TMS320C2000 Assembler PC v22.6.0 Fri Aug 30 17:52:41 2024

Copyright (c) 1996-2018 Texas Instruments Incorporated
clllc_main.asm                                                       PAGE   26

    1341              $C$DW$119       .dwtag  DW_TAG_TI_branch
    1342                      .dwattr $C$DW$119, DW_AT_low_pc(0x00)
    1343                      .dwattr $C$DW$119, DW_AT_name("CLLLC_HAL_setupPWM")
    1344                      .dwattr $C$DW$119, DW_AT_TI_call
    1345              
    1346 00000064 7640!         LCR       #||CLLLC_HAL_setupPWM|| ; [CPU_ALU] |105| 
         00000065 0000 
    1347                      ; call occurs [#||CLLLC_HAL_setupPWM||] ; [] |105| 
    1348                      .dwpsn  file "../clllc_main.c",line 112,column 5,is_stmt,isa 0
    1349 00000066 E802          MOVIZ     R0H,#18371            ; [CPU_FPU] |112| 
         00000067 3E18 
    1350 00000068 E802          MOVIZ     R1H,#19646            ; [CPU_FPU] |112| 
         00000069 65F1 
    1351 0000006a FF20          MOV       ACC,#17408            ; [CPU_ALU] |112| 
         0000006b 4400 
    1352 0000006c E80A          MOVXI     R0H,#20480            ; [CPU_FPU] |112| 
         0000006d 8000 
    1353 0000006e E80D          MOVXI     R1H,#48160            ; [CPU_FPU] |112| 
         0000006f E101 
    1354              $C$DW$120       .dwtag  DW_TAG_TI_branch
    1355                      .dwattr $C$DW$120, DW_AT_low_pc(0x00)
    1356                      .dwattr $C$DW$120, DW_AT_name("CLLLC_HAL_setupPWMinUpDownCountMode")
    1357                      .dwattr $C$DW$120, DW_AT_TI_call
    1358              
    1359 00000070 7640!         LCR       #||CLLLC_HAL_setupPWMinUpDownCountMode|| ; [CPU_ALU] |112| 
         00000071 0000 
    1360                      ; call occurs [#||CLLLC_HAL_setupPWMinUpDownCountMode||] ; [] |112| 
    1361                      .dwpsn  file "../clllc_main.c",line 117,column 5,is_stmt,isa 0
    1362 00000072 E802          MOVIZ     R0H,#18371            ; [CPU_FPU] |117| 
         00000073 3E18 
    1363 00000074 E802          MOVIZ     R1H,#19646            ; [CPU_FPU] |117| 
         00000075 65F1 
    1364 00000076 FF20          MOV       ACC,#20992            ; [CPU_ALU] |117| 
         00000077 5200 
    1365 00000078 E80A          MOVXI     R0H,#20480            ; [CPU_FPU] |117| 
         00000079 8000 
    1366 0000007a E80D          MOVXI     R1H,#48160            ; [CPU_FPU] |117| 
         0000007b E101 
    1367              $C$DW$121       .dwtag  DW_TAG_TI_branch
    1368                      .dwattr $C$DW$121, DW_AT_low_pc(0x00)
    1369                      .dwattr $C$DW$121, DW_AT_name("CLLLC_HAL_setupECAPinPWMMode")
    1370                      .dwattr $C$DW$121, DW_AT_TI_call
    1371              
    1372 0000007c 7640!         LCR       #||CLLLC_HAL_setupECAPinPWMMode|| ; [CPU_ALU] |117| 
         0000007d 0000 
    1373                      ; call occurs [#||CLLLC_HAL_setupECAPinPWMMode||] ; [] |117| 
    1374                      .dwpsn  file "../clllc_main.c",line 125,column 5,is_stmt,isa 0
    1375              $C$DW$122       .dwtag  DW_TAG_TI_branch
    1376                      .dwattr $C$DW$122, DW_AT_low_pc(0x00)
    1377                      .dwattr $C$DW$122, DW_AT_name("CLLLC_HAL_setupADC")
    1378                      .dwattr $C$DW$122, DW_AT_TI_call
    1379              
    1380 0000007e 7640!         LCR       #||CLLLC_HAL_setupADC|| ; [CPU_ALU] |125| 
         0000007f 0000 
    1381                      ; call occurs [#||CLLLC_HAL_setupADC||] ; [] |125| 
TMS320C2000 Assembler PC v22.6.0 Fri Aug 30 17:52:41 2024

Copyright (c) 1996-2018 Texas Instruments Incorporated
clllc_main.asm                                                       PAGE   27

    1382                      .dwpsn  file "../clllc_main.c",line 130,column 5,is_stmt,isa 0
    1383              $C$DW$123       .dwtag  DW_TAG_TI_branch
    1384                      .dwattr $C$DW$123, DW_AT_low_pc(0x00)
    1385                      .dwattr $C$DW$123, DW_AT_name("CLLLC_HAL_setupIprimSensedSignalChain")
    1386                      .dwattr $C$DW$123, DW_AT_TI_call
    1387              
    1388 00000080 7640!         LCR       #||CLLLC_HAL_setupIprimSensedSignalChain|| ; [CPU_ALU] |130| 
         00000081 0000 
    1389                      ; call occurs [#||CLLLC_HAL_setupIprimSensedSignalChain||] ; [] |130| 
    1390                      .dwpsn  file "../clllc_main.c",line 135,column 5,is_stmt,isa 0
    1391              $C$DW$124       .dwtag  DW_TAG_TI_branch
    1392                      .dwattr $C$DW$124, DW_AT_low_pc(0x00)
    1393                      .dwattr $C$DW$124, DW_AT_name("CLLLC_HAL_setupProfilingGPIO")
    1394                      .dwattr $C$DW$124, DW_AT_TI_call
    1395              
    1396 00000082 7640!         LCR       #||CLLLC_HAL_setupProfilingGPIO|| ; [CPU_ALU] |135| 
         00000083 0000 
    1397                      ; call occurs [#||CLLLC_HAL_setupProfilingGPIO||] ; [] |135| 
    1398                      .dwpsn  file "../clllc_main.c",line 140,column 5,is_stmt,isa 0
    1399              $C$DW$125       .dwtag  DW_TAG_TI_branch
    1400                      .dwattr $C$DW$125, DW_AT_low_pc(0x00)
    1401                      .dwattr $C$DW$125, DW_AT_name("CLLLC_HAL_setupLED1")
    1402                      .dwattr $C$DW$125, DW_AT_TI_call
    1403              
    1404 00000084 7640!         LCR       #||CLLLC_HAL_setupLED1|| ; [CPU_ALU] |140| 
         00000085 0000 
    1405                      ; call occurs [#||CLLLC_HAL_setupLED1||] ; [] |140| 
    1406 00000086 761F!         MOVW      DP,#||CLLLC_powerFlowStateActive|| ; [CPU_ARAU] 
         00000087 0000 
    1407                      .dwpsn  file "../clllc_main.c",line 145,column 5,is_stmt,isa 0
    1408 00000088 9200!         MOV       AL,@||CLLLC_powerFlowStateActive|| ; [CPU_ALU] |145| 
    1409              $C$DW$126       .dwtag  DW_TAG_TI_branch
    1410                      .dwattr $C$DW$126, DW_AT_low_pc(0x00)
    1411                      .dwattr $C$DW$126, DW_AT_name("CLLLC_HAL_setupSynchronousRectificationAction")
    1412                      .dwattr $C$DW$126, DW_AT_TI_call
    1413              
    1414 00000089 7640!         LCR       #||CLLLC_HAL_setupSynchronousRectificationAction|| ; [CPU_ALU] |145| 
         0000008a 0000 
    1415                      ; call occurs [#||CLLLC_HAL_setupSynchronousRectificationAction||] ; [] |145| 
    1416 0000008b 761F!         MOVW      DP,#||CLLLC_powerFlowStateActive|| ; [CPU_ARAU] 
         0000008c 0000 
    1417                      .dwpsn  file "../clllc_main.c",line 152,column 5,is_stmt,isa 0
    1418 0000008d 9200!         MOV       AL,@||CLLLC_powerFlowStateActive|| ; [CPU_ALU] |152| 
    1419              $C$DW$127       .dwtag  DW_TAG_TI_branch
    1420                      .dwattr $C$DW$127, DW_AT_low_pc(0x00)
    1421                      .dwattr $C$DW$127, DW_AT_name("CLLLC_HAL_setupSynchronousRectificationActionDebug")
    1422                      .dwattr $C$DW$127, DW_AT_TI_call
    1423              
    1424 0000008e 7640!         LCR       #||CLLLC_HAL_setupSynchronousRectificationActionDebug|| ; [CPU_ALU] |152| 
         0000008f 0000 
    1425                      ; call occurs [#||CLLLC_HAL_setupSynchronousRectificationActionDebug||] ; [] |152| 
    1426                      .dwpsn  file "../clllc_main.c",line 160,column 5,is_stmt,isa 0
    1427              $C$DW$128       .dwtag  DW_TAG_TI_branch
    1428                      .dwattr $C$DW$128, DW_AT_low_pc(0x00)
    1429                      .dwattr $C$DW$128, DW_AT_name("CLLLC_HAL_setupBoardProtection")
TMS320C2000 Assembler PC v22.6.0 Fri Aug 30 17:52:41 2024

Copyright (c) 1996-2018 Texas Instruments Incorporated
clllc_main.asm                                                       PAGE   28

    1430                      .dwattr $C$DW$128, DW_AT_TI_call
    1431              
    1432 00000090 7640!         LCR       #||CLLLC_HAL_setupBoardProtection|| ; [CPU_ALU] |160| 
         00000091 0000 
    1433                      ; call occurs [#||CLLLC_HAL_setupBoardProtection||] ; [] |160| 
    1434                      .dwpsn  file "../clllc_main.c",line 168,column 5,is_stmt,isa 0
    1435              $C$DW$129       .dwtag  DW_TAG_TI_branch
    1436                      .dwattr $C$DW$129, DW_AT_low_pc(0x00)
    1437                      .dwattr $C$DW$129, DW_AT_name("CLLLC_setBuildLevelIndicatorVariable")
    1438                      .dwattr $C$DW$129, DW_AT_TI_call
    1439              
    1440 00000092 7640!         LCR       #||CLLLC_setBuildLevelIndicatorVariable|| ; [CPU_ALU] |168| 
         00000093 0000 
    1441                      ; call occurs [#||CLLLC_setBuildLevelIndicatorVariable||] ; [] |168| 
    1442                      .dwpsn  file "../clllc_main.c",line 174,column 5,is_stmt,isa 0
    1443              $C$DW$130       .dwtag  DW_TAG_TI_branch
    1444                      .dwattr $C$DW$130, DW_AT_low_pc(0x00)
    1445                      .dwattr $C$DW$130, DW_AT_name("CLLLC_HAL_setupTrigForADC")
    1446                      .dwattr $C$DW$130, DW_AT_TI_call
    1447              
    1448 00000094 7640!         LCR       #||CLLLC_HAL_setupTrigForADC|| ; [CPU_ALU] |174| 
         00000095 0000 
    1449                      ; call occurs [#||CLLLC_HAL_setupTrigForADC||] ; [] |174| 
    1450                      .dwpsn  file "../clllc_main.c",line 179,column 5,is_stmt,isa 0
    1451 00000096 9A03          MOVB      AL,#3                 ; [CPU_ALU] |179| 
    1452              $C$DW$131       .dwtag  DW_TAG_TI_branch
    1453                      .dwattr $C$DW$131, DW_AT_low_pc(0x00)
    1454                      .dwattr $C$DW$131, DW_AT_name("CLLLC_HAL_setupPWMpins")
    1455                      .dwattr $C$DW$131, DW_AT_TI_call
    1456              
    1457 00000097 7640!         LCR       #||CLLLC_HAL_setupPWMpins|| ; [CPU_ALU] |179| 
         00000098 0000 
    1458                      ; call occurs [#||CLLLC_HAL_setupPWMpins||] ; [] |179| 
    1459                      .dwpsn  file "C:/Users/ZXC/Documents/mcu project/ti-project/clllc_nonpowerSUITE_F28004x/device/driver
    1460 00000099 F5A9          MOV       AL,*(0:0x40a4)        ; [CPU_ALU] |4766| 
         0000009a 40A4 
    1461 0000009b 761F!         MOVW      DP,#||CLLLC_powerFlowStateActive|| ; [CPU_ARAU] 
         0000009c 0000 
    1462 0000009d 5040          ORB       AL,#0x40              ; [CPU_ALU] |4766| 
    1463 0000009e F4A9          MOV       *(0:0x40a4),AL        ; [CPU_ALU] |4766| 
         0000009f 40A4 
    1464                      .dwpsn  file "C:/Users/ZXC/Documents/mcu project/ti-project/clllc_nonpowerSUITE_F28004x/device/driver
    1465 000000a0 F5A9          MOV       AL,*(0:0x40a4)        ; [CPU_ALU] |4788| 
         000000a1 40A4 
    1466                      .dwpsn  file "..\clllc_hal.h",line 414,column 1,is_stmt,isa 0
    1467 000000a2 5900!         MOVZ      AR1,@||CLLLC_powerFlowStateActive|| ; [CPU_ALU] |414| 
    1468                      .dwpsn  file "C:/Users/ZXC/Documents/mcu project/ti-project/clllc_nonpowerSUITE_F28004x/device/driver
    1469 000000a3 CCA9          AND       AL,AL,#0xfffc         ; [CPU_ALU] |4788| 
         000000a4 FFFC 
    1470 000000a5 5004          ORB       AL,#0x04              ; [CPU_ALU] |4788| 
    1471 000000a6 F4A9          MOV       *(0:0x40a4),AL        ; [CPU_ALU] |4788| 
         000000a7 40A4 
    1472                      .dwpsn  file "C:/Users/ZXC/Documents/mcu project/ti-project/clllc_nonpowerSUITE_F28004x/device/driver
    1473 000000a8 9AB5          MOVB      AL,#181               ; [CPU_ALU] |2452| 
    1474 000000a9 F4A9          MOV       *(0:0x406f),AL        ; [CPU_ALU] |2452| 
TMS320C2000 Assembler PC v22.6.0 Fri Aug 30 17:52:41 2024

Copyright (c) 1996-2018 Texas Instruments Incorporated
clllc_main.asm                                                       PAGE   29

         000000aa 406F 
    1475                      .dwpsn  file "C:/Users/ZXC/Documents/mcu project/ti-project/clllc_nonpowerSUITE_F28004x/device/driver
    1476 000000ab F5A9          MOV       AL,*(0:0x40a6)        ; [CPU_ALU] |4818| 
         000000ac 40A6 
    1477 000000ad 5010          ORB       AL,#0x10              ; [CPU_ALU] |4818| 
    1478 000000ae F4A9          MOV       *(0:0x40a6),AL        ; [CPU_ALU] |4818| 
         000000af 40A6 
    1479                      .dwpsn  file "C:/Users/ZXC/Documents/mcu project/ti-project/clllc_nonpowerSUITE_F28004x/device/driver
    1480 000000b0 F5A9          MOV       AL,*(0:0x40ae)        ; [CPU_ALU] |4819| 
         000000b1 40AE 
    1481 000000b2 CCA9          AND       AL,AL,#0xfff0         ; [CPU_ALU] |4819| 
         000000b3 FFF0 
    1482 000000b4 5001          ORB       AL,#0x01              ; [CPU_ALU] |4819| 
    1483 000000b5 F4A9          MOV       *(0:0x40ae),AL        ; [CPU_ALU] |4819| 
         000000b6 40AE 
    1484                      .dwpsn  file "C:/Users/ZXC/Documents/mcu project/ti-project/clllc_nonpowerSUITE_F28004x/device/driver
    1485 000000b7 F5A9          MOV       AL,*(0:0x40aa)        ; [CPU_ALU] |4873| 
         000000b8 40AA 
    1486 000000b9 5001          ORB       AL,#0x01              ; [CPU_ALU] |4873| 
    1487 000000ba F4A9          MOV       *(0:0x40aa),AL        ; [CPU_ALU] |4873| 
         000000bb 40AA 
    1488                      .dwpsn  file "C:/Users/ZXC/Documents/mcu project/ti-project/clllc_nonpowerSUITE_F28004x/device/driver
    1489 000000bc F5A9          MOV       AL,*(0:0x40a4)        ; [CPU_ALU] |4684| 
         000000bd 40A4 
    1490 000000be 5008          ORB       AL,#0x08              ; [CPU_ALU] |4684| 
    1491 000000bf F4A9          MOV       *(0:0x40a4),AL        ; [CPU_ALU] |4684| 
         000000c0 40A4 
    1492                      .dwpsn  file "C:/Users/ZXC/Documents/mcu project/ti-project/clllc_nonpowerSUITE_F28004x/device/driver
    1493 000000c1 7622          EALLOW    ; [CPU_ALU] |558| 
    1494                      .dwpsn  file "C:/Users/ZXC/Documents/mcu project/ti-project/clllc_nonpowerSUITE_F28004x/device/driver
    1495 000000c2 F5A9          MOV       AL,*(0:0x5216)        ; [CPU_ALU] |563| 
         000000c3 5216 
    1496 000000c4 5040          ORB       AL,#0x40              ; [CPU_ALU] |563| 
    1497 000000c5 F4A9          MOV       *(0:0x5216),AL        ; [CPU_ALU] |563| 
         000000c6 5216 
    1498                      .dwpsn  file "C:/Users/ZXC/Documents/mcu project/ti-project/clllc_nonpowerSUITE_F28004x/device/driver
    1499 000000c7 761A          EDIS      ; [CPU_ALU] |564| 
    1500                      .dwpsn  file "C:/Users/ZXC/Documents/mcu project/ti-project/clllc_nonpowerSUITE_F28004x/device/driver
    1501 000000c8 F5A9          MOV       AL,*(0:0x0c14)        ; [CPU_ALU] |208| 
         000000c9 0C14 
    1502 000000ca CCA9          AND       AL,AL,#0x7fff         ; [CPU_ALU] |208| 
         000000cb 7FFF 
    1503                      .dwpsn  file "C:/Users/ZXC/Documents/mcu project/ti-project/clllc_nonpowerSUITE_F28004x/device/driver
    1504 000000cc 1AA9          OR        AL,#0x4000            ; [CPU_ALU] |209| 
         000000cd 4000 
    1505 000000ce F4A9          MOV       *(0:0x0c14),AL        ; [CPU_ALU] |209| 
         000000cf 0C14 
    1506                      .dwpsn  file "C:/Users/ZXC/Documents/mcu project/ti-project/clllc_nonpowerSUITE_F28004x/device/driver
    1507 000000d0 F5A9          MOV       AL,*(0:0x0c14)        ; [CPU_ALU] |165| 
         000000d1 0C14 
    1508 000000d2 1AA9          OR        AL,#0x8000            ; [CPU_ALU] |165| 
         000000d3 8000 
    1509 000000d4 F4A9          MOV       *(0:0x0c14),AL        ; [CPU_ALU] |165| 
         000000d5 0C14 
    1510                      .dwpsn  file "C:/Users/ZXC/Documents/mcu project/ti-project/clllc_nonpowerSUITE_F28004x/device/driver
TMS320C2000 Assembler PC v22.6.0 Fri Aug 30 17:52:41 2024

Copyright (c) 1996-2018 Texas Instruments Incorporated
clllc_main.asm                                                       PAGE   30

    1511 000000d6 7622          EALLOW    ; [CPU_ALU] |1833| 
    1512                      .dwpsn  file "C:/Users/ZXC/Documents/mcu project/ti-project/clllc_nonpowerSUITE_F28004x/device/driver
    1513 000000d7 F5A9          MOV       AL,*(0:0x7507)        ; [CPU_ALU] |1835| 
         000000d8 7507 
    1514 000000d9 18A9          AND       AL,#0xfcff            ; [CPU_ALU] |1835| 
         000000da FCFF 
    1515 000000db 1AA9          OR        AL,#0x0c00            ; [CPU_ALU] |1835| 
         000000dc 0C00 
    1516 000000dd F4A9          MOV       *(0:0x7507),AL        ; [CPU_ALU] |1835| 
         000000de 7507 
    1517                      .dwpsn  file "C:/Users/ZXC/Documents/mcu project/ti-project/clllc_nonpowerSUITE_F28004x/device/driver
    1518 000000df F5A9          MOV       AL,*(0:0x7507)        ; [CPU_ALU] |1737| 
         000000e0 7507 
    1519 000000e1 1AA9          OR        AL,#0x2000            ; [CPU_ALU] |1737| 
         000000e2 2000 
    1520 000000e3 F4A9          MOV       *(0:0x7507),AL        ; [CPU_ALU] |1737| 
         000000e4 7507 
    1521                      .dwpsn  file "C:/Users/ZXC/Documents/mcu project/ti-project/clllc_nonpowerSUITE_F28004x/device/driver
    1522 000000e5 F5A9          MOV       AL,*(0:0x7507)        ; [CPU_ALU] |1884| 
         000000e6 7507 
    1523 000000e7 1AA9          OR        AL,#0x4000            ; [CPU_ALU] |1884| 
         000000e8 4000 
    1524 000000e9 F4A9          MOV       *(0:0x7507),AL        ; [CPU_ALU] |1884| 
         000000ea 7507 
    1525                      .dwpsn  file "C:/Users/ZXC/Documents/mcu project/ti-project/clllc_nonpowerSUITE_F28004x/device/driver
    1526 000000eb 761A          EDIS      ; [CPU_ALU] |1886| 
    1527                      .dwpsn  file "C:/Users/ZXC/Documents/mcu project/ti-project/clllc_nonpowerSUITE_F28004x/device/driver
    1528 000000ec 9A02          MOVB      AL,#2                 ; [CPU_ALU] |814| 
    1529 000000ed F4A9          MOV       *(0:0x7504),AL        ; [CPU_ALU] |814| 
         000000ee 7504 
    1530                      .dwpsn  file "C:\Users\ZXC\Documents\mcu project\ti-project\clllc_nonpowerSUITE_F28004x\device\driver
    1531 000000ef 7622          EALLOW    ; [CPU_ALU] |256| 
    1532                      .dwpsn  file "C:\Users\ZXC\Documents\mcu project\ti-project\clllc_nonpowerSUITE_F28004x\device\driver
    1533 000000f0 8F00!         MOVL      XAR4,#||ISR1||        ; [CPU_ARAU] |257| 
         000000f1 0000 
    1534 000000f2 BDA4          MOV32     *(0:0x0d60),XAR4      ; [CPU_FPU] |257| 
         000000f3 0D60 
    1535                      .dwpsn  file "C:\Users\ZXC\Documents\mcu project\ti-project\clllc_nonpowerSUITE_F28004x\device\driver
    1536 000000f4 761A          EDIS      ; [CPU_ALU] |258| 
    1537                      .dwpsn  file "C:\Users\ZXC\Documents\mcu project\ti-project\clllc_nonpowerSUITE_F28004x\device\driver
    1538 000000f5 9A04          MOVB      AL,#4                 ; [CPU_ALU] |377| 
    1539                      .dwpsn  file "..\clllc_hal.h",line 450,column 9,is_stmt,isa 0
    1540 000000f6 8F30          MOVL      XAR4,#3146497         ; [CPU_ARAU] |450| 
         000000f7 0301 
    1541                      .dwpsn  file "C:\Users\ZXC\Documents\mcu project\ti-project\clllc_nonpowerSUITE_F28004x\device\driver
    1542 000000f8 F4A9          MOV       *(0:0x0ce1),AL        ; [CPU_ALU] |377| 
         000000f9 0CE1 
    1543                      .dwpsn  file "..\clllc_hal.h",line 450,column 9,is_stmt,isa 0
    1544 000000fa A8A9          MOVL      ACC,XAR4              ; [CPU_ALU] |450| 
    1545              $C$DW$132       .dwtag  DW_TAG_TI_branch
    1546                      .dwattr $C$DW$132, DW_AT_low_pc(0x00)
    1547                      .dwattr $C$DW$132, DW_AT_name("Interrupt_enable")
    1548                      .dwattr $C$DW$132, DW_AT_TI_call
    1549              
    1550 000000fb 7640!         LCR       #||Interrupt_enable|| ; [CPU_ALU] |450| 
TMS320C2000 Assembler PC v22.6.0 Fri Aug 30 17:52:41 2024

Copyright (c) 1996-2018 Texas Instruments Incorporated
clllc_main.asm                                                       PAGE   31

         000000fc 0000 
    1551                      ; call occurs [#||Interrupt_enable||] ; [] |450| 
    1552 000000fd 92A1          MOV       AL,AR1                ; [CPU_ALU] |450| 
    1553                      .dwpsn  file "..\clllc_hal.h",line 454,column 9,is_stmt,isa 0
    1554 000000fe 5202          CMPB      AL,#2                 ; [CPU_ALU] |454| 
    1555 000000ff 6105          B         ||$C$L3||,EQ          ; [CPU_ALU] |454| 
    1556                      ; branchcc occurs ; [] |454| 
    1557                      .dwpsn  file "C:\Users\ZXC\Documents\mcu project\ti-project\clllc_nonpowerSUITE_F28004x\device\driver
    1558 00000100 7622          EALLOW    ; [CPU_ALU] |256| 
    1559                      .dwpsn  file "C:\Users\ZXC\Documents\mcu project\ti-project\clllc_nonpowerSUITE_F28004x\device\driver
    1560 00000101 8F00!         MOVL      XAR4,#||ISR2_primToSecPowerFlow|| ; [CPU_ARAU] |257| 
         00000102 0000 
    1561                      .dwpsn  file "..\clllc_hal.h",line 460,column 13,is_stmt,isa 0
    1562 00000103 6F04          B         ||$C$L4||,UNC         ; [CPU_ALU] |460| 
    1563                      ; branch occurs ; [] |460| 
    1564 00000104       ||$C$L3||:    
    1565                      .dwpsn  file "C:\Users\ZXC\Documents\mcu project\ti-project\clllc_nonpowerSUITE_F28004x\device\driver
    1566 00000104 7622          EALLOW    ; [CPU_ALU] |256| 
    1567                      .dwpsn  file "C:\Users\ZXC\Documents\mcu project\ti-project\clllc_nonpowerSUITE_F28004x\device\driver
    1568 00000105 8F00!         MOVL      XAR4,#||ISR2_secToPrimPowerFlow|| ; [CPU_ARAU] |257| 
         00000106 0000 
    1569 00000107       ||$C$L4||:    
    1570 00000107 BDA4          MOV32     *(0:0x0d70),XAR4      ; [CPU_FPU] |257| 
         00000108 0D70 
    1571                      .dwpsn  file "C:\Users\ZXC\Documents\mcu project\ti-project\clllc_nonpowerSUITE_F28004x\device\driver
    1572 00000109 761A          EDIS      ; [CPU_ALU] |258| 
    1573                      .dwpsn  file "C:\Users\ZXC\Documents\mcu project\ti-project\clllc_nonpowerSUITE_F28004x\device\driver
    1574 0000010a 9A08          MOVB      AL,#8                 ; [CPU_ALU] |377| 
    1575 0000010b F4A9          MOV       *(0:0x0ce1),AL        ; [CPU_ALU] |377| 
         0000010c 0CE1 
    1576                      .dwpsn  file "..\clllc_hal.h",line 463,column 9,is_stmt,isa 0
    1577 0000010d 8F38          MOVL      XAR4,#3671041         ; [CPU_ARAU] |463| 
         0000010e 0401 
    1578 0000010f A8A9          MOVL      ACC,XAR4              ; [CPU_ALU] |463| 
    1579              $C$DW$133       .dwtag  DW_TAG_TI_branch
    1580                      .dwattr $C$DW$133, DW_AT_low_pc(0x00)
    1581                      .dwattr $C$DW$133, DW_AT_name("Interrupt_enable")
    1582                      .dwattr $C$DW$133, DW_AT_TI_call
    1583              
    1584 00000110 7640!         LCR       #||Interrupt_enable|| ; [CPU_ALU] |463| 
         00000111 0000 
    1585                      ; call occurs [#||Interrupt_enable||] ; [] |463| 
    1586                      .dwpsn  file "C:\Users\ZXC\Documents\mcu project\ti-project\clllc_nonpowerSUITE_F28004x\device\driver
    1587 00000112 7622          EALLOW    ; [CPU_ALU] |256| 
    1588                      .dwpsn  file "C:\Users\ZXC\Documents\mcu project\ti-project\clllc_nonpowerSUITE_F28004x\device\driver
    1589 00000113 8F00!         MOVL      XAR4,#||ISR3||        ; [CPU_ARAU] |257| 
         00000114 0000 
    1590 00000115 BDA4          MOV32     *(0:0x0e92),XAR4      ; [CPU_FPU] |257| 
         00000116 0E92 
    1591                      .dwpsn  file "C:\Users\ZXC\Documents\mcu project\ti-project\clllc_nonpowerSUITE_F28004x\device\driver
    1592 00000117 761A          EDIS      ; [CPU_ALU] |258| 
    1593                      .dwpsn  file "..\clllc_hal.h",line 467,column 5,is_stmt,isa 0
    1594 00000118 28A9          MOV       AL,#2570              ; [CPU_ALU] |467| 
         00000119 0A0A 
    1595 0000011a 9BC9          MOV       AH,#201               ; [CPU_ALU] |467| 
TMS320C2000 Assembler PC v22.6.0 Fri Aug 30 17:52:41 2024

Copyright (c) 1996-2018 Texas Instruments Incorporated
clllc_main.asm                                                       PAGE   32

    1596              $C$DW$134       .dwtag  DW_TAG_TI_branch
    1597                      .dwattr $C$DW$134, DW_AT_low_pc(0x00)
    1598                      .dwattr $C$DW$134, DW_AT_name("Interrupt_enable")
    1599                      .dwattr $C$DW$134, DW_AT_TI_call
    1600              
    1601 0000011b 7640!         LCR       #||Interrupt_enable|| ; [CPU_ALU] |467| 
         0000011c 0000 
    1602                      ; call occurs [#||Interrupt_enable||] ; [] |467| 
    1603                      .dwpsn  file "..\clllc_hal.h",line 469,column 5,is_stmt,isa 0
    1604 0000011d 7622          EALLOW    ; [CPU_ALU] |469| 
    1605 0000011e 2910   clrc INTM
    1606 0000011f 2920   clrc DBGM
    1607                      .dwpsn  file "..\clllc_hal.h",line 478,column 5,is_stmt,isa 0
    1608 00000120 761A          EDIS      ; [CPU_ALU] |478| 
    1609 00000121 FF69          SPM       #0                    ; [CPU_ALU] 
    1610                      .dwpsn  file "../clllc_main.c",line 197,column 5,is_stmt,isa 0
    1611              $C$DW$135       .dwtag  DW_TAG_TI_branch
    1612                      .dwattr $C$DW$135, DW_AT_low_pc(0x00)
    1613                      .dwattr $C$DW$135, DW_AT_name("CLLLC_HAL_enablePWMClkCounting")
    1614                      .dwattr $C$DW$135, DW_AT_TI_call
    1615              
    1616 00000122 7640!         LCR       #||CLLLC_HAL_enablePWMClkCounting|| ; [CPU_ALU] |197| 
         00000123 0000 
    1617                      ; call occurs [#||CLLLC_HAL_enablePWMClkCounting||] ; [] |197| 
    1618 00000124       ||$C$L5||:    
    1619 00000124 761F!         MOVW      DP,#||Alpha_State_Ptr|| ; [CPU_ARAU] 
         00000125 0000 
    1620                      .dwpsn  file "../clllc_main.c",line 210,column 9,is_stmt,isa 0
    1621 00000126 C500!         MOVL      XAR7,@||Alpha_State_Ptr|| ; [CPU_ALU] |210| 
    1622              $C$DW$136       .dwtag  DW_TAG_TI_branch
    1623                      .dwattr $C$DW$136, DW_AT_low_pc(0x00)
    1624                      .dwattr $C$DW$136, DW_AT_TI_call
    1625                      .dwattr $C$DW$136, DW_AT_TI_indirect
    1626              
    1627 00000127 3E67          LCR       *XAR7                 ; [CPU_ALU] |210| 
    1628                      ; call occurs [XAR7] ; [] |210| 
    1629                      .dwpsn  file "../clllc_main.c",line 214,column 5,is_stmt,isa 0
    1630 00000128 6FFC          B         ||$C$L5||,UNC         ; [CPU_ALU] |214| 
    1631                      ; branch occurs ; [] |214| 
    1632                      .dwattr $C$DW$113, DW_AT_TI_end_file("../clllc_main.c")
    1633                      .dwattr $C$DW$113, DW_AT_TI_end_line(0xd7)
    1634                      .dwattr $C$DW$113, DW_AT_TI_end_column(0x01)
    1635                      .dwendentry
    1636                      .dwendtag $C$DW$113
    1637              
    1638 00000000               .sect   ".text:__signbitl"
    1639                      .clink
    1640                      .global ||__signbitl||
    1641              
    1642              $C$DW$137       .dwtag  DW_TAG_subprogram
    1643                      .dwattr $C$DW$137, DW_AT_name("__signbitl")
    1644                      .dwattr $C$DW$137, DW_AT_low_pc(||__signbitl||)
    1645                      .dwattr $C$DW$137, DW_AT_high_pc(0x00)
    1646                      .dwattr $C$DW$137, DW_AT_linkage_name("__signbitl")
    1647                      .dwattr $C$DW$137, DW_AT_external
TMS320C2000 Assembler PC v22.6.0 Fri Aug 30 17:52:41 2024

Copyright (c) 1996-2018 Texas Instruments Incorporated
clllc_main.asm                                                       PAGE   33

    1648                      .dwattr $C$DW$137, DW_AT_type(*$C$DW$T$10)
    1649                      .dwattr $C$DW$137, DW_AT_decl_file("C:/ti/ccs1240/ccs/tools/compiler/ti-cgt-c2000_22.6.0.LTS/include/
    1650                      .dwattr $C$DW$137, DW_AT_decl_line(0x16f)
    1651                      .dwattr $C$DW$137, DW_AT_decl_column(0x18)
    1652                      .dwattr $C$DW$137, DW_AT_TI_max_frame_size(-6)
    1653                      .dwpsn  file "C:/ti/ccs1240/ccs/tools/compiler/ti-cgt-c2000_22.6.0.LTS/include/_defs.h",line 368,colu
    1654              
    1655                      .dwfde $C$DW$CIE, ||__signbitl||
    1656              $C$DW$138       .dwtag  DW_TAG_formal_parameter
    1657                      .dwattr $C$DW$138, DW_AT_name("e")
    1658                      .dwattr $C$DW$138, DW_AT_type(*$C$DW$T$101)
    1659                      .dwattr $C$DW$138, DW_AT_location[DW_OP_reg12]
    1660              
    1661              
    1662              ;***************************************************************
    1663              ;* FNAME: __signbitl                    FR SIZE:   4           *
    1664              ;*                                                             *
    1665              ;* FUNCTION ENVIRONMENT                                        *
    1666              ;*                                                             *
    1667              ;* FUNCTION PROPERTIES                                         *
    1668              ;*                            4 Parameter,  0 Auto,  0 SOE     *
    1669              ;***************************************************************
    1670              
    1671              ||__signbitl||:
    1672              ;* AR4   assigned to e
    1673              $C$DW$139       .dwtag  DW_TAG_variable
    1674                      .dwattr $C$DW$139, DW_AT_name("e")
    1675                      .dwattr $C$DW$139, DW_AT_type(*$C$DW$T$102)
    1676                      .dwattr $C$DW$139, DW_AT_location[DW_OP_reg12]
    1677              
    1678                      .dwcfi  cfa_offset, -2
    1679                      .dwcfi  save_reg_to_mem, 26, 0
    1680 00000000 FE04          ADDB      SP,#4                 ; [CPU_ARAU] 
    1681                      .dwcfi  cfa_offset, -6
    1682                      .dwpsn  file "C:/ti/ccs1240/ccs/tools/compiler/ti-cgt-c2000_22.6.0.LTS/include/_defs.h",line 368,colu
    1683 00000001 0200          MOVB      ACC,#0                ; [CPU_ALU] |368| 
    1684 00000002 1E44          MOVL      *-SP[4],ACC           ; [CPU_ALU] |368| 
    1685 00000003 2B42          MOV       *-SP[2],#0            ; [CPU_ALU] |368| 
    1686 00000004 2B41          MOV       *-SP[1],#0            ; [CPU_ALU] |368| 
    1687 00000005 A3C4          MOVL      P,*+XAR4[0]           ; [CPU_ALU] |368| 
    1688 00000006 06D4          MOVL      ACC,*+XAR4[2]         ; [CPU_ALU] |368| 
    1689 00000007 18AB          AND       PL,#0                 ; [CPU_ALU] |368| 
         00000008 0000 
    1690 00000009 18AA          AND       PH,#0                 ; [CPU_ALU] |368| 
         0000000a 0000 
    1691 0000000b 9000          ANDB      AL,#0                 ; [CPU_ALU] |368| 
    1692 0000000c 18A8          AND       AH,#32768             ; [CPU_ALU] |368| 
         0000000d 8000 
    1693              $C$DW$140       .dwtag  DW_TAG_TI_branch
    1694                      .dwattr $C$DW$140, DW_AT_low_pc(0x00)
    1695                      .dwattr $C$DW$140, DW_AT_name("__c28xabi_cmpull")
    1696                      .dwattr $C$DW$140, DW_AT_TI_call
    1697              
    1698 0000000e 7640!         LCR       #||__c28xabi_cmpull|| ; [CPU_ALU] |368| 
         0000000f 0000 
TMS320C2000 Assembler PC v22.6.0 Fri Aug 30 17:52:41 2024

Copyright (c) 1996-2018 Texas Instruments Incorporated
clllc_main.asm                                                       PAGE   34

    1699                      ; call occurs [#||__c28xabi_cmpull||] ; [] |368| 
    1700 00000010 9B00          MOVB      AH,#0                 ; [CPU_ALU] |368| 
    1701 00000011 5200          CMPB      AL,#0                 ; [CPU_ALU] |368| 
    1702 00000012 56B0          MOVB      AH,#1,NEQ             ; [CPU_ALU] |368| 
         00000013 01A8 
    1703 00000014 92A8          MOV       AL,AH                 ; [CPU_ALU] |368| 
    1704 00000015 FE84          SUBB      SP,#4                 ; [CPU_ARAU] 
    1705                      .dwcfi  cfa_offset, -2
    1706              $C$DW$141       .dwtag  DW_TAG_TI_branch
    1707                      .dwattr $C$DW$141, DW_AT_low_pc(0x00)
    1708                      .dwattr $C$DW$141, DW_AT_TI_return
    1709              
    1710 00000016 0006          LRETR     ; [CPU_ALU] 
    1711                      ; return occurs ; [] 
    1712                      .dwattr $C$DW$137, DW_AT_TI_end_file("C:/ti/ccs1240/ccs/tools/compiler/ti-cgt-c2000_22.6.0.LTS/includ
    1713                      .dwattr $C$DW$137, DW_AT_TI_end_line(0x170)
    1714                      .dwattr $C$DW$137, DW_AT_TI_end_column(0x2b)
    1715                      .dwendentry
    1716                      .dwendtag $C$DW$137
    1717              
    1718 00000000               .sect   ".text:__signbitf"
    1719                      .clink
    1720                      .global ||__signbitf||
    1721              
    1722              $C$DW$142       .dwtag  DW_TAG_subprogram
    1723                      .dwattr $C$DW$142, DW_AT_name("__signbitf")
    1724                      .dwattr $C$DW$142, DW_AT_low_pc(||__signbitf||)
    1725                      .dwattr $C$DW$142, DW_AT_high_pc(0x00)
    1726                      .dwattr $C$DW$142, DW_AT_linkage_name("__signbitf")
    1727                      .dwattr $C$DW$142, DW_AT_external
    1728                      .dwattr $C$DW$142, DW_AT_type(*$C$DW$T$10)
    1729                      .dwattr $C$DW$142, DW_AT_decl_file("C:/ti/ccs1240/ccs/tools/compiler/ti-cgt-c2000_22.6.0.LTS/include/
    1730                      .dwattr $C$DW$142, DW_AT_decl_line(0x16d)
    1731                      .dwattr $C$DW$142, DW_AT_decl_column(0x18)
    1732                      .dwattr $C$DW$142, DW_AT_TI_max_frame_size(-2)
    1733                      .dwpsn  file "C:/ti/ccs1240/ccs/tools/compiler/ti-cgt-c2000_22.6.0.LTS/include/_defs.h",line 366,colu
    1734              
    1735                      .dwfde $C$DW$CIE, ||__signbitf||
    1736              $C$DW$143       .dwtag  DW_TAG_formal_parameter
    1737                      .dwattr $C$DW$143, DW_AT_name("f")
    1738                      .dwattr $C$DW$143, DW_AT_type(*$C$DW$T$16)
    1739                      .dwattr $C$DW$143, DW_AT_location[DW_OP_regx 0x2b]
    1740              
    1741              
    1742              ;***************************************************************
    1743              ;* FNAME: __signbitf                    FR SIZE:   0           *
    1744              ;*                                                             *
    1745              ;* FUNCTION ENVIRONMENT                                        *
    1746              ;*                                                             *
    1747              ;* FUNCTION PROPERTIES                                         *
    1748              ;*                            0 Parameter,  0 Auto,  0 SOE     *
    1749              ;***************************************************************
    1750              
    1751              ||__signbitf||:
    1752              ;* R0    assigned to f
TMS320C2000 Assembler PC v22.6.0 Fri Aug 30 17:52:41 2024

Copyright (c) 1996-2018 Texas Instruments Incorporated
clllc_main.asm                                                       PAGE   35

    1753              $C$DW$144       .dwtag  DW_TAG_variable
    1754                      .dwattr $C$DW$144, DW_AT_name("f")
    1755                      .dwattr $C$DW$144, DW_AT_type(*$C$DW$T$93)
    1756                      .dwattr $C$DW$144, DW_AT_location[DW_OP_regx 0x2b]
    1757              
    1758                      .dwcfi  cfa_offset, -2
    1759                      .dwcfi  save_reg_to_mem, 26, 0
    1760                      .dwpsn  file "C:/ti/ccs1240/ccs/tools/compiler/ti-cgt-c2000_22.6.0.LTS/include/_defs.h",line 366,colu
    1761 00000000 BFA9          MOV32     ACC,R0H               ; [CPU_FPU] |366| 
         00000001 0F12 
    1762 00000002 BE00          MOVB      XAR6,#0               ; [CPU_ALU] |366| 
    1763 00000003 9000          ANDB      AL,#0                 ; [CPU_ALU] |366| 
    1764 00000004 18A8          AND       AH,#32768             ; [CPU_ALU] |366| 
         00000005 8000 
    1765 00000006 FF58          TEST      ACC                   ; [CPU_ALU] |366| 
    1766 00000007 56B0          MOVB      XAR6,#1,NEQ           ; [CPU_ALU] |366| 
         00000008 01A6 
    1767 00000009 92A6          MOV       AL,AR6                ; [CPU_ALU] |366| 
    1768              $C$DW$145       .dwtag  DW_TAG_TI_branch
    1769                      .dwattr $C$DW$145, DW_AT_low_pc(0x00)
    1770                      .dwattr $C$DW$145, DW_AT_TI_return
    1771              
    1772 0000000a 0006          LRETR     ; [CPU_ALU] 
    1773                      ; return occurs ; [] 
    1774                      .dwattr $C$DW$142, DW_AT_TI_end_file("C:/ti/ccs1240/ccs/tools/compiler/ti-cgt-c2000_22.6.0.LTS/includ
    1775                      .dwattr $C$DW$142, DW_AT_TI_end_line(0x16e)
    1776                      .dwattr $C$DW$142, DW_AT_TI_end_column(0x29)
    1777                      .dwendentry
    1778                      .dwendtag $C$DW$142
    1779              
    1780 00000000               .sect   ".text:__signbit"
    1781                      .clink
    1782                      .global ||__signbit||
    1783              
    1784              $C$DW$146       .dwtag  DW_TAG_subprogram
    1785                      .dwattr $C$DW$146, DW_AT_name("__signbit")
    1786                      .dwattr $C$DW$146, DW_AT_low_pc(||__signbit||)
    1787                      .dwattr $C$DW$146, DW_AT_high_pc(0x00)
    1788                      .dwattr $C$DW$146, DW_AT_linkage_name("__signbit")
    1789                      .dwattr $C$DW$146, DW_AT_external
    1790                      .dwattr $C$DW$146, DW_AT_type(*$C$DW$T$10)
    1791                      .dwattr $C$DW$146, DW_AT_decl_file("C:/ti/ccs1240/ccs/tools/compiler/ti-cgt-c2000_22.6.0.LTS/include/
    1792                      .dwattr $C$DW$146, DW_AT_decl_line(0x16b)
    1793                      .dwattr $C$DW$146, DW_AT_decl_column(0x18)
    1794                      .dwattr $C$DW$146, DW_AT_TI_max_frame_size(-6)
    1795                      .dwpsn  file "C:/ti/ccs1240/ccs/tools/compiler/ti-cgt-c2000_22.6.0.LTS/include/_defs.h",line 364,colu
    1796              
    1797                      .dwfde $C$DW$CIE, ||__signbit||
    1798              $C$DW$147       .dwtag  DW_TAG_formal_parameter
    1799                      .dwattr $C$DW$147, DW_AT_name("d")
    1800                      .dwattr $C$DW$147, DW_AT_type(*$C$DW$T$98)
    1801                      .dwattr $C$DW$147, DW_AT_location[DW_OP_reg12]
    1802              
    1803              
    1804              ;***************************************************************
TMS320C2000 Assembler PC v22.6.0 Fri Aug 30 17:52:41 2024

Copyright (c) 1996-2018 Texas Instruments Incorporated
clllc_main.asm                                                       PAGE   36

    1805              ;* FNAME: __signbit                     FR SIZE:   4           *
    1806              ;*                                                             *
    1807              ;* FUNCTION ENVIRONMENT                                        *
    1808              ;*                                                             *
    1809              ;* FUNCTION PROPERTIES                                         *
    1810              ;*                            4 Parameter,  0 Auto,  0 SOE     *
    1811              ;***************************************************************
    1812              
    1813              ||__signbit||:
    1814              ;* AR4   assigned to d
    1815              $C$DW$148       .dwtag  DW_TAG_variable
    1816                      .dwattr $C$DW$148, DW_AT_name("d")
    1817                      .dwattr $C$DW$148, DW_AT_type(*$C$DW$T$99)
    1818                      .dwattr $C$DW$148, DW_AT_location[DW_OP_reg12]
    1819              
    1820                      .dwcfi  cfa_offset, -2
    1821                      .dwcfi  save_reg_to_mem, 26, 0
    1822 00000000 FE04          ADDB      SP,#4                 ; [CPU_ARAU] 
    1823                      .dwcfi  cfa_offset, -6
    1824                      .dwpsn  file "C:/ti/ccs1240/ccs/tools/compiler/ti-cgt-c2000_22.6.0.LTS/include/_defs.h",line 364,colu
    1825 00000001 0200          MOVB      ACC,#0                ; [CPU_ALU] |364| 
    1826 00000002 1E44          MOVL      *-SP[4],ACC           ; [CPU_ALU] |364| 
    1827 00000003 2B42          MOV       *-SP[2],#0            ; [CPU_ALU] |364| 
    1828 00000004 2B41          MOV       *-SP[1],#0            ; [CPU_ALU] |364| 
    1829 00000005 A3C4          MOVL      P,*+XAR4[0]           ; [CPU_ALU] |364| 
    1830 00000006 06D4          MOVL      ACC,*+XAR4[2]         ; [CPU_ALU] |364| 
    1831 00000007 18AB          AND       PL,#0                 ; [CPU_ALU] |364| 
         00000008 0000 
    1832 00000009 18AA          AND       PH,#0                 ; [CPU_ALU] |364| 
         0000000a 0000 
    1833 0000000b 9000          ANDB      AL,#0                 ; [CPU_ALU] |364| 
    1834 0000000c 18A8          AND       AH,#32768             ; [CPU_ALU] |364| 
         0000000d 8000 
    1835              $C$DW$149       .dwtag  DW_TAG_TI_branch
    1836                      .dwattr $C$DW$149, DW_AT_low_pc(0x00)
    1837                      .dwattr $C$DW$149, DW_AT_name("__c28xabi_cmpull")
    1838                      .dwattr $C$DW$149, DW_AT_TI_call
    1839              
    1840 0000000e 7640!         LCR       #||__c28xabi_cmpull|| ; [CPU_ALU] |364| 
         0000000f 0000 
    1841                      ; call occurs [#||__c28xabi_cmpull||] ; [] |364| 
    1842 00000010 9B00          MOVB      AH,#0                 ; [CPU_ALU] |364| 
    1843 00000011 5200          CMPB      AL,#0                 ; [CPU_ALU] |364| 
    1844 00000012 56B0          MOVB      AH,#1,NEQ             ; [CPU_ALU] |364| 
         00000013 01A8 
    1845 00000014 92A8          MOV       AL,AH                 ; [CPU_ALU] |364| 
    1846 00000015 FE84          SUBB      SP,#4                 ; [CPU_ARAU] 
    1847                      .dwcfi  cfa_offset, -2
    1848              $C$DW$150       .dwtag  DW_TAG_TI_branch
    1849                      .dwattr $C$DW$150, DW_AT_low_pc(0x00)
    1850                      .dwattr $C$DW$150, DW_AT_TI_return
    1851              
    1852 00000016 0006          LRETR     ; [CPU_ALU] 
    1853                      ; return occurs ; [] 
    1854                      .dwattr $C$DW$146, DW_AT_TI_end_file("C:/ti/ccs1240/ccs/tools/compiler/ti-cgt-c2000_22.6.0.LTS/includ
TMS320C2000 Assembler PC v22.6.0 Fri Aug 30 17:52:41 2024

Copyright (c) 1996-2018 Texas Instruments Incorporated
clllc_main.asm                                                       PAGE   37

    1855                      .dwattr $C$DW$146, DW_AT_TI_end_line(0x16c)
    1856                      .dwattr $C$DW$146, DW_AT_TI_end_column(0x2a)
    1857                      .dwendentry
    1858                      .dwendtag $C$DW$146
    1859              
    1860 00000000               .sect   ".text:__relaxed_sqrtf"
    1861                      .clink
    1862                      .global ||__relaxed_sqrtf||
    1863              
    1864              $C$DW$151       .dwtag  DW_TAG_subprogram
    1865                      .dwattr $C$DW$151, DW_AT_name("__relaxed_sqrtf")
    1866                      .dwattr $C$DW$151, DW_AT_low_pc(||__relaxed_sqrtf||)
    1867                      .dwattr $C$DW$151, DW_AT_high_pc(0x00)
    1868                      .dwattr $C$DW$151, DW_AT_linkage_name("__relaxed_sqrtf")
    1869                      .dwattr $C$DW$151, DW_AT_external
    1870                      .dwattr $C$DW$151, DW_AT_type(*$C$DW$T$16)
    1871                      .dwattr $C$DW$151, DW_AT_decl_file("C:/ti/ccs1240/ccs/tools/compiler/ti-cgt-c2000_22.6.0.LTS/include/
    1872                      .dwattr $C$DW$151, DW_AT_decl_line(0x103)
    1873                      .dwattr $C$DW$151, DW_AT_decl_column(0x10)
    1874                      .dwattr $C$DW$151, DW_AT_TI_max_frame_size(-2)
    1875                      .dwpsn  file "C:/ti/ccs1240/ccs/tools/compiler/ti-cgt-c2000_22.6.0.LTS/include/math.h",line 260,colum
    1876              
    1877                      .dwfde $C$DW$CIE, ||__relaxed_sqrtf||
    1878              $C$DW$152       .dwtag  DW_TAG_formal_parameter
    1879                      .dwattr $C$DW$152, DW_AT_name("x")
    1880                      .dwattr $C$DW$152, DW_AT_type(*$C$DW$T$16)
    1881                      .dwattr $C$DW$152, DW_AT_location[DW_OP_regx 0x2b]
    1882              
    1883              
    1884              ;***************************************************************
    1885              ;* FNAME: __relaxed_sqrtf               FR SIZE:   0           *
    1886              ;*                                                             *
    1887              ;* FUNCTION ENVIRONMENT                                        *
    1888              ;*                                                             *
    1889              ;* FUNCTION PROPERTIES                                         *
    1890              ;*                            0 Parameter,  0 Auto,  0 SOE     *
    1891              ;***************************************************************
    1892              
    1893              ||__relaxed_sqrtf||:
    1894              ;* R0    assigned to x
    1895              $C$DW$153       .dwtag  DW_TAG_variable
    1896                      .dwattr $C$DW$153, DW_AT_name("x")
    1897                      .dwattr $C$DW$153, DW_AT_type(*$C$DW$T$93)
    1898                      .dwattr $C$DW$153, DW_AT_location[DW_OP_regx 0x2b]
    1899              
    1900                      .dwcfi  cfa_offset, -2
    1901                      .dwcfi  save_reg_to_mem, 26, 0
    1902                      .dwpsn  file "C:/ti/ccs1240/ccs/tools/compiler/ti-cgt-c2000_22.6.0.LTS/include/math.h",line 261,colum
    1903 00000000 E277          SQRTF32   R0H,R0H               ; [CPU_FPU] |261| 
         00000001 0000 
    1904 00000002 7700          NOP       ; [CPU_ALU] 
    1905 00000003 7700          NOP       ; [CPU_ALU] 
    1906 00000004 7700          NOP       ; [CPU_ALU] 
    1907              $C$DW$154       .dwtag  DW_TAG_TI_branch
    1908                      .dwattr $C$DW$154, DW_AT_low_pc(0x00)
TMS320C2000 Assembler PC v22.6.0 Fri Aug 30 17:52:41 2024

Copyright (c) 1996-2018 Texas Instruments Incorporated
clllc_main.asm                                                       PAGE   38

    1909                      .dwattr $C$DW$154, DW_AT_TI_return
    1910              
    1911 00000005 0006          LRETR     ; [CPU_ALU] 
    1912                      ; return occurs ; [] 
    1913                      .dwattr $C$DW$151, DW_AT_TI_end_file("C:/ti/ccs1240/ccs/tools/compiler/ti-cgt-c2000_22.6.0.LTS/includ
    1914                      .dwattr $C$DW$151, DW_AT_TI_end_line(0x106)
    1915                      .dwattr $C$DW$151, DW_AT_TI_end_column(0x01)
    1916                      .dwendentry
    1917                      .dwendtag $C$DW$151
    1918              
    1919 00000000               .sect   ".text:__relaxed_sinf"
    1920                      .clink
    1921                      .global ||__relaxed_sinf||
    1922              
    1923              $C$DW$155       .dwtag  DW_TAG_subprogram
    1924                      .dwattr $C$DW$155, DW_AT_name("__relaxed_sinf")
    1925                      .dwattr $C$DW$155, DW_AT_low_pc(||__relaxed_sinf||)
    1926                      .dwattr $C$DW$155, DW_AT_high_pc(0x00)
    1927                      .dwattr $C$DW$155, DW_AT_linkage_name("__relaxed_sinf")
    1928                      .dwattr $C$DW$155, DW_AT_external
    1929                      .dwattr $C$DW$155, DW_AT_type(*$C$DW$T$16)
    1930                      .dwattr $C$DW$155, DW_AT_decl_file("C:/ti/ccs1240/ccs/tools/compiler/ti-cgt-c2000_22.6.0.LTS/include/
    1931                      .dwattr $C$DW$155, DW_AT_decl_line(0x108)
    1932                      .dwattr $C$DW$155, DW_AT_decl_column(0x10)
    1933                      .dwattr $C$DW$155, DW_AT_TI_max_frame_size(-2)
    1934                      .dwpsn  file "C:/ti/ccs1240/ccs/tools/compiler/ti-cgt-c2000_22.6.0.LTS/include/math.h",line 265,colum
    1935              
    1936                      .dwfde $C$DW$CIE, ||__relaxed_sinf||
    1937              $C$DW$156       .dwtag  DW_TAG_formal_parameter
    1938                      .dwattr $C$DW$156, DW_AT_name("x")
    1939                      .dwattr $C$DW$156, DW_AT_type(*$C$DW$T$16)
    1940                      .dwattr $C$DW$156, DW_AT_location[DW_OP_regx 0x2b]
    1941              
    1942              
    1943              ;***************************************************************
    1944              ;* FNAME: __relaxed_sinf                FR SIZE:   0           *
    1945              ;*                                                             *
    1946              ;* FUNCTION ENVIRONMENT                                        *
    1947              ;*                                                             *
    1948              ;* FUNCTION PROPERTIES                                         *
    1949              ;*                            0 Parameter,  0 Auto,  0 SOE     *
    1950              ;***************************************************************
    1951              
    1952              ||__relaxed_sinf||:
    1953              ;* R0    assigned to x
    1954              $C$DW$157       .dwtag  DW_TAG_variable
    1955                      .dwattr $C$DW$157, DW_AT_name("x")
    1956                      .dwattr $C$DW$157, DW_AT_type(*$C$DW$T$93)
    1957                      .dwattr $C$DW$157, DW_AT_location[DW_OP_regx 0x2b]
    1958              
    1959                      .dwcfi  cfa_offset, -2
    1960                      .dwcfi  save_reg_to_mem, 26, 0
    1961                      .dwpsn  file "C:/ti/ccs1240/ccs/tools/compiler/ti-cgt-c2000_22.6.0.LTS/include/math.h",line 266,colum
    1962 00000000 E271          DIV2PIF32 R0H,R0H               ; [CPU_FPU] |266| 
         00000001 0000 
TMS320C2000 Assembler PC v22.6.0 Fri Aug 30 17:52:41 2024

Copyright (c) 1996-2018 Texas Instruments Incorporated
clllc_main.asm                                                       PAGE   39

    1963 00000002 7700          NOP       ; [CPU_ALU] 
    1964 00000003 E278          SINPUF32  R0H,R0H               ; [CPU_FPU] |266| 
         00000004 0000 
    1965 00000005 7700          NOP       ; [CPU_ALU] 
    1966 00000006 7700          NOP       ; [CPU_ALU] 
    1967              $C$DW$158       .dwtag  DW_TAG_TI_branch
    1968                      .dwattr $C$DW$158, DW_AT_low_pc(0x00)
    1969                      .dwattr $C$DW$158, DW_AT_TI_return
    1970              
    1971 00000007 0006          LRETR     ; [CPU_ALU] 
    1972                      ; return occurs ; [] 
    1973                      .dwattr $C$DW$155, DW_AT_TI_end_file("C:/ti/ccs1240/ccs/tools/compiler/ti-cgt-c2000_22.6.0.LTS/includ
    1974                      .dwattr $C$DW$155, DW_AT_TI_end_line(0x10b)
    1975                      .dwattr $C$DW$155, DW_AT_TI_end_column(0x01)
    1976                      .dwendentry
    1977                      .dwendtag $C$DW$155
    1978              
    1979 00000000               .sect   ".text:__relaxed_fmodf"
    1980                      .clink
    1981                      .global ||__relaxed_fmodf||
    1982              
    1983              $C$DW$159       .dwtag  DW_TAG_subprogram
    1984                      .dwattr $C$DW$159, DW_AT_name("__relaxed_fmodf")
    1985                      .dwattr $C$DW$159, DW_AT_low_pc(||__relaxed_fmodf||)
    1986                      .dwattr $C$DW$159, DW_AT_high_pc(0x00)
    1987                      .dwattr $C$DW$159, DW_AT_linkage_name("__relaxed_fmodf")
    1988                      .dwattr $C$DW$159, DW_AT_external
    1989                      .dwattr $C$DW$159, DW_AT_type(*$C$DW$T$16)
    1990                      .dwattr $C$DW$159, DW_AT_decl_file("C:/ti/ccs1240/ccs/tools/compiler/ti-cgt-c2000_22.6.0.LTS/include/
    1991                      .dwattr $C$DW$159, DW_AT_decl_line(0x11c)
    1992                      .dwattr $C$DW$159, DW_AT_decl_column(0x10)
    1993                      .dwattr $C$DW$159, DW_AT_TI_max_frame_size(-2)
    1994                      .dwpsn  file "C:/ti/ccs1240/ccs/tools/compiler/ti-cgt-c2000_22.6.0.LTS/include/math.h",line 285,colum
    1995              
    1996                      .dwfde $C$DW$CIE, ||__relaxed_fmodf||
    1997              $C$DW$160       .dwtag  DW_TAG_formal_parameter
    1998                      .dwattr $C$DW$160, DW_AT_name("y")
    1999                      .dwattr $C$DW$160, DW_AT_type(*$C$DW$T$16)
    2000                      .dwattr $C$DW$160, DW_AT_location[DW_OP_regx 0x2b]
    2001              
    2002              $C$DW$161       .dwtag  DW_TAG_formal_parameter
    2003                      .dwattr $C$DW$161, DW_AT_name("x")
    2004                      .dwattr $C$DW$161, DW_AT_type(*$C$DW$T$16)
    2005                      .dwattr $C$DW$161, DW_AT_location[DW_OP_regx 0x2f]
    2006              
    2007              
    2008              ;***************************************************************
    2009              ;* FNAME: __relaxed_fmodf               FR SIZE:   0           *
    2010              ;*                                                             *
    2011              ;* FUNCTION ENVIRONMENT                                        *
    2012              ;*                                                             *
    2013              ;* FUNCTION PROPERTIES                                         *
    2014              ;*                            0 Parameter,  0 Auto,  0 SOE     *
    2015              ;***************************************************************
    2016              
TMS320C2000 Assembler PC v22.6.0 Fri Aug 30 17:52:41 2024

Copyright (c) 1996-2018 Texas Instruments Incorporated
clllc_main.asm                                                       PAGE   40

    2017              ||__relaxed_fmodf||:
    2018              ;* R0    assigned to y
    2019              $C$DW$162       .dwtag  DW_TAG_variable
    2020                      .dwattr $C$DW$162, DW_AT_name("y")
    2021                      .dwattr $C$DW$162, DW_AT_type(*$C$DW$T$93)
    2022                      .dwattr $C$DW$162, DW_AT_location[DW_OP_regx 0x2b]
    2023              
    2024              ;* R1    assigned to x
    2025              $C$DW$163       .dwtag  DW_TAG_variable
    2026                      .dwattr $C$DW$163, DW_AT_name("x")
    2027                      .dwattr $C$DW$163, DW_AT_type(*$C$DW$T$93)
    2028                      .dwattr $C$DW$163, DW_AT_location[DW_OP_regx 0x2f]
    2029              
    2030                      .dwcfi  cfa_offset, -2
    2031                      .dwcfi  save_reg_to_mem, 26, 0
    2032                      .dwpsn  file "C:/ti/ccs1240/ccs/tools/compiler/ti-cgt-c2000_22.6.0.LTS/include/math.h",line 286,colum
    2033 00000000 E274          DIVF32    R2H,R0H,R1H           ; [CPU_FPU] |286| 
         00000001 0042 
    2034 00000002 7700          NOP       ; [CPU_ALU] 
    2035 00000003 7700          NOP       ; [CPU_ALU] 
    2036 00000004 7700          NOP       ; [CPU_ALU] 
    2037 00000005 7700          NOP       ; [CPU_ALU] 
    2038 00000006 E688          F32TOI32  R2H,R2H               ; [CPU_FPU] |286| 
         00000007 0012 
    2039 00000008 7700          NOP       ; [CPU_ALU] 
    2040 00000009 E689          I32TOF32  R2H,R2H               ; [CPU_FPU] |286| 
         0000000a 0012 
    2041 0000000b 7700          NOP       ; [CPU_ALU] 
    2042 0000000c E700          MPYF32    R1H,R1H,R2H           ; [CPU_FPU] |286| 
         0000000d 0089 
    2043 0000000e 7700          NOP       ; [CPU_ALU] 
    2044 0000000f E720          SUBF32    R0H,R0H,R1H           ; [CPU_FPU] |286| 
         00000010 0040 
    2045              $C$DW$164       .dwtag  DW_TAG_TI_branch
    2046                      .dwattr $C$DW$164, DW_AT_low_pc(0x00)
    2047                      .dwattr $C$DW$164, DW_AT_TI_return
    2048              
    2049 00000011 0006          LRETR     ; [CPU_ALU] 
    2050                      ; return occurs ; [] 
    2051                      .dwattr $C$DW$159, DW_AT_TI_end_file("C:/ti/ccs1240/ccs/tools/compiler/ti-cgt-c2000_22.6.0.LTS/includ
    2052                      .dwattr $C$DW$159, DW_AT_TI_end_line(0x11f)
    2053                      .dwattr $C$DW$159, DW_AT_TI_end_column(0x01)
    2054                      .dwendentry
    2055                      .dwendtag $C$DW$159
    2056              
    2057 00000000               .sect   ".text:__relaxed_fminf"
    2058                      .clink
    2059                      .global ||__relaxed_fminf||
    2060              
    2061              $C$DW$165       .dwtag  DW_TAG_subprogram
    2062                      .dwattr $C$DW$165, DW_AT_name("__relaxed_fminf")
    2063                      .dwattr $C$DW$165, DW_AT_low_pc(||__relaxed_fminf||)
    2064                      .dwattr $C$DW$165, DW_AT_high_pc(0x00)
    2065                      .dwattr $C$DW$165, DW_AT_linkage_name("__relaxed_fminf")
    2066                      .dwattr $C$DW$165, DW_AT_external
TMS320C2000 Assembler PC v22.6.0 Fri Aug 30 17:52:41 2024

Copyright (c) 1996-2018 Texas Instruments Incorporated
clllc_main.asm                                                       PAGE   41

    2067                      .dwattr $C$DW$165, DW_AT_type(*$C$DW$T$16)
    2068                      .dwattr $C$DW$165, DW_AT_decl_file("C:/ti/ccs1240/ccs/tools/compiler/ti-cgt-c2000_22.6.0.LTS/include/
    2069                      .dwattr $C$DW$165, DW_AT_decl_line(0xee)
    2070                      .dwattr $C$DW$165, DW_AT_decl_column(0x10)
    2071                      .dwattr $C$DW$165, DW_AT_TI_max_frame_size(-2)
    2072                      .dwpsn  file "C:/ti/ccs1240/ccs/tools/compiler/ti-cgt-c2000_22.6.0.LTS/include/math.h",line 239,colum
    2073              
    2074                      .dwfde $C$DW$CIE, ||__relaxed_fminf||
    2075              $C$DW$166       .dwtag  DW_TAG_formal_parameter
    2076                      .dwattr $C$DW$166, DW_AT_name("x")
    2077                      .dwattr $C$DW$166, DW_AT_type(*$C$DW$T$16)
    2078                      .dwattr $C$DW$166, DW_AT_location[DW_OP_regx 0x2b]
    2079              
    2080              $C$DW$167       .dwtag  DW_TAG_formal_parameter
    2081                      .dwattr $C$DW$167, DW_AT_name("y")
    2082                      .dwattr $C$DW$167, DW_AT_type(*$C$DW$T$16)
    2083                      .dwattr $C$DW$167, DW_AT_location[DW_OP_regx 0x2f]
    2084              
    2085              
    2086              ;***************************************************************
    2087              ;* FNAME: __relaxed_fminf               FR SIZE:   0           *
    2088              ;*                                                             *
    2089              ;* FUNCTION ENVIRONMENT                                        *
    2090              ;*                                                             *
    2091              ;* FUNCTION PROPERTIES                                         *
    2092              ;*                            0 Parameter,  0 Auto,  0 SOE     *
    2093              ;***************************************************************
    2094              
    2095              ||__relaxed_fminf||:
    2096              ;* R1    assigned to y
    2097              $C$DW$168       .dwtag  DW_TAG_variable
    2098                      .dwattr $C$DW$168, DW_AT_name("y")
    2099                      .dwattr $C$DW$168, DW_AT_type(*$C$DW$T$93)
    2100                      .dwattr $C$DW$168, DW_AT_location[DW_OP_regx 0x2f]
    2101              
    2102                      .dwcfi  cfa_offset, -2
    2103                      .dwcfi  save_reg_to_mem, 26, 0
    2104                      .dwpsn  file "C:/ti/ccs1240/ccs/tools/compiler/ti-cgt-c2000_22.6.0.LTS/include/math.h",line 240,colum
    2105 00000000 E697          MINF32    R0H,R1H               ; [CPU_FPU] |240| 
         00000001 0008 
    2106              $C$DW$169       .dwtag  DW_TAG_TI_branch
    2107                      .dwattr $C$DW$169, DW_AT_low_pc(0x00)
    2108                      .dwattr $C$DW$169, DW_AT_TI_return
    2109              
    2110 00000002 0006          LRETR     ; [CPU_ALU] 
    2111                      ; return occurs ; [] 
    2112                      .dwattr $C$DW$165, DW_AT_TI_end_file("C:/ti/ccs1240/ccs/tools/compiler/ti-cgt-c2000_22.6.0.LTS/includ
    2113                      .dwattr $C$DW$165, DW_AT_TI_end_line(0xf1)
    2114                      .dwattr $C$DW$165, DW_AT_TI_end_column(0x01)
    2115                      .dwendentry
    2116                      .dwendtag $C$DW$165
    2117              
    2118 00000000               .sect   ".text:__relaxed_fmaxf"
    2119                      .clink
    2120                      .global ||__relaxed_fmaxf||
TMS320C2000 Assembler PC v22.6.0 Fri Aug 30 17:52:41 2024

Copyright (c) 1996-2018 Texas Instruments Incorporated
clllc_main.asm                                                       PAGE   42

    2121              
    2122              $C$DW$170       .dwtag  DW_TAG_subprogram
    2123                      .dwattr $C$DW$170, DW_AT_name("__relaxed_fmaxf")
    2124                      .dwattr $C$DW$170, DW_AT_low_pc(||__relaxed_fmaxf||)
    2125                      .dwattr $C$DW$170, DW_AT_high_pc(0x00)
    2126                      .dwattr $C$DW$170, DW_AT_linkage_name("__relaxed_fmaxf")
    2127                      .dwattr $C$DW$170, DW_AT_external
    2128                      .dwattr $C$DW$170, DW_AT_type(*$C$DW$T$16)
    2129                      .dwattr $C$DW$170, DW_AT_decl_file("C:/ti/ccs1240/ccs/tools/compiler/ti-cgt-c2000_22.6.0.LTS/include/
    2130                      .dwattr $C$DW$170, DW_AT_decl_line(0xe8)
    2131                      .dwattr $C$DW$170, DW_AT_decl_column(0x10)
    2132                      .dwattr $C$DW$170, DW_AT_TI_max_frame_size(-2)
    2133                      .dwpsn  file "C:/ti/ccs1240/ccs/tools/compiler/ti-cgt-c2000_22.6.0.LTS/include/math.h",line 233,colum
    2134              
    2135                      .dwfde $C$DW$CIE, ||__relaxed_fmaxf||
    2136              $C$DW$171       .dwtag  DW_TAG_formal_parameter
    2137                      .dwattr $C$DW$171, DW_AT_name("x")
    2138                      .dwattr $C$DW$171, DW_AT_type(*$C$DW$T$16)
    2139                      .dwattr $C$DW$171, DW_AT_location[DW_OP_regx 0x2b]
    2140              
    2141              $C$DW$172       .dwtag  DW_TAG_formal_parameter
    2142                      .dwattr $C$DW$172, DW_AT_name("y")
    2143                      .dwattr $C$DW$172, DW_AT_type(*$C$DW$T$16)
    2144                      .dwattr $C$DW$172, DW_AT_location[DW_OP_regx 0x2f]
    2145              
    2146              
    2147              ;***************************************************************
    2148              ;* FNAME: __relaxed_fmaxf               FR SIZE:   0           *
    2149              ;*                                                             *
    2150              ;* FUNCTION ENVIRONMENT                                        *
    2151              ;*                                                             *
    2152              ;* FUNCTION PROPERTIES                                         *
    2153              ;*                            0 Parameter,  0 Auto,  0 SOE     *
    2154              ;***************************************************************
    2155              
    2156              ||__relaxed_fmaxf||:
    2157              ;* R1    assigned to y
    2158              $C$DW$173       .dwtag  DW_TAG_variable
    2159                      .dwattr $C$DW$173, DW_AT_name("y")
    2160                      .dwattr $C$DW$173, DW_AT_type(*$C$DW$T$93)
    2161                      .dwattr $C$DW$173, DW_AT_location[DW_OP_regx 0x2f]
    2162              
    2163                      .dwcfi  cfa_offset, -2
    2164                      .dwcfi  save_reg_to_mem, 26, 0
    2165                      .dwpsn  file "C:/ti/ccs1240/ccs/tools/compiler/ti-cgt-c2000_22.6.0.LTS/include/math.h",line 234,colum
    2166 00000000 E696          MAXF32    R0H,R1H               ; [CPU_FPU] |234| 
         00000001 0008 
    2167              $C$DW$174       .dwtag  DW_TAG_TI_branch
    2168                      .dwattr $C$DW$174, DW_AT_low_pc(0x00)
    2169                      .dwattr $C$DW$174, DW_AT_TI_return
    2170              
    2171 00000002 0006          LRETR     ; [CPU_ALU] 
    2172                      ; return occurs ; [] 
    2173                      .dwattr $C$DW$170, DW_AT_TI_end_file("C:/ti/ccs1240/ccs/tools/compiler/ti-cgt-c2000_22.6.0.LTS/includ
    2174                      .dwattr $C$DW$170, DW_AT_TI_end_line(0xeb)
TMS320C2000 Assembler PC v22.6.0 Fri Aug 30 17:52:41 2024

Copyright (c) 1996-2018 Texas Instruments Incorporated
clllc_main.asm                                                       PAGE   43

    2175                      .dwattr $C$DW$170, DW_AT_TI_end_column(0x01)
    2176                      .dwendentry
    2177                      .dwendtag $C$DW$170
    2178              
    2179 00000000               .sect   ".text:__relaxed_cosf"
    2180                      .clink
    2181                      .global ||__relaxed_cosf||
    2182              
    2183              $C$DW$175       .dwtag  DW_TAG_subprogram
    2184                      .dwattr $C$DW$175, DW_AT_name("__relaxed_cosf")
    2185                      .dwattr $C$DW$175, DW_AT_low_pc(||__relaxed_cosf||)
    2186                      .dwattr $C$DW$175, DW_AT_high_pc(0x00)
    2187                      .dwattr $C$DW$175, DW_AT_linkage_name("__relaxed_cosf")
    2188                      .dwattr $C$DW$175, DW_AT_external
    2189                      .dwattr $C$DW$175, DW_AT_type(*$C$DW$T$16)
    2190                      .dwattr $C$DW$175, DW_AT_decl_file("C:/ti/ccs1240/ccs/tools/compiler/ti-cgt-c2000_22.6.0.LTS/include/
    2191                      .dwattr $C$DW$175, DW_AT_decl_line(0x10d)
    2192                      .dwattr $C$DW$175, DW_AT_decl_column(0x10)
    2193                      .dwattr $C$DW$175, DW_AT_TI_max_frame_size(-2)
    2194                      .dwpsn  file "C:/ti/ccs1240/ccs/tools/compiler/ti-cgt-c2000_22.6.0.LTS/include/math.h",line 270,colum
    2195              
    2196                      .dwfde $C$DW$CIE, ||__relaxed_cosf||
    2197              $C$DW$176       .dwtag  DW_TAG_formal_parameter
    2198                      .dwattr $C$DW$176, DW_AT_name("x")
    2199                      .dwattr $C$DW$176, DW_AT_type(*$C$DW$T$16)
    2200                      .dwattr $C$DW$176, DW_AT_location[DW_OP_regx 0x2b]
    2201              
    2202              
    2203              ;***************************************************************
    2204              ;* FNAME: __relaxed_cosf                FR SIZE:   0           *
    2205              ;*                                                             *
    2206              ;* FUNCTION ENVIRONMENT                                        *
    2207              ;*                                                             *
    2208              ;* FUNCTION PROPERTIES                                         *
    2209              ;*                            0 Parameter,  0 Auto,  0 SOE     *
    2210              ;***************************************************************
    2211              
    2212              ||__relaxed_cosf||:
    2213              ;* R0    assigned to x
    2214              $C$DW$177       .dwtag  DW_TAG_variable
    2215                      .dwattr $C$DW$177, DW_AT_name("x")
    2216                      .dwattr $C$DW$177, DW_AT_type(*$C$DW$T$93)
    2217                      .dwattr $C$DW$177, DW_AT_location[DW_OP_regx 0x2b]
    2218              
    2219                      .dwcfi  cfa_offset, -2
    2220                      .dwcfi  save_reg_to_mem, 26, 0
    2221                      .dwpsn  file "C:/ti/ccs1240/ccs/tools/compiler/ti-cgt-c2000_22.6.0.LTS/include/math.h",line 271,colum
    2222 00000000 E271          DIV2PIF32 R0H,R0H               ; [CPU_FPU] |271| 
         00000001 0000 
    2223 00000002 7700          NOP       ; [CPU_ALU] 
    2224 00000003 E279          COSPUF32  R0H,R0H               ; [CPU_FPU] |271| 
         00000004 0000 
    2225 00000005 7700          NOP       ; [CPU_ALU] 
    2226 00000006 7700          NOP       ; [CPU_ALU] 
    2227              $C$DW$178       .dwtag  DW_TAG_TI_branch
TMS320C2000 Assembler PC v22.6.0 Fri Aug 30 17:52:41 2024

Copyright (c) 1996-2018 Texas Instruments Incorporated
clllc_main.asm                                                       PAGE   44

    2228                      .dwattr $C$DW$178, DW_AT_low_pc(0x00)
    2229                      .dwattr $C$DW$178, DW_AT_TI_return
    2230              
    2231 00000007 0006          LRETR     ; [CPU_ALU] 
    2232                      ; return occurs ; [] 
    2233                      .dwattr $C$DW$175, DW_AT_TI_end_file("C:/ti/ccs1240/ccs/tools/compiler/ti-cgt-c2000_22.6.0.LTS/includ
    2234                      .dwattr $C$DW$175, DW_AT_TI_end_line(0x110)
    2235                      .dwattr $C$DW$175, DW_AT_TI_end_column(0x01)
    2236                      .dwendentry
    2237                      .dwendtag $C$DW$175
    2238              
    2239 00000000               .sect   ".text:__relaxed_atanf"
    2240                      .clink
    2241                      .global ||__relaxed_atanf||
    2242              
    2243              $C$DW$179       .dwtag  DW_TAG_subprogram
    2244                      .dwattr $C$DW$179, DW_AT_name("__relaxed_atanf")
    2245                      .dwattr $C$DW$179, DW_AT_low_pc(||__relaxed_atanf||)
    2246                      .dwattr $C$DW$179, DW_AT_high_pc(0x00)
    2247                      .dwattr $C$DW$179, DW_AT_linkage_name("__relaxed_atanf")
    2248                      .dwattr $C$DW$179, DW_AT_external
    2249                      .dwattr $C$DW$179, DW_AT_type(*$C$DW$T$16)
    2250                      .dwattr $C$DW$179, DW_AT_decl_file("C:/ti/ccs1240/ccs/tools/compiler/ti-cgt-c2000_22.6.0.LTS/include/
    2251                      .dwattr $C$DW$179, DW_AT_decl_line(0x112)
    2252                      .dwattr $C$DW$179, DW_AT_decl_column(0x10)
    2253                      .dwattr $C$DW$179, DW_AT_TI_max_frame_size(-2)
    2254                      .dwpsn  file "C:/ti/ccs1240/ccs/tools/compiler/ti-cgt-c2000_22.6.0.LTS/include/math.h",line 275,colum
    2255              
    2256                      .dwfde $C$DW$CIE, ||__relaxed_atanf||
    2257              $C$DW$180       .dwtag  DW_TAG_formal_parameter
    2258                      .dwattr $C$DW$180, DW_AT_name("x")
    2259                      .dwattr $C$DW$180, DW_AT_type(*$C$DW$T$16)
    2260                      .dwattr $C$DW$180, DW_AT_location[DW_OP_regx 0x2b]
    2261              
    2262              
    2263              ;***************************************************************
    2264              ;* FNAME: __relaxed_atanf               FR SIZE:   0           *
    2265              ;*                                                             *
    2266              ;* FUNCTION ENVIRONMENT                                        *
    2267              ;*                                                             *
    2268              ;* FUNCTION PROPERTIES                                         *
    2269              ;*                            0 Parameter,  0 Auto,  0 SOE     *
    2270              ;***************************************************************
    2271              
    2272              ||__relaxed_atanf||:
    2273              ;* R0    assigned to x
    2274              $C$DW$181       .dwtag  DW_TAG_variable
    2275                      .dwattr $C$DW$181, DW_AT_name("x")
    2276                      .dwattr $C$DW$181, DW_AT_type(*$C$DW$T$93)
    2277                      .dwattr $C$DW$181, DW_AT_location[DW_OP_regx 0x2b]
    2278              
    2279                      .dwcfi  cfa_offset, -2
    2280                      .dwcfi  save_reg_to_mem, 26, 0
    2281                      .dwpsn  file "C:/ti/ccs1240/ccs/tools/compiler/ti-cgt-c2000_22.6.0.LTS/include/math.h",line 276,colum
    2282 00000000 E801          MOVIZ     R1H,#16256            ; [CPU_FPU] |276| 
TMS320C2000 Assembler PC v22.6.0 Fri Aug 30 17:52:41 2024

Copyright (c) 1996-2018 Texas Instruments Incorporated
clllc_main.asm                                                       PAGE   45

         00000001 FC01 
    2283 00000002 E27C          QUADF32   R1H,R0H,R0H,R1H       ; [CPU_FPU] |276| 
         00000003 0201 
    2284 00000004 7700          NOP       ; [CPU_ALU] 
    2285 00000005 7700          NOP       ; [CPU_ALU] 
    2286 00000006 7700          NOP       ; [CPU_ALU] 
    2287 00000007 7700          NOP       ; [CPU_ALU] 
    2288 00000008 E27A          ATANPUF32 R0H,R0H               ; [CPU_FPU] |276| 
         00000009 0000 
    2289 0000000a 7700          NOP       ; [CPU_ALU] 
    2290 0000000b 7700          NOP       ; [CPU_ALU] 
    2291 0000000c 7700          NOP       ; [CPU_ALU] 
    2292 0000000d E710          ADDF32    R0H,R0H,R1H           ; [CPU_FPU] |276| 
         0000000e 0040 
    2293 0000000f 7700          NOP       ; [CPU_ALU] 
    2294 00000010 7700          NOP       ; [CPU_ALU] 
    2295 00000011 E270          MPY2PIF32 R0H,R0H               ; [CPU_FPU] |276| 
         00000012 0000 
    2296 00000013 7700          NOP       ; [CPU_ALU] 
    2297              $C$DW$182       .dwtag  DW_TAG_TI_branch
    2298                      .dwattr $C$DW$182, DW_AT_low_pc(0x00)
    2299                      .dwattr $C$DW$182, DW_AT_TI_return
    2300              
    2301 00000014 0006          LRETR     ; [CPU_ALU] 
    2302                      ; return occurs ; [] 
    2303                      .dwattr $C$DW$179, DW_AT_TI_end_file("C:/ti/ccs1240/ccs/tools/compiler/ti-cgt-c2000_22.6.0.LTS/includ
    2304                      .dwattr $C$DW$179, DW_AT_TI_end_line(0x115)
    2305                      .dwattr $C$DW$179, DW_AT_TI_end_column(0x01)
    2306                      .dwendentry
    2307                      .dwendtag $C$DW$179
    2308              
    2309 00000000               .sect   ".text:__relaxed_atan2f"
    2310                      .clink
    2311                      .global ||__relaxed_atan2f||
    2312              
    2313              $C$DW$183       .dwtag  DW_TAG_subprogram
    2314                      .dwattr $C$DW$183, DW_AT_name("__relaxed_atan2f")
    2315                      .dwattr $C$DW$183, DW_AT_low_pc(||__relaxed_atan2f||)
    2316                      .dwattr $C$DW$183, DW_AT_high_pc(0x00)
    2317                      .dwattr $C$DW$183, DW_AT_linkage_name("__relaxed_atan2f")
    2318                      .dwattr $C$DW$183, DW_AT_external
    2319                      .dwattr $C$DW$183, DW_AT_type(*$C$DW$T$16)
    2320                      .dwattr $C$DW$183, DW_AT_decl_file("C:/ti/ccs1240/ccs/tools/compiler/ti-cgt-c2000_22.6.0.LTS/include/
    2321                      .dwattr $C$DW$183, DW_AT_decl_line(0x117)
    2322                      .dwattr $C$DW$183, DW_AT_decl_column(0x10)
    2323                      .dwattr $C$DW$183, DW_AT_TI_max_frame_size(-2)
    2324                      .dwpsn  file "C:/ti/ccs1240/ccs/tools/compiler/ti-cgt-c2000_22.6.0.LTS/include/math.h",line 280,colum
    2325              
    2326                      .dwfde $C$DW$CIE, ||__relaxed_atan2f||
    2327              $C$DW$184       .dwtag  DW_TAG_formal_parameter
    2328                      .dwattr $C$DW$184, DW_AT_name("y")
    2329                      .dwattr $C$DW$184, DW_AT_type(*$C$DW$T$16)
    2330                      .dwattr $C$DW$184, DW_AT_location[DW_OP_regx 0x2b]
    2331              
    2332              $C$DW$185       .dwtag  DW_TAG_formal_parameter
TMS320C2000 Assembler PC v22.6.0 Fri Aug 30 17:52:41 2024

Copyright (c) 1996-2018 Texas Instruments Incorporated
clllc_main.asm                                                       PAGE   46

    2333                      .dwattr $C$DW$185, DW_AT_name("x")
    2334                      .dwattr $C$DW$185, DW_AT_type(*$C$DW$T$16)
    2335                      .dwattr $C$DW$185, DW_AT_location[DW_OP_regx 0x2f]
    2336              
    2337              
    2338              ;***************************************************************
    2339              ;* FNAME: __relaxed_atan2f              FR SIZE:   0           *
    2340              ;*                                                             *
    2341              ;* FUNCTION ENVIRONMENT                                        *
    2342              ;*                                                             *
    2343              ;* FUNCTION PROPERTIES                                         *
    2344              ;*                            0 Parameter,  0 Auto,  0 SOE     *
    2345              ;***************************************************************
    2346              
    2347              ||__relaxed_atan2f||:
    2348              ;* R0    assigned to y
    2349              $C$DW$186       .dwtag  DW_TAG_variable
    2350                      .dwattr $C$DW$186, DW_AT_name("y")
    2351                      .dwattr $C$DW$186, DW_AT_type(*$C$DW$T$93)
    2352                      .dwattr $C$DW$186, DW_AT_location[DW_OP_regx 0x2b]
    2353              
    2354              ;* R1    assigned to x
    2355              $C$DW$187       .dwtag  DW_TAG_variable
    2356                      .dwattr $C$DW$187, DW_AT_name("x")
    2357                      .dwattr $C$DW$187, DW_AT_type(*$C$DW$T$93)
    2358                      .dwattr $C$DW$187, DW_AT_location[DW_OP_regx 0x2f]
    2359              
    2360                      .dwcfi  cfa_offset, -2
    2361                      .dwcfi  save_reg_to_mem, 26, 0
    2362                      .dwpsn  file "C:/ti/ccs1240/ccs/tools/compiler/ti-cgt-c2000_22.6.0.LTS/include/math.h",line 281,colum
    2363 00000000 E27C          QUADF32   R1H,R0H,R0H,R1H       ; [CPU_FPU] |281| 
         00000001 0201 
    2364 00000002 7700          NOP       ; [CPU_ALU] 
    2365 00000003 7700          NOP       ; [CPU_ALU] 
    2366 00000004 7700          NOP       ; [CPU_ALU] 
    2367 00000005 7700          NOP       ; [CPU_ALU] 
    2368 00000006 E27A          ATANPUF32 R0H,R0H               ; [CPU_FPU] |281| 
         00000007 0000 
    2369 00000008 7700          NOP       ; [CPU_ALU] 
    2370 00000009 7700          NOP       ; [CPU_ALU] 
    2371 0000000a 7700          NOP       ; [CPU_ALU] 
    2372 0000000b E710          ADDF32    R0H,R0H,R1H           ; [CPU_FPU] |281| 
         0000000c 0040 
    2373 0000000d 7700          NOP       ; [CPU_ALU] 
    2374 0000000e 7700          NOP       ; [CPU_ALU] 
    2375 0000000f E270          MPY2PIF32 R0H,R0H               ; [CPU_FPU] |281| 
         00000010 0000 
    2376 00000011 7700          NOP       ; [CPU_ALU] 
    2377              $C$DW$188       .dwtag  DW_TAG_TI_branch
    2378                      .dwattr $C$DW$188, DW_AT_low_pc(0x00)
    2379                      .dwattr $C$DW$188, DW_AT_TI_return
    2380              
    2381 00000012 0006          LRETR     ; [CPU_ALU] 
    2382                      ; return occurs ; [] 
    2383                      .dwattr $C$DW$183, DW_AT_TI_end_file("C:/ti/ccs1240/ccs/tools/compiler/ti-cgt-c2000_22.6.0.LTS/includ
TMS320C2000 Assembler PC v22.6.0 Fri Aug 30 17:52:41 2024

Copyright (c) 1996-2018 Texas Instruments Incorporated
clllc_main.asm                                                       PAGE   47

    2384                      .dwattr $C$DW$183, DW_AT_TI_end_line(0x11a)
    2385                      .dwattr $C$DW$183, DW_AT_TI_end_column(0x01)
    2386                      .dwendentry
    2387                      .dwendtag $C$DW$183
    2388              
    2389 00000000               .sect   ".text:__isnormall"
    2390                      .clink
    2391                      .global ||__isnormall||
    2392              
    2393              $C$DW$189       .dwtag  DW_TAG_subprogram
    2394                      .dwattr $C$DW$189, DW_AT_name("__isnormall")
    2395                      .dwattr $C$DW$189, DW_AT_low_pc(||__isnormall||)
    2396                      .dwattr $C$DW$189, DW_AT_high_pc(0x00)
    2397                      .dwattr $C$DW$189, DW_AT_linkage_name("__isnormall")
    2398                      .dwattr $C$DW$189, DW_AT_external
    2399                      .dwattr $C$DW$189, DW_AT_type(*$C$DW$T$10)
    2400                      .dwattr $C$DW$189, DW_AT_decl_file("C:/ti/ccs1240/ccs/tools/compiler/ti-cgt-c2000_22.6.0.LTS/include/
    2401                      .dwattr $C$DW$189, DW_AT_decl_line(0x167)
    2402                      .dwattr $C$DW$189, DW_AT_decl_column(0x18)
    2403                      .dwattr $C$DW$189, DW_AT_TI_max_frame_size(-6)
    2404                      .dwpsn  file "C:/ti/ccs1240/ccs/tools/compiler/ti-cgt-c2000_22.6.0.LTS/include/_defs.h",line 360,colu
    2405              
    2406                      .dwfde $C$DW$CIE, ||__isnormall||
    2407              $C$DW$190       .dwtag  DW_TAG_formal_parameter
    2408                      .dwattr $C$DW$190, DW_AT_name("e")
    2409                      .dwattr $C$DW$190, DW_AT_type(*$C$DW$T$101)
    2410                      .dwattr $C$DW$190, DW_AT_location[DW_OP_reg12]
    2411              
    2412              
    2413              ;***************************************************************
    2414              ;* FNAME: __isnormall                   FR SIZE:   4           *
    2415              ;*                                                             *
    2416              ;* FUNCTION ENVIRONMENT                                        *
    2417              ;*                                                             *
    2418              ;* FUNCTION PROPERTIES                                         *
    2419              ;*                            4 Parameter,  0 Auto,  0 SOE     *
    2420              ;***************************************************************
    2421              
    2422              ||__isnormall||:
    2423              ;* AR5   assigned to $O$C2
    2424              ;* AR6   assigned to $O$S1
    2425              ;* AR4   assigned to e
    2426              $C$DW$191       .dwtag  DW_TAG_variable
    2427                      .dwattr $C$DW$191, DW_AT_name("e")
    2428                      .dwattr $C$DW$191, DW_AT_type(*$C$DW$T$102)
    2429                      .dwattr $C$DW$191, DW_AT_location[DW_OP_reg12]
    2430              
    2431                      .dwcfi  cfa_offset, -2
    2432                      .dwcfi  save_reg_to_mem, 26, 0
    2433 00000000 FE04          ADDB      SP,#4                 ; [CPU_ARAU] 
    2434                      .dwcfi  cfa_offset, -6
    2435                      .dwpsn  file "C:/ti/ccs1240/ccs/tools/compiler/ti-cgt-c2000_22.6.0.LTS/include/_defs.h",line 360,colu
    2436 00000001 83C4          MOVL      XAR5,*+XAR4[0]        ; [CPU_ALU] |360| 
    2437 00000002 8AD4          MOVL      XAR4,*+XAR4[2]        ; [CPU_ALU] |360| 
    2438 00000003 BE00          MOVB      XAR6,#0               ; [CPU_ALU] |360| 
TMS320C2000 Assembler PC v22.6.0 Fri Aug 30 17:52:41 2024

Copyright (c) 1996-2018 Texas Instruments Incorporated
clllc_main.asm                                                       PAGE   48

    2439 00000004 28AC          MOV       T,#52                 ; [CPU_ALU] |360| 
         00000005 0034 
    2440 00000006 A0AB          MOVL      P,XAR5                ; [CPU_ALU] |360| 
    2441 00000007 A8A9          MOVL      ACC,XAR4              ; [CPU_ALU] |360| 
    2442 00000008 C244          MOVL      *-SP[4],XAR6          ; [CPU_ALU] |360| 
    2443 00000009 2B42          MOV       *-SP[2],#0            ; [CPU_ALU] |360| 
    2444 0000000a 565B          LSR64     ACC:P,T               ; [CPU_ALU] |360| 
    2445 0000000b 2B41          MOV       *-SP[1],#0            ; [CPU_FPU] |360| 
    2446 0000000c 9000          ANDB      AL,#0                 ; [CPU_ALU] |360| 
    2447 0000000d 9100          ANDB      AH,#0                 ; [CPU_ALU] |360| 
    2448 0000000e 18AB          AND       PL,#2047              ; [CPU_ALU] |360| 
         0000000f 07FF 
    2449 00000010 18AA          AND       PH,#0                 ; [CPU_ALU] |360| 
         00000011 0000 
    2450              $C$DW$192       .dwtag  DW_TAG_TI_branch
    2451                      .dwattr $C$DW$192, DW_AT_low_pc(0x00)
    2452                      .dwattr $C$DW$192, DW_AT_name("__c28xabi_cmpull")
    2453                      .dwattr $C$DW$192, DW_AT_TI_call
    2454              
    2455 00000012 7640!         LCR       #||__c28xabi_cmpull|| ; [CPU_ALU] |360| 
         00000013 0000 
    2456                      ; call occurs [#||__c28xabi_cmpull||] ; [] |360| 
    2457 00000014 BE00          MOVB      XAR6,#0               ; [CPU_ALU] |360| 
    2458 00000015 5200          CMPB      AL,#0                 ; [CPU_ALU] |360| 
    2459 00000016 610E          B         ||$C$L6||,EQ          ; [CPU_ALU] |360| 
    2460                      ; branchcc occurs ; [] |360| 
    2461 00000017 A0AB          MOVL      P,XAR5                ; [CPU_ALU] |360| 
    2462 00000018 A8A9          MOVL      ACC,XAR4              ; [CPU_ALU] |360| 
    2463 00000019 28AC          MOV       T,#48                 ; [CPU_ALU] |360| 
         0000001a 0030 
    2464 0000001b 565B          LSR64     ACC:P,T               ; [CPU_ALU] |360| 
    2465 0000001c 18AB          AND       PL,#0x7ff0            ; [CPU_ALU] |360| 
         0000001d 7FF0 
    2466 0000001e 80AB          MOVZ      AR7,PL                ; [CPU_ALU] |360| 
    2467 0000001f FF20          MOV       ACC,#32752            ; [CPU_ALU] |360| 
         00000020 7FF0 
    2468 00000021 0FA7          CMPL      ACC,XAR7              ; [CPU_ALU] |360| 
    2469 00000022 56B0          MOVB      XAR6,#1,NEQ           ; [CPU_ALU] |360| 
         00000023 01A6 
    2470 00000024       ||$C$L6||:    
    2471 00000024 FE84          SUBB      SP,#4                 ; [CPU_ARAU] 
    2472                      .dwcfi  cfa_offset, -2
    2473 00000025 92A6          MOV       AL,AR6                ; [CPU_ALU] |360| 
    2474              $C$DW$193       .dwtag  DW_TAG_TI_branch
    2475                      .dwattr $C$DW$193, DW_AT_low_pc(0x00)
    2476                      .dwattr $C$DW$193, DW_AT_TI_return
    2477              
    2478 00000026 0006          LRETR     ; [CPU_ALU] 
    2479                      ; return occurs ; [] 
    2480                      .dwattr $C$DW$189, DW_AT_TI_end_file("C:/ti/ccs1240/ccs/tools/compiler/ti-cgt-c2000_22.6.0.LTS/includ
    2481                      .dwattr $C$DW$189, DW_AT_TI_end_line(0x169)
    2482                      .dwattr $C$DW$189, DW_AT_TI_end_column(0x31)
    2483                      .dwendentry
    2484                      .dwendtag $C$DW$189
    2485              
TMS320C2000 Assembler PC v22.6.0 Fri Aug 30 17:52:41 2024

Copyright (c) 1996-2018 Texas Instruments Incorporated
clllc_main.asm                                                       PAGE   49

    2486 00000000               .sect   ".text:__isnormalf"
    2487                      .clink
    2488                      .global ||__isnormalf||
    2489              
    2490              $C$DW$194       .dwtag  DW_TAG_subprogram
    2491                      .dwattr $C$DW$194, DW_AT_name("__isnormalf")
    2492                      .dwattr $C$DW$194, DW_AT_low_pc(||__isnormalf||)
    2493                      .dwattr $C$DW$194, DW_AT_high_pc(0x00)
    2494                      .dwattr $C$DW$194, DW_AT_linkage_name("__isnormalf")
    2495                      .dwattr $C$DW$194, DW_AT_external
    2496                      .dwattr $C$DW$194, DW_AT_type(*$C$DW$T$10)
    2497                      .dwattr $C$DW$194, DW_AT_decl_file("C:/ti/ccs1240/ccs/tools/compiler/ti-cgt-c2000_22.6.0.LTS/include/
    2498                      .dwattr $C$DW$194, DW_AT_decl_line(0x163)
    2499                      .dwattr $C$DW$194, DW_AT_decl_column(0x18)
    2500                      .dwattr $C$DW$194, DW_AT_TI_max_frame_size(-2)
    2501                      .dwpsn  file "C:/ti/ccs1240/ccs/tools/compiler/ti-cgt-c2000_22.6.0.LTS/include/_defs.h",line 356,colu
    2502              
    2503                      .dwfde $C$DW$CIE, ||__isnormalf||
    2504              $C$DW$195       .dwtag  DW_TAG_formal_parameter
    2505                      .dwattr $C$DW$195, DW_AT_name("f")
    2506                      .dwattr $C$DW$195, DW_AT_type(*$C$DW$T$16)
    2507                      .dwattr $C$DW$195, DW_AT_location[DW_OP_regx 0x2b]
    2508              
    2509              
    2510              ;***************************************************************
    2511              ;* FNAME: __isnormalf                   FR SIZE:   0           *
    2512              ;*                                                             *
    2513              ;* FUNCTION ENVIRONMENT                                        *
    2514              ;*                                                             *
    2515              ;* FUNCTION PROPERTIES                                         *
    2516              ;*                            0 Parameter,  0 Auto,  0 SOE     *
    2517              ;***************************************************************
    2518              
    2519              ||__isnormalf||:
    2520              ;* PL    assigned to $O$K3
    2521              ;* AR6   assigned to $O$S1
    2522              ;* R0    assigned to f
    2523              $C$DW$196       .dwtag  DW_TAG_variable
    2524                      .dwattr $C$DW$196, DW_AT_name("f")
    2525                      .dwattr $C$DW$196, DW_AT_type(*$C$DW$T$93)
    2526                      .dwattr $C$DW$196, DW_AT_location[DW_OP_regx 0x2b]
    2527              
    2528                      .dwcfi  cfa_offset, -2
    2529                      .dwcfi  save_reg_to_mem, 26, 0
    2530                      .dwpsn  file "C:/ti/ccs1240/ccs/tools/compiler/ti-cgt-c2000_22.6.0.LTS/include/_defs.h",line 356,colu
    2531 00000000 BFAB          MOV32     P,R0H                 ; [CPU_FPU] |356| 
         00000001 0F12 
    2532 00000002 28AC          MOV       T,#23                 ; [CPU_ALU] |356| 
         00000003 0017 
    2533 00000004 A9A9          MOVL      ACC,P                 ; [CPU_ALU] |356| 
    2534 00000005 BE00          MOVB      XAR6,#0               ; [CPU_ALU] |356| 
    2535 00000006 5622          LSRL      ACC,T                 ; [CPU_ALU] |356| 
    2536 00000007 90FF          ANDB      AL,#0xff              ; [CPU_ALU] |356| 
    2537 00000008 6109          B         ||$C$L7||,EQ          ; [CPU_ALU] |356| 
    2538                      ; branchcc occurs ; [] |356| 
TMS320C2000 Assembler PC v22.6.0 Fri Aug 30 17:52:41 2024

Copyright (c) 1996-2018 Texas Instruments Incorporated
clllc_main.asm                                                       PAGE   50

    2539 00000009 CCAA          AND       AL,PH,#0x7f80         ; [CPU_ALU] |356| 
         0000000a 7F80 
    2540 0000000b 80A9          MOVZ      AR7,AL                ; [CPU_ALU] |356| 
    2541 0000000c FF20          MOV       ACC,#32640            ; [CPU_ALU] |356| 
         0000000d 7F80 
    2542 0000000e 0FA7          CMPL      ACC,XAR7              ; [CPU_ALU] |356| 
    2543 0000000f 56B0          MOVB      XAR6,#1,NEQ           ; [CPU_ALU] |356| 
         00000010 01A6 
    2544 00000011       ||$C$L7||:    
    2545 00000011 92A6          MOV       AL,AR6                ; [CPU_ALU] |356| 
    2546              $C$DW$197       .dwtag  DW_TAG_TI_branch
    2547                      .dwattr $C$DW$197, DW_AT_low_pc(0x00)
    2548                      .dwattr $C$DW$197, DW_AT_TI_return
    2549              
    2550 00000012 0006          LRETR     ; [CPU_ALU] 
    2551                      ; return occurs ; [] 
    2552                      .dwattr $C$DW$194, DW_AT_TI_end_file("C:/ti/ccs1240/ccs/tools/compiler/ti-cgt-c2000_22.6.0.LTS/includ
    2553                      .dwattr $C$DW$194, DW_AT_TI_end_line(0x165)
    2554                      .dwattr $C$DW$194, DW_AT_TI_end_column(0x2f)
    2555                      .dwendentry
    2556                      .dwendtag $C$DW$194
    2557              
    2558 00000000               .sect   ".text:__isnormal"
    2559                      .clink
    2560                      .global ||__isnormal||
    2561              
    2562              $C$DW$198       .dwtag  DW_TAG_subprogram
    2563                      .dwattr $C$DW$198, DW_AT_name("__isnormal")
    2564                      .dwattr $C$DW$198, DW_AT_low_pc(||__isnormal||)
    2565                      .dwattr $C$DW$198, DW_AT_high_pc(0x00)
    2566                      .dwattr $C$DW$198, DW_AT_linkage_name("__isnormal")
    2567                      .dwattr $C$DW$198, DW_AT_external
    2568                      .dwattr $C$DW$198, DW_AT_type(*$C$DW$T$10)
    2569                      .dwattr $C$DW$198, DW_AT_decl_file("C:/ti/ccs1240/ccs/tools/compiler/ti-cgt-c2000_22.6.0.LTS/include/
    2570                      .dwattr $C$DW$198, DW_AT_decl_line(0x15f)
    2571                      .dwattr $C$DW$198, DW_AT_decl_column(0x18)
    2572                      .dwattr $C$DW$198, DW_AT_TI_max_frame_size(-6)
    2573                      .dwpsn  file "C:/ti/ccs1240/ccs/tools/compiler/ti-cgt-c2000_22.6.0.LTS/include/_defs.h",line 352,colu
    2574              
    2575                      .dwfde $C$DW$CIE, ||__isnormal||
    2576              $C$DW$199       .dwtag  DW_TAG_formal_parameter
    2577                      .dwattr $C$DW$199, DW_AT_name("d")
    2578                      .dwattr $C$DW$199, DW_AT_type(*$C$DW$T$98)
    2579                      .dwattr $C$DW$199, DW_AT_location[DW_OP_reg12]
    2580              
    2581              
    2582              ;***************************************************************
    2583              ;* FNAME: __isnormal                    FR SIZE:   4           *
    2584              ;*                                                             *
    2585              ;* FUNCTION ENVIRONMENT                                        *
    2586              ;*                                                             *
    2587              ;* FUNCTION PROPERTIES                                         *
    2588              ;*                            4 Parameter,  0 Auto,  0 SOE     *
    2589              ;***************************************************************
    2590              
TMS320C2000 Assembler PC v22.6.0 Fri Aug 30 17:52:41 2024

Copyright (c) 1996-2018 Texas Instruments Incorporated
clllc_main.asm                                                       PAGE   51

    2591              ||__isnormal||:
    2592              ;* AR5   assigned to $O$C2
    2593              ;* AR6   assigned to $O$S1
    2594              ;* AR4   assigned to d
    2595              $C$DW$200       .dwtag  DW_TAG_variable
    2596                      .dwattr $C$DW$200, DW_AT_name("d")
    2597                      .dwattr $C$DW$200, DW_AT_type(*$C$DW$T$99)
    2598                      .dwattr $C$DW$200, DW_AT_location[DW_OP_reg12]
    2599              
    2600                      .dwcfi  cfa_offset, -2
    2601                      .dwcfi  save_reg_to_mem, 26, 0
    2602 00000000 FE04          ADDB      SP,#4                 ; [CPU_ARAU] 
    2603                      .dwcfi  cfa_offset, -6
    2604                      .dwpsn  file "C:/ti/ccs1240/ccs/tools/compiler/ti-cgt-c2000_22.6.0.LTS/include/_defs.h",line 352,colu
    2605 00000001 83C4          MOVL      XAR5,*+XAR4[0]        ; [CPU_ALU] |352| 
    2606 00000002 8AD4          MOVL      XAR4,*+XAR4[2]        ; [CPU_ALU] |352| 
    2607 00000003 BE00          MOVB      XAR6,#0               ; [CPU_ALU] |352| 
    2608 00000004 28AC          MOV       T,#52                 ; [CPU_ALU] |352| 
         00000005 0034 
    2609 00000006 A0AB          MOVL      P,XAR5                ; [CPU_ALU] |352| 
    2610 00000007 A8A9          MOVL      ACC,XAR4              ; [CPU_ALU] |352| 
    2611 00000008 C244          MOVL      *-SP[4],XAR6          ; [CPU_ALU] |352| 
    2612 00000009 2B42          MOV       *-SP[2],#0            ; [CPU_ALU] |352| 
    2613 0000000a 565B          LSR64     ACC:P,T               ; [CPU_ALU] |352| 
    2614 0000000b 2B41          MOV       *-SP[1],#0            ; [CPU_FPU] |352| 
    2615 0000000c 9000          ANDB      AL,#0                 ; [CPU_ALU] |352| 
    2616 0000000d 9100          ANDB      AH,#0                 ; [CPU_ALU] |352| 
    2617 0000000e 18AB          AND       PL,#2047              ; [CPU_ALU] |352| 
         0000000f 07FF 
    2618 00000010 18AA          AND       PH,#0                 ; [CPU_ALU] |352| 
         00000011 0000 
    2619              $C$DW$201       .dwtag  DW_TAG_TI_branch
    2620                      .dwattr $C$DW$201, DW_AT_low_pc(0x00)
    2621                      .dwattr $C$DW$201, DW_AT_name("__c28xabi_cmpull")
    2622                      .dwattr $C$DW$201, DW_AT_TI_call
    2623              
    2624 00000012 7640!         LCR       #||__c28xabi_cmpull|| ; [CPU_ALU] |352| 
         00000013 0000 
    2625                      ; call occurs [#||__c28xabi_cmpull||] ; [] |352| 
    2626 00000014 BE00          MOVB      XAR6,#0               ; [CPU_ALU] |352| 
    2627 00000015 5200          CMPB      AL,#0                 ; [CPU_ALU] |352| 
    2628 00000016 610E          B         ||$C$L8||,EQ          ; [CPU_ALU] |352| 
    2629                      ; branchcc occurs ; [] |352| 
    2630 00000017 A0AB          MOVL      P,XAR5                ; [CPU_ALU] |352| 
    2631 00000018 A8A9          MOVL      ACC,XAR4              ; [CPU_ALU] |352| 
    2632 00000019 28AC          MOV       T,#48                 ; [CPU_ALU] |352| 
         0000001a 0030 
    2633 0000001b 565B          LSR64     ACC:P,T               ; [CPU_ALU] |352| 
    2634 0000001c 18AB          AND       PL,#0x7ff0            ; [CPU_ALU] |352| 
         0000001d 7FF0 
    2635 0000001e 80AB          MOVZ      AR7,PL                ; [CPU_ALU] |352| 
    2636 0000001f FF20          MOV       ACC,#32752            ; [CPU_ALU] |352| 
         00000020 7FF0 
    2637 00000021 0FA7          CMPL      ACC,XAR7              ; [CPU_ALU] |352| 
    2638 00000022 56B0          MOVB      XAR6,#1,NEQ           ; [CPU_ALU] |352| 
TMS320C2000 Assembler PC v22.6.0 Fri Aug 30 17:52:41 2024

Copyright (c) 1996-2018 Texas Instruments Incorporated
clllc_main.asm                                                       PAGE   52

         00000023 01A6 
    2639 00000024       ||$C$L8||:    
    2640 00000024 FE84          SUBB      SP,#4                 ; [CPU_ARAU] 
    2641                      .dwcfi  cfa_offset, -2
    2642 00000025 92A6          MOV       AL,AR6                ; [CPU_ALU] |352| 
    2643              $C$DW$202       .dwtag  DW_TAG_TI_branch
    2644                      .dwattr $C$DW$202, DW_AT_low_pc(0x00)
    2645                      .dwattr $C$DW$202, DW_AT_TI_return
    2646              
    2647 00000026 0006          LRETR     ; [CPU_ALU] 
    2648                      ; return occurs ; [] 
    2649                      .dwattr $C$DW$198, DW_AT_TI_end_file("C:/ti/ccs1240/ccs/tools/compiler/ti-cgt-c2000_22.6.0.LTS/includ
    2650                      .dwattr $C$DW$198, DW_AT_TI_end_line(0x161)
    2651                      .dwattr $C$DW$198, DW_AT_TI_end_column(0x30)
    2652                      .dwendentry
    2653                      .dwendtag $C$DW$198
    2654              
    2655 00000000               .sect   ".text:__isnanl"
    2656                      .clink
    2657                      .global ||__isnanl||
    2658              
    2659              $C$DW$203       .dwtag  DW_TAG_subprogram
    2660                      .dwattr $C$DW$203, DW_AT_name("__isnanl")
    2661                      .dwattr $C$DW$203, DW_AT_low_pc(||__isnanl||)
    2662                      .dwattr $C$DW$203, DW_AT_high_pc(0x00)
    2663                      .dwattr $C$DW$203, DW_AT_linkage_name("__isnanl")
    2664                      .dwattr $C$DW$203, DW_AT_external
    2665                      .dwattr $C$DW$203, DW_AT_type(*$C$DW$T$10)
    2666                      .dwattr $C$DW$203, DW_AT_decl_file("C:/ti/ccs1240/ccs/tools/compiler/ti-cgt-c2000_22.6.0.LTS/include/
    2667                      .dwattr $C$DW$203, DW_AT_decl_line(0x15b)
    2668                      .dwattr $C$DW$203, DW_AT_decl_column(0x18)
    2669                      .dwattr $C$DW$203, DW_AT_TI_max_frame_size(-6)
    2670                      .dwpsn  file "C:/ti/ccs1240/ccs/tools/compiler/ti-cgt-c2000_22.6.0.LTS/include/_defs.h",line 348,colu
    2671              
    2672                      .dwfde $C$DW$CIE, ||__isnanl||
    2673              $C$DW$204       .dwtag  DW_TAG_formal_parameter
    2674                      .dwattr $C$DW$204, DW_AT_name("e")
    2675                      .dwattr $C$DW$204, DW_AT_type(*$C$DW$T$101)
    2676                      .dwattr $C$DW$204, DW_AT_location[DW_OP_reg12]
    2677              
    2678              
    2679              ;***************************************************************
    2680              ;* FNAME: __isnanl                      FR SIZE:   4           *
    2681              ;*                                                             *
    2682              ;* FUNCTION ENVIRONMENT                                        *
    2683              ;*                                                             *
    2684              ;* FUNCTION PROPERTIES                                         *
    2685              ;*                            4 Parameter,  0 Auto,  0 SOE     *
    2686              ;***************************************************************
    2687              
    2688              ||__isnanl||:
    2689              ;* AR7   assigned to $O$C2
    2690              ;* AR4   assigned to $O$S1
    2691              ;* AR4   assigned to e
    2692              $C$DW$205       .dwtag  DW_TAG_variable
TMS320C2000 Assembler PC v22.6.0 Fri Aug 30 17:52:41 2024

Copyright (c) 1996-2018 Texas Instruments Incorporated
clllc_main.asm                                                       PAGE   53

    2693                      .dwattr $C$DW$205, DW_AT_name("e")
    2694                      .dwattr $C$DW$205, DW_AT_type(*$C$DW$T$102)
    2695                      .dwattr $C$DW$205, DW_AT_location[DW_OP_reg12]
    2696              
    2697                      .dwcfi  cfa_offset, -2
    2698                      .dwcfi  save_reg_to_mem, 26, 0
    2699 00000000 FE04          ADDB      SP,#4                 ; [CPU_ARAU] 
    2700                      .dwcfi  cfa_offset, -6
    2701                      .dwpsn  file "C:/ti/ccs1240/ccs/tools/compiler/ti-cgt-c2000_22.6.0.LTS/include/_defs.h",line 348,colu
    2702 00000001 C5C4          MOVL      XAR7,*+XAR4[0]        ; [CPU_ALU] |348| 
    2703 00000002 06D4          MOVL      ACC,*+XAR4[2]         ; [CPU_ALU] |348| 
    2704 00000003 28AC          MOV       T,#48                 ; [CPU_ALU] |348| 
         00000004 0030 
    2705 00000005 1EA6          MOVL      XAR6,ACC              ; [CPU_ALU] |348| 
    2706 00000006 A3A7          MOVL      P,XAR7                ; [CPU_ALU] |348| 
    2707 00000007 D400          MOVB      XAR4,#0               ; [CPU_ALU] |348| 
    2708 00000008 565B          LSR64     ACC:P,T               ; [CPU_ALU] |348| 
    2709 00000009 2BAA          MOV       PH,#0                 ; [CPU_ALU] |348| 
    2710 0000000a 18AB          AND       PL,#0x7ff0            ; [CPU_ALU] |348| 
         0000000b 7FF0 
    2711 0000000c FF20          MOV       ACC,#32752            ; [CPU_ALU] |348| 
         0000000d 7FF0 
    2712 0000000e 0FAB          CMPL      ACC,P                 ; [CPU_ALU] |348| 
    2713 0000000f 6013          B         ||$C$L9||,NEQ         ; [CPU_ALU] |348| 
    2714                      ; branchcc occurs ; [] |348| 
    2715 00000010 06A6          MOVL      ACC,XAR6              ; [CPU_ALU] |348| 
    2716 00000011 A3A7          MOVL      P,XAR7                ; [CPU_ALU] |348| 
    2717 00000012 BE00          MOVB      XAR6,#0               ; [CPU_ALU] |348| 
    2718 00000013 18A9          AND       AL,#65535             ; [CPU_ALU] |348| 
         00000014 FFFF 
    2719 00000015 910F          ANDB      AH,#15                ; [CPU_ALU] |348| 
    2720 00000016 18AB          AND       PL,#65535             ; [CPU_ALU] |348| 
         00000017 FFFF 
    2721 00000018 18AA          AND       PH,#65535             ; [CPU_ALU] |348| 
         00000019 FFFF 
    2722 0000001a C244          MOVL      *-SP[4],XAR6          ; [CPU_FPU] |348| 
    2723 0000001b 2B42          MOV       *-SP[2],#0            ; [CPU_FPU] |348| 
    2724 0000001c 2B41          MOV       *-SP[1],#0            ; [CPU_FPU] |348| 
    2725              $C$DW$206       .dwtag  DW_TAG_TI_branch
    2726                      .dwattr $C$DW$206, DW_AT_low_pc(0x00)
    2727                      .dwattr $C$DW$206, DW_AT_name("__c28xabi_cmpull")
    2728                      .dwattr $C$DW$206, DW_AT_TI_call
    2729              
    2730 0000001d 7640!         LCR       #||__c28xabi_cmpull|| ; [CPU_ALU] |348| 
         0000001e 0000 
    2731                      ; call occurs [#||__c28xabi_cmpull||] ; [] |348| 
    2732 0000001f 5200          CMPB      AL,#0                 ; [CPU_ALU] |348| 
    2733 00000020 56B0          MOVB      XAR4,#1,NEQ           ; [CPU_ALU] |348| 
         00000021 01A4 
    2734 00000022       ||$C$L9||:    
    2735 00000022 FE84          SUBB      SP,#4                 ; [CPU_ARAU] 
    2736                      .dwcfi  cfa_offset, -2
    2737 00000023 92A4          MOV       AL,AR4                ; [CPU_ALU] |348| 
    2738              $C$DW$207       .dwtag  DW_TAG_TI_branch
    2739                      .dwattr $C$DW$207, DW_AT_low_pc(0x00)
TMS320C2000 Assembler PC v22.6.0 Fri Aug 30 17:52:41 2024

Copyright (c) 1996-2018 Texas Instruments Incorporated
clllc_main.asm                                                       PAGE   54

    2740                      .dwattr $C$DW$207, DW_AT_TI_return
    2741              
    2742 00000024 0006          LRETR     ; [CPU_ALU] 
    2743                      ; return occurs ; [] 
    2744                      .dwattr $C$DW$203, DW_AT_TI_end_file("C:/ti/ccs1240/ccs/tools/compiler/ti-cgt-c2000_22.6.0.LTS/includ
    2745                      .dwattr $C$DW$203, DW_AT_TI_end_line(0x15d)
    2746                      .dwattr $C$DW$203, DW_AT_TI_end_column(0x30)
    2747                      .dwendentry
    2748                      .dwendtag $C$DW$203
    2749              
    2750 00000000               .sect   ".text:__isnanf"
    2751                      .clink
    2752                      .global ||__isnanf||
    2753              
    2754              $C$DW$208       .dwtag  DW_TAG_subprogram
    2755                      .dwattr $C$DW$208, DW_AT_name("__isnanf")
    2756                      .dwattr $C$DW$208, DW_AT_low_pc(||__isnanf||)
    2757                      .dwattr $C$DW$208, DW_AT_high_pc(0x00)
    2758                      .dwattr $C$DW$208, DW_AT_linkage_name("__isnanf")
    2759                      .dwattr $C$DW$208, DW_AT_external
    2760                      .dwattr $C$DW$208, DW_AT_type(*$C$DW$T$10)
    2761                      .dwattr $C$DW$208, DW_AT_decl_file("C:/ti/ccs1240/ccs/tools/compiler/ti-cgt-c2000_22.6.0.LTS/include/
    2762                      .dwattr $C$DW$208, DW_AT_decl_line(0x158)
    2763                      .dwattr $C$DW$208, DW_AT_decl_column(0x18)
    2764                      .dwattr $C$DW$208, DW_AT_TI_max_frame_size(-2)
    2765                      .dwpsn  file "C:/ti/ccs1240/ccs/tools/compiler/ti-cgt-c2000_22.6.0.LTS/include/_defs.h",line 345,colu
    2766              
    2767                      .dwfde $C$DW$CIE, ||__isnanf||
    2768              $C$DW$209       .dwtag  DW_TAG_formal_parameter
    2769                      .dwattr $C$DW$209, DW_AT_name("f")
    2770                      .dwattr $C$DW$209, DW_AT_type(*$C$DW$T$16)
    2771                      .dwattr $C$DW$209, DW_AT_location[DW_OP_regx 0x2b]
    2772              
    2773              
    2774              ;***************************************************************
    2775              ;* FNAME: __isnanf                      FR SIZE:   0           *
    2776              ;*                                                             *
    2777              ;* FUNCTION ENVIRONMENT                                        *
    2778              ;*                                                             *
    2779              ;* FUNCTION PROPERTIES                                         *
    2780              ;*                            0 Parameter,  0 Auto,  0 SOE     *
    2781              ;***************************************************************
    2782              
    2783              ||__isnanf||:
    2784              ;* PL    assigned to $O$K3
    2785              ;* AR6   assigned to $O$S1
    2786              ;* R0    assigned to f
    2787              $C$DW$210       .dwtag  DW_TAG_variable
    2788                      .dwattr $C$DW$210, DW_AT_name("f")
    2789                      .dwattr $C$DW$210, DW_AT_type(*$C$DW$T$93)
    2790                      .dwattr $C$DW$210, DW_AT_location[DW_OP_regx 0x2b]
    2791              
    2792                      .dwcfi  cfa_offset, -2
    2793                      .dwcfi  save_reg_to_mem, 26, 0
    2794                      .dwpsn  file "C:/ti/ccs1240/ccs/tools/compiler/ti-cgt-c2000_22.6.0.LTS/include/_defs.h",line 345,colu
TMS320C2000 Assembler PC v22.6.0 Fri Aug 30 17:52:41 2024

Copyright (c) 1996-2018 Texas Instruments Incorporated
clllc_main.asm                                                       PAGE   55

    2795 00000000 BFAB          MOV32     P,R0H                 ; [CPU_FPU] |345| 
         00000001 0F12 
    2796 00000002 CCAA          AND       AL,PH,#0x7f80         ; [CPU_ALU] |345| 
         00000003 7F80 
    2797 00000004 80A9          MOVZ      AR7,AL                ; [CPU_ALU] |345| 
    2798 00000005 BE00          MOVB      XAR6,#0               ; [CPU_ALU] |345| 
    2799 00000006 FF20          MOV       ACC,#32640            ; [CPU_ALU] |345| 
         00000007 7F80 
    2800 00000008 0FA7          CMPL      ACC,XAR7              ; [CPU_ALU] |345| 
    2801 00000009 6006          B         ||$C$L10||,NEQ        ; [CPU_ALU] |345| 
    2802                      ; branchcc occurs ; [] |345| 
    2803 0000000a A9A9          MOVL      ACC,P                 ; [CPU_ALU] |345| 
    2804 0000000b 917F          ANDB      AH,#127               ; [CPU_ALU] |345| 
    2805 0000000c FF58          TEST      ACC                   ; [CPU_ALU] |345| 
    2806 0000000d 56B0          MOVB      XAR6,#1,NEQ           ; [CPU_ALU] |345| 
         0000000e 01A6 
    2807 0000000f       ||$C$L10||:    
    2808 0000000f 92A6          MOV       AL,AR6                ; [CPU_ALU] |345| 
    2809              $C$DW$211       .dwtag  DW_TAG_TI_branch
    2810                      .dwattr $C$DW$211, DW_AT_low_pc(0x00)
    2811                      .dwattr $C$DW$211, DW_AT_TI_return
    2812              
    2813 00000010 0006          LRETR     ; [CPU_ALU] 
    2814                      ; return occurs ; [] 
    2815                      .dwattr $C$DW$208, DW_AT_TI_end_file("C:/ti/ccs1240/ccs/tools/compiler/ti-cgt-c2000_22.6.0.LTS/includ
    2816                      .dwattr $C$DW$208, DW_AT_TI_end_line(0x15a)
    2817                      .dwattr $C$DW$208, DW_AT_TI_end_column(0x2e)
    2818                      .dwendentry
    2819                      .dwendtag $C$DW$208
    2820              
    2821 00000000               .sect   ".text:__isnan"
    2822                      .clink
    2823                      .global ||__isnan||
    2824              
    2825              $C$DW$212       .dwtag  DW_TAG_subprogram
    2826                      .dwattr $C$DW$212, DW_AT_name("__isnan")
    2827                      .dwattr $C$DW$212, DW_AT_low_pc(||__isnan||)
    2828                      .dwattr $C$DW$212, DW_AT_high_pc(0x00)
    2829                      .dwattr $C$DW$212, DW_AT_linkage_name("__isnan")
    2830                      .dwattr $C$DW$212, DW_AT_external
    2831                      .dwattr $C$DW$212, DW_AT_type(*$C$DW$T$10)
    2832                      .dwattr $C$DW$212, DW_AT_decl_file("C:/ti/ccs1240/ccs/tools/compiler/ti-cgt-c2000_22.6.0.LTS/include/
    2833                      .dwattr $C$DW$212, DW_AT_decl_line(0x155)
    2834                      .dwattr $C$DW$212, DW_AT_decl_column(0x18)
    2835                      .dwattr $C$DW$212, DW_AT_TI_max_frame_size(-6)
    2836                      .dwpsn  file "C:/ti/ccs1240/ccs/tools/compiler/ti-cgt-c2000_22.6.0.LTS/include/_defs.h",line 342,colu
    2837              
    2838                      .dwfde $C$DW$CIE, ||__isnan||
    2839              $C$DW$213       .dwtag  DW_TAG_formal_parameter
    2840                      .dwattr $C$DW$213, DW_AT_name("d")
    2841                      .dwattr $C$DW$213, DW_AT_type(*$C$DW$T$98)
    2842                      .dwattr $C$DW$213, DW_AT_location[DW_OP_reg12]
    2843              
    2844              
    2845              ;***************************************************************
TMS320C2000 Assembler PC v22.6.0 Fri Aug 30 17:52:41 2024

Copyright (c) 1996-2018 Texas Instruments Incorporated
clllc_main.asm                                                       PAGE   56

    2846              ;* FNAME: __isnan                       FR SIZE:   4           *
    2847              ;*                                                             *
    2848              ;* FUNCTION ENVIRONMENT                                        *
    2849              ;*                                                             *
    2850              ;* FUNCTION PROPERTIES                                         *
    2851              ;*                            4 Parameter,  0 Auto,  0 SOE     *
    2852              ;***************************************************************
    2853              
    2854              ||__isnan||:
    2855              ;* AR7   assigned to $O$C2
    2856              ;* AR4   assigned to $O$S1
    2857              ;* AR4   assigned to d
    2858              $C$DW$214       .dwtag  DW_TAG_variable
    2859                      .dwattr $C$DW$214, DW_AT_name("d")
    2860                      .dwattr $C$DW$214, DW_AT_type(*$C$DW$T$99)
    2861                      .dwattr $C$DW$214, DW_AT_location[DW_OP_reg12]
    2862              
    2863                      .dwcfi  cfa_offset, -2
    2864                      .dwcfi  save_reg_to_mem, 26, 0
    2865 00000000 FE04          ADDB      SP,#4                 ; [CPU_ARAU] 
    2866                      .dwcfi  cfa_offset, -6
    2867                      .dwpsn  file "C:/ti/ccs1240/ccs/tools/compiler/ti-cgt-c2000_22.6.0.LTS/include/_defs.h",line 342,colu
    2868 00000001 C5C4          MOVL      XAR7,*+XAR4[0]        ; [CPU_ALU] |342| 
    2869 00000002 06D4          MOVL      ACC,*+XAR4[2]         ; [CPU_ALU] |342| 
    2870 00000003 28AC          MOV       T,#48                 ; [CPU_ALU] |342| 
         00000004 0030 
    2871 00000005 1EA6          MOVL      XAR6,ACC              ; [CPU_ALU] |342| 
    2872 00000006 A3A7          MOVL      P,XAR7                ; [CPU_ALU] |342| 
    2873 00000007 D400          MOVB      XAR4,#0               ; [CPU_ALU] |342| 
    2874 00000008 565B          LSR64     ACC:P,T               ; [CPU_ALU] |342| 
    2875 00000009 2BAA          MOV       PH,#0                 ; [CPU_ALU] |342| 
    2876 0000000a 18AB          AND       PL,#0x7ff0            ; [CPU_ALU] |342| 
         0000000b 7FF0 
    2877 0000000c FF20          MOV       ACC,#32752            ; [CPU_ALU] |342| 
         0000000d 7FF0 
    2878 0000000e 0FAB          CMPL      ACC,P                 ; [CPU_ALU] |342| 
    2879 0000000f 6013          B         ||$C$L11||,NEQ        ; [CPU_ALU] |342| 
    2880                      ; branchcc occurs ; [] |342| 
    2881 00000010 06A6          MOVL      ACC,XAR6              ; [CPU_ALU] |342| 
    2882 00000011 A3A7          MOVL      P,XAR7                ; [CPU_ALU] |342| 
    2883 00000012 BE00          MOVB      XAR6,#0               ; [CPU_ALU] |342| 
    2884 00000013 18A9          AND       AL,#65535             ; [CPU_ALU] |342| 
         00000014 FFFF 
    2885 00000015 910F          ANDB      AH,#15                ; [CPU_ALU] |342| 
    2886 00000016 18AB          AND       PL,#65535             ; [CPU_ALU] |342| 
         00000017 FFFF 
    2887 00000018 18AA          AND       PH,#65535             ; [CPU_ALU] |342| 
         00000019 FFFF 
    2888 0000001a C244          MOVL      *-SP[4],XAR6          ; [CPU_FPU] |342| 
    2889 0000001b 2B42          MOV       *-SP[2],#0            ; [CPU_FPU] |342| 
    2890 0000001c 2B41          MOV       *-SP[1],#0            ; [CPU_FPU] |342| 
    2891              $C$DW$215       .dwtag  DW_TAG_TI_branch
    2892                      .dwattr $C$DW$215, DW_AT_low_pc(0x00)
    2893                      .dwattr $C$DW$215, DW_AT_name("__c28xabi_cmpull")
    2894                      .dwattr $C$DW$215, DW_AT_TI_call
TMS320C2000 Assembler PC v22.6.0 Fri Aug 30 17:52:41 2024

Copyright (c) 1996-2018 Texas Instruments Incorporated
clllc_main.asm                                                       PAGE   57

    2895              
    2896 0000001d 7640!         LCR       #||__c28xabi_cmpull|| ; [CPU_ALU] |342| 
         0000001e 0000 
    2897                      ; call occurs [#||__c28xabi_cmpull||] ; [] |342| 
    2898 0000001f 5200          CMPB      AL,#0                 ; [CPU_ALU] |342| 
    2899 00000020 56B0          MOVB      XAR4,#1,NEQ           ; [CPU_ALU] |342| 
         00000021 01A4 
    2900 00000022       ||$C$L11||:    
    2901 00000022 FE84          SUBB      SP,#4                 ; [CPU_ARAU] 
    2902                      .dwcfi  cfa_offset, -2
    2903 00000023 92A4          MOV       AL,AR4                ; [CPU_ALU] |342| 
    2904              $C$DW$216       .dwtag  DW_TAG_TI_branch
    2905                      .dwattr $C$DW$216, DW_AT_low_pc(0x00)
    2906                      .dwattr $C$DW$216, DW_AT_TI_return
    2907              
    2908 00000024 0006          LRETR     ; [CPU_ALU] 
    2909                      ; return occurs ; [] 
    2910                      .dwattr $C$DW$212, DW_AT_TI_end_file("C:/ti/ccs1240/ccs/tools/compiler/ti-cgt-c2000_22.6.0.LTS/includ
    2911                      .dwattr $C$DW$212, DW_AT_TI_end_line(0x157)
    2912                      .dwattr $C$DW$212, DW_AT_TI_end_column(0x2f)
    2913                      .dwendentry
    2914                      .dwendtag $C$DW$212
    2915              
    2916 00000000               .sect   ".text:__isinfl"
    2917                      .clink
    2918                      .global ||__isinfl||
    2919              
    2920              $C$DW$217       .dwtag  DW_TAG_subprogram
    2921                      .dwattr $C$DW$217, DW_AT_name("__isinfl")
    2922                      .dwattr $C$DW$217, DW_AT_low_pc(||__isinfl||)
    2923                      .dwattr $C$DW$217, DW_AT_high_pc(0x00)
    2924                      .dwattr $C$DW$217, DW_AT_linkage_name("__isinfl")
    2925                      .dwattr $C$DW$217, DW_AT_external
    2926                      .dwattr $C$DW$217, DW_AT_type(*$C$DW$T$10)
    2927                      .dwattr $C$DW$217, DW_AT_decl_file("C:/ti/ccs1240/ccs/tools/compiler/ti-cgt-c2000_22.6.0.LTS/include/
    2928                      .dwattr $C$DW$217, DW_AT_decl_line(0x17a)
    2929                      .dwattr $C$DW$217, DW_AT_decl_column(0x18)
    2930                      .dwattr $C$DW$217, DW_AT_TI_max_frame_size(-6)
    2931                      .dwpsn  file "C:/ti/ccs1240/ccs/tools/compiler/ti-cgt-c2000_22.6.0.LTS/include/_defs.h",line 379,colu
    2932              
    2933                      .dwfde $C$DW$CIE, ||__isinfl||
    2934              $C$DW$218       .dwtag  DW_TAG_formal_parameter
    2935                      .dwattr $C$DW$218, DW_AT_name("e")
    2936                      .dwattr $C$DW$218, DW_AT_type(*$C$DW$T$101)
    2937                      .dwattr $C$DW$218, DW_AT_location[DW_OP_reg12]
    2938              
    2939              
    2940              ;***************************************************************
    2941              ;* FNAME: __isinfl                      FR SIZE:   4           *
    2942              ;*                                                             *
    2943              ;* FUNCTION ENVIRONMENT                                        *
    2944              ;*                                                             *
    2945              ;* FUNCTION PROPERTIES                                         *
    2946              ;*                            4 Parameter,  0 Auto,  0 SOE     *
    2947              ;***************************************************************
TMS320C2000 Assembler PC v22.6.0 Fri Aug 30 17:52:41 2024

Copyright (c) 1996-2018 Texas Instruments Incorporated
clllc_main.asm                                                       PAGE   58

    2948              
    2949              ||__isinfl||:
    2950              ;* AR7   assigned to $O$C2
    2951              ;* AR4   assigned to $O$S1
    2952              ;* AR4   assigned to e
    2953              $C$DW$219       .dwtag  DW_TAG_variable
    2954                      .dwattr $C$DW$219, DW_AT_name("e")
    2955                      .dwattr $C$DW$219, DW_AT_type(*$C$DW$T$102)
    2956                      .dwattr $C$DW$219, DW_AT_location[DW_OP_reg12]
    2957              
    2958                      .dwcfi  cfa_offset, -2
    2959                      .dwcfi  save_reg_to_mem, 26, 0
    2960 00000000 FE04          ADDB      SP,#4                 ; [CPU_ARAU] 
    2961                      .dwcfi  cfa_offset, -6
    2962                      .dwpsn  file "C:/ti/ccs1240/ccs/tools/compiler/ti-cgt-c2000_22.6.0.LTS/include/_defs.h",line 379,colu
    2963 00000001 C5C4          MOVL      XAR7,*+XAR4[0]        ; [CPU_ALU] |379| 
    2964 00000002 06D4          MOVL      ACC,*+XAR4[2]         ; [CPU_ALU] |379| 
    2965 00000003 28AC          MOV       T,#48                 ; [CPU_ALU] |379| 
         00000004 0030 
    2966 00000005 1EA6          MOVL      XAR6,ACC              ; [CPU_ALU] |379| 
    2967 00000006 A3A7          MOVL      P,XAR7                ; [CPU_ALU] |379| 
    2968 00000007 D400          MOVB      XAR4,#0               ; [CPU_ALU] |379| 
    2969 00000008 565B          LSR64     ACC:P,T               ; [CPU_ALU] |379| 
    2970 00000009 2BAA          MOV       PH,#0                 ; [CPU_ALU] |379| 
    2971 0000000a 18AB          AND       PL,#0x7ff0            ; [CPU_ALU] |379| 
         0000000b 7FF0 
    2972 0000000c FF20          MOV       ACC,#32752            ; [CPU_ALU] |379| 
         0000000d 7FF0 
    2973 0000000e 0FAB          CMPL      ACC,P                 ; [CPU_ALU] |379| 
    2974 0000000f 6013          B         ||$C$L12||,NEQ        ; [CPU_ALU] |379| 
    2975                      ; branchcc occurs ; [] |379| 
    2976 00000010 06A6          MOVL      ACC,XAR6              ; [CPU_ALU] |379| 
    2977 00000011 A3A7          MOVL      P,XAR7                ; [CPU_ALU] |379| 
    2978 00000012 BE00          MOVB      XAR6,#0               ; [CPU_ALU] |379| 
    2979 00000013 18A9          AND       AL,#65535             ; [CPU_ALU] |379| 
         00000014 FFFF 
    2980 00000015 910F          ANDB      AH,#15                ; [CPU_ALU] |379| 
    2981 00000016 18AB          AND       PL,#65535             ; [CPU_ALU] |379| 
         00000017 FFFF 
    2982 00000018 18AA          AND       PH,#65535             ; [CPU_ALU] |379| 
         00000019 FFFF 
    2983 0000001a C244          MOVL      *-SP[4],XAR6          ; [CPU_FPU] |379| 
    2984 0000001b 2B42          MOV       *-SP[2],#0            ; [CPU_FPU] |379| 
    2985 0000001c 2B41          MOV       *-SP[1],#0            ; [CPU_FPU] |379| 
    2986              $C$DW$220       .dwtag  DW_TAG_TI_branch
    2987                      .dwattr $C$DW$220, DW_AT_low_pc(0x00)
    2988                      .dwattr $C$DW$220, DW_AT_name("__c28xabi_cmpull")
    2989                      .dwattr $C$DW$220, DW_AT_TI_call
    2990              
    2991 0000001d 7640!         LCR       #||__c28xabi_cmpull|| ; [CPU_ALU] |379| 
         0000001e 0000 
    2992                      ; call occurs [#||__c28xabi_cmpull||] ; [] |379| 
    2993 0000001f 5200          CMPB      AL,#0                 ; [CPU_ALU] |379| 
    2994 00000020 56B1          MOVB      XAR4,#1,EQ            ; [CPU_ALU] |379| 
         00000021 01A4 
TMS320C2000 Assembler PC v22.6.0 Fri Aug 30 17:52:41 2024

Copyright (c) 1996-2018 Texas Instruments Incorporated
clllc_main.asm                                                       PAGE   59

    2995 00000022       ||$C$L12||:    
    2996 00000022 FE84          SUBB      SP,#4                 ; [CPU_ARAU] 
    2997                      .dwcfi  cfa_offset, -2
    2998 00000023 92A4          MOV       AL,AR4                ; [CPU_ALU] |379| 
    2999              $C$DW$221       .dwtag  DW_TAG_TI_branch
    3000                      .dwattr $C$DW$221, DW_AT_low_pc(0x00)
    3001                      .dwattr $C$DW$221, DW_AT_TI_return
    3002              
    3003 00000024 0006          LRETR     ; [CPU_ALU] 
    3004                      ; return occurs ; [] 
    3005                      .dwattr $C$DW$217, DW_AT_TI_end_file("C:/ti/ccs1240/ccs/tools/compiler/ti-cgt-c2000_22.6.0.LTS/includ
    3006                      .dwattr $C$DW$217, DW_AT_TI_end_line(0x17b)
    3007                      .dwattr $C$DW$217, DW_AT_TI_end_column(0x4c)
    3008                      .dwendentry
    3009                      .dwendtag $C$DW$217
    3010              
    3011 00000000               .sect   ".text:__isinff"
    3012                      .clink
    3013                      .global ||__isinff||
    3014              
    3015              $C$DW$222       .dwtag  DW_TAG_subprogram
    3016                      .dwattr $C$DW$222, DW_AT_name("__isinff")
    3017                      .dwattr $C$DW$222, DW_AT_low_pc(||__isinff||)
    3018                      .dwattr $C$DW$222, DW_AT_high_pc(0x00)
    3019                      .dwattr $C$DW$222, DW_AT_linkage_name("__isinff")
    3020                      .dwattr $C$DW$222, DW_AT_external
    3021                      .dwattr $C$DW$222, DW_AT_type(*$C$DW$T$10)
    3022                      .dwattr $C$DW$222, DW_AT_decl_file("C:/ti/ccs1240/ccs/tools/compiler/ti-cgt-c2000_22.6.0.LTS/include/
    3023                      .dwattr $C$DW$222, DW_AT_decl_line(0x176)
    3024                      .dwattr $C$DW$222, DW_AT_decl_column(0x18)
    3025                      .dwattr $C$DW$222, DW_AT_TI_max_frame_size(-2)
    3026                      .dwpsn  file "C:/ti/ccs1240/ccs/tools/compiler/ti-cgt-c2000_22.6.0.LTS/include/_defs.h",line 375,colu
    3027              
    3028                      .dwfde $C$DW$CIE, ||__isinff||
    3029              $C$DW$223       .dwtag  DW_TAG_formal_parameter
    3030                      .dwattr $C$DW$223, DW_AT_name("f")
    3031                      .dwattr $C$DW$223, DW_AT_type(*$C$DW$T$16)
    3032                      .dwattr $C$DW$223, DW_AT_location[DW_OP_regx 0x2b]
    3033              
    3034              
    3035              ;***************************************************************
    3036              ;* FNAME: __isinff                      FR SIZE:   0           *
    3037              ;*                                                             *
    3038              ;* FUNCTION ENVIRONMENT                                        *
    3039              ;*                                                             *
    3040              ;* FUNCTION PROPERTIES                                         *
    3041              ;*                            0 Parameter,  0 Auto,  0 SOE     *
    3042              ;***************************************************************
    3043              
    3044              ||__isinff||:
    3045              ;* PL    assigned to $O$K3
    3046              ;* AR6   assigned to $O$S1
    3047              ;* R0    assigned to f
    3048              $C$DW$224       .dwtag  DW_TAG_variable
    3049                      .dwattr $C$DW$224, DW_AT_name("f")
TMS320C2000 Assembler PC v22.6.0 Fri Aug 30 17:52:41 2024

Copyright (c) 1996-2018 Texas Instruments Incorporated
clllc_main.asm                                                       PAGE   60

    3050                      .dwattr $C$DW$224, DW_AT_type(*$C$DW$T$93)
    3051                      .dwattr $C$DW$224, DW_AT_location[DW_OP_regx 0x2b]
    3052              
    3053                      .dwcfi  cfa_offset, -2
    3054                      .dwcfi  save_reg_to_mem, 26, 0
    3055                      .dwpsn  file "C:/ti/ccs1240/ccs/tools/compiler/ti-cgt-c2000_22.6.0.LTS/include/_defs.h",line 375,colu
    3056 00000000 BFAB          MOV32     P,R0H                 ; [CPU_FPU] |375| 
         00000001 0F12 
    3057 00000002 CCAA          AND       AL,PH,#0x7f80         ; [CPU_ALU] |375| 
         00000003 7F80 
    3058 00000004 80A9          MOVZ      AR7,AL                ; [CPU_ALU] |375| 
    3059 00000005 BE00          MOVB      XAR6,#0               ; [CPU_ALU] |375| 
    3060 00000006 FF20          MOV       ACC,#32640            ; [CPU_ALU] |375| 
         00000007 7F80 
    3061 00000008 0FA7          CMPL      ACC,XAR7              ; [CPU_ALU] |375| 
    3062 00000009 6006          B         ||$C$L13||,NEQ        ; [CPU_ALU] |375| 
    3063                      ; branchcc occurs ; [] |375| 
    3064 0000000a A9A9          MOVL      ACC,P                 ; [CPU_ALU] |375| 
    3065 0000000b 917F          ANDB      AH,#127               ; [CPU_ALU] |375| 
    3066 0000000c FF58          TEST      ACC                   ; [CPU_ALU] |375| 
    3067 0000000d 56B1          MOVB      XAR6,#1,EQ            ; [CPU_ALU] |375| 
         0000000e 01A6 
    3068 0000000f       ||$C$L13||:    
    3069 0000000f 92A6          MOV       AL,AR6                ; [CPU_ALU] |375| 
    3070              $C$DW$225       .dwtag  DW_TAG_TI_branch
    3071                      .dwattr $C$DW$225, DW_AT_low_pc(0x00)
    3072                      .dwattr $C$DW$225, DW_AT_TI_return
    3073              
    3074 00000010 0006          LRETR     ; [CPU_ALU] 
    3075                      ; return occurs ; [] 
    3076                      .dwattr $C$DW$222, DW_AT_TI_end_file("C:/ti/ccs1240/ccs/tools/compiler/ti-cgt-c2000_22.6.0.LTS/includ
    3077                      .dwattr $C$DW$222, DW_AT_TI_end_line(0x177)
    3078                      .dwattr $C$DW$222, DW_AT_TI_end_column(0x48)
    3079                      .dwendentry
    3080                      .dwendtag $C$DW$222
    3081              
    3082 00000000               .sect   ".text:__isinf"
    3083                      .clink
    3084                      .global ||__isinf||
    3085              
    3086              $C$DW$226       .dwtag  DW_TAG_subprogram
    3087                      .dwattr $C$DW$226, DW_AT_name("__isinf")
    3088                      .dwattr $C$DW$226, DW_AT_low_pc(||__isinf||)
    3089                      .dwattr $C$DW$226, DW_AT_high_pc(0x00)
    3090                      .dwattr $C$DW$226, DW_AT_linkage_name("__isinf")
    3091                      .dwattr $C$DW$226, DW_AT_external
    3092                      .dwattr $C$DW$226, DW_AT_type(*$C$DW$T$10)
    3093                      .dwattr $C$DW$226, DW_AT_decl_file("C:/ti/ccs1240/ccs/tools/compiler/ti-cgt-c2000_22.6.0.LTS/include/
    3094                      .dwattr $C$DW$226, DW_AT_decl_line(0x178)
    3095                      .dwattr $C$DW$226, DW_AT_decl_column(0x18)
    3096                      .dwattr $C$DW$226, DW_AT_TI_max_frame_size(-6)
    3097                      .dwpsn  file "C:/ti/ccs1240/ccs/tools/compiler/ti-cgt-c2000_22.6.0.LTS/include/_defs.h",line 377,colu
    3098              
    3099                      .dwfde $C$DW$CIE, ||__isinf||
    3100              $C$DW$227       .dwtag  DW_TAG_formal_parameter
TMS320C2000 Assembler PC v22.6.0 Fri Aug 30 17:52:41 2024

Copyright (c) 1996-2018 Texas Instruments Incorporated
clllc_main.asm                                                       PAGE   61

    3101                      .dwattr $C$DW$227, DW_AT_name("d")
    3102                      .dwattr $C$DW$227, DW_AT_type(*$C$DW$T$98)
    3103                      .dwattr $C$DW$227, DW_AT_location[DW_OP_reg12]
    3104              
    3105              
    3106              ;***************************************************************
    3107              ;* FNAME: __isinf                       FR SIZE:   4           *
    3108              ;*                                                             *
    3109              ;* FUNCTION ENVIRONMENT                                        *
    3110              ;*                                                             *
    3111              ;* FUNCTION PROPERTIES                                         *
    3112              ;*                            4 Parameter,  0 Auto,  0 SOE     *
    3113              ;***************************************************************
    3114              
    3115              ||__isinf||:
    3116              ;* AR7   assigned to $O$C2
    3117              ;* AR4   assigned to $O$S1
    3118              ;* AR4   assigned to d
    3119              $C$DW$228       .dwtag  DW_TAG_variable
    3120                      .dwattr $C$DW$228, DW_AT_name("d")
    3121                      .dwattr $C$DW$228, DW_AT_type(*$C$DW$T$99)
    3122                      .dwattr $C$DW$228, DW_AT_location[DW_OP_reg12]
    3123              
    3124                      .dwcfi  cfa_offset, -2
    3125                      .dwcfi  save_reg_to_mem, 26, 0
    3126 00000000 FE04          ADDB      SP,#4                 ; [CPU_ARAU] 
    3127                      .dwcfi  cfa_offset, -6
    3128                      .dwpsn  file "C:/ti/ccs1240/ccs/tools/compiler/ti-cgt-c2000_22.6.0.LTS/include/_defs.h",line 377,colu
    3129 00000001 C5C4          MOVL      XAR7,*+XAR4[0]        ; [CPU_ALU] |377| 
    3130 00000002 06D4          MOVL      ACC,*+XAR4[2]         ; [CPU_ALU] |377| 
    3131 00000003 28AC          MOV       T,#48                 ; [CPU_ALU] |377| 
         00000004 0030 
    3132 00000005 1EA6          MOVL      XAR6,ACC              ; [CPU_ALU] |377| 
    3133 00000006 A3A7          MOVL      P,XAR7                ; [CPU_ALU] |377| 
    3134 00000007 D400          MOVB      XAR4,#0               ; [CPU_ALU] |377| 
    3135 00000008 565B          LSR64     ACC:P,T               ; [CPU_ALU] |377| 
    3136 00000009 2BAA          MOV       PH,#0                 ; [CPU_ALU] |377| 
    3137 0000000a 18AB          AND       PL,#0x7ff0            ; [CPU_ALU] |377| 
         0000000b 7FF0 
    3138 0000000c FF20          MOV       ACC,#32752            ; [CPU_ALU] |377| 
         0000000d 7FF0 
    3139 0000000e 0FAB          CMPL      ACC,P                 ; [CPU_ALU] |377| 
    3140 0000000f 6013          B         ||$C$L14||,NEQ        ; [CPU_ALU] |377| 
    3141                      ; branchcc occurs ; [] |377| 
    3142 00000010 06A6          MOVL      ACC,XAR6              ; [CPU_ALU] |377| 
    3143 00000011 A3A7          MOVL      P,XAR7                ; [CPU_ALU] |377| 
    3144 00000012 BE00          MOVB      XAR6,#0               ; [CPU_ALU] |377| 
    3145 00000013 18A9          AND       AL,#65535             ; [CPU_ALU] |377| 
         00000014 FFFF 
    3146 00000015 910F          ANDB      AH,#15                ; [CPU_ALU] |377| 
    3147 00000016 18AB          AND       PL,#65535             ; [CPU_ALU] |377| 
         00000017 FFFF 
    3148 00000018 18AA          AND       PH,#65535             ; [CPU_ALU] |377| 
         00000019 FFFF 
    3149 0000001a C244          MOVL      *-SP[4],XAR6          ; [CPU_FPU] |377| 
TMS320C2000 Assembler PC v22.6.0 Fri Aug 30 17:52:41 2024

Copyright (c) 1996-2018 Texas Instruments Incorporated
clllc_main.asm                                                       PAGE   62

    3150 0000001b 2B42          MOV       *-SP[2],#0            ; [CPU_FPU] |377| 
    3151 0000001c 2B41          MOV       *-SP[1],#0            ; [CPU_FPU] |377| 
    3152              $C$DW$229       .dwtag  DW_TAG_TI_branch
    3153                      .dwattr $C$DW$229, DW_AT_low_pc(0x00)
    3154                      .dwattr $C$DW$229, DW_AT_name("__c28xabi_cmpull")
    3155                      .dwattr $C$DW$229, DW_AT_TI_call
    3156              
    3157 0000001d 7640!         LCR       #||__c28xabi_cmpull|| ; [CPU_ALU] |377| 
         0000001e 0000 
    3158                      ; call occurs [#||__c28xabi_cmpull||] ; [] |377| 
    3159 0000001f 5200          CMPB      AL,#0                 ; [CPU_ALU] |377| 
    3160 00000020 56B1          MOVB      XAR4,#1,EQ            ; [CPU_ALU] |377| 
         00000021 01A4 
    3161 00000022       ||$C$L14||:    
    3162 00000022 FE84          SUBB      SP,#4                 ; [CPU_ARAU] 
    3163                      .dwcfi  cfa_offset, -2
    3164 00000023 92A4          MOV       AL,AR4                ; [CPU_ALU] |377| 
    3165              $C$DW$230       .dwtag  DW_TAG_TI_branch
    3166                      .dwattr $C$DW$230, DW_AT_low_pc(0x00)
    3167                      .dwattr $C$DW$230, DW_AT_TI_return
    3168              
    3169 00000024 0006          LRETR     ; [CPU_ALU] 
    3170                      ; return occurs ; [] 
    3171                      .dwattr $C$DW$226, DW_AT_TI_end_file("C:/ti/ccs1240/ccs/tools/compiler/ti-cgt-c2000_22.6.0.LTS/includ
    3172                      .dwattr $C$DW$226, DW_AT_TI_end_line(0x179)
    3173                      .dwattr $C$DW$226, DW_AT_TI_end_column(0x4a)
    3174                      .dwendentry
    3175                      .dwendtag $C$DW$226
    3176              
    3177 00000000               .sect   ".text:__isfinitel"
    3178                      .clink
    3179                      .global ||__isfinitel||
    3180              
    3181              $C$DW$231       .dwtag  DW_TAG_subprogram
    3182                      .dwattr $C$DW$231, DW_AT_name("__isfinitel")
    3183                      .dwattr $C$DW$231, DW_AT_low_pc(||__isfinitel||)
    3184                      .dwattr $C$DW$231, DW_AT_high_pc(0x00)
    3185                      .dwattr $C$DW$231, DW_AT_linkage_name("__isfinitel")
    3186                      .dwattr $C$DW$231, DW_AT_external
    3187                      .dwattr $C$DW$231, DW_AT_type(*$C$DW$T$10)
    3188                      .dwattr $C$DW$231, DW_AT_decl_file("C:/ti/ccs1240/ccs/tools/compiler/ti-cgt-c2000_22.6.0.LTS/include/
    3189                      .dwattr $C$DW$231, DW_AT_decl_line(0x152)
    3190                      .dwattr $C$DW$231, DW_AT_decl_column(0x18)
    3191                      .dwattr $C$DW$231, DW_AT_TI_max_frame_size(-2)
    3192                      .dwpsn  file "C:/ti/ccs1240/ccs/tools/compiler/ti-cgt-c2000_22.6.0.LTS/include/_defs.h",line 339,colu
    3193              
    3194                      .dwfde $C$DW$CIE, ||__isfinitel||
    3195              $C$DW$232       .dwtag  DW_TAG_formal_parameter
    3196                      .dwattr $C$DW$232, DW_AT_name("e")
    3197                      .dwattr $C$DW$232, DW_AT_type(*$C$DW$T$101)
    3198                      .dwattr $C$DW$232, DW_AT_location[DW_OP_reg12]
    3199              
    3200              
    3201              ;***************************************************************
    3202              ;* FNAME: __isfinitel                   FR SIZE:   0           *
TMS320C2000 Assembler PC v22.6.0 Fri Aug 30 17:52:41 2024

Copyright (c) 1996-2018 Texas Instruments Incorporated
clllc_main.asm                                                       PAGE   63

    3203              ;*                                                             *
    3204              ;* FUNCTION ENVIRONMENT                                        *
    3205              ;*                                                             *
    3206              ;* FUNCTION PROPERTIES                                         *
    3207              ;*                            0 Parameter,  0 Auto,  0 SOE     *
    3208              ;***************************************************************
    3209              
    3210              ||__isfinitel||:
    3211              ;* AR4   assigned to e
    3212              $C$DW$233       .dwtag  DW_TAG_variable
    3213                      .dwattr $C$DW$233, DW_AT_name("e")
    3214                      .dwattr $C$DW$233, DW_AT_type(*$C$DW$T$102)
    3215                      .dwattr $C$DW$233, DW_AT_location[DW_OP_reg12]
    3216              
    3217                      .dwcfi  cfa_offset, -2
    3218                      .dwcfi  save_reg_to_mem, 26, 0
    3219                      .dwpsn  file "C:/ti/ccs1240/ccs/tools/compiler/ti-cgt-c2000_22.6.0.LTS/include/_defs.h",line 339,colu
    3220 00000000 A3C4          MOVL      P,*+XAR4[0]           ; [CPU_ALU] |339| 
    3221 00000001 06D4          MOVL      ACC,*+XAR4[2]         ; [CPU_ALU] |339| 
    3222 00000002 28AC          MOV       T,#48                 ; [CPU_ALU] |339| 
         00000003 0030 
    3223 00000004 565B          LSR64     ACC:P,T               ; [CPU_ALU] |339| 
    3224 00000005 18AB          AND       PL,#0x7ff0            ; [CPU_ALU] |339| 
         00000006 7FF0 
    3225 00000007 80AB          MOVZ      AR7,PL                ; [CPU_ALU] |339| 
    3226 00000008 FF20          MOV       ACC,#32752            ; [CPU_ALU] |339| 
         00000009 7FF0 
    3227 0000000a BE00          MOVB      XAR6,#0               ; [CPU_ALU] |339| 
    3228 0000000b 0FA7          CMPL      ACC,XAR7              ; [CPU_ALU] |339| 
    3229 0000000c 56B0          MOVB      XAR6,#1,NEQ           ; [CPU_ALU] |339| 
         0000000d 01A6 
    3230 0000000e 92A6          MOV       AL,AR6                ; [CPU_ALU] |339| 
    3231              $C$DW$234       .dwtag  DW_TAG_TI_branch
    3232                      .dwattr $C$DW$234, DW_AT_low_pc(0x00)
    3233                      .dwattr $C$DW$234, DW_AT_TI_return
    3234              
    3235 0000000f 0006          LRETR     ; [CPU_ALU] 
    3236                      ; return occurs ; [] 
    3237                      .dwattr $C$DW$231, DW_AT_TI_end_file("C:/ti/ccs1240/ccs/tools/compiler/ti-cgt-c2000_22.6.0.LTS/includ
    3238                      .dwattr $C$DW$231, DW_AT_TI_end_line(0x153)
    3239                      .dwattr $C$DW$231, DW_AT_TI_end_column(0x2f)
    3240                      .dwendentry
    3241                      .dwendtag $C$DW$231
    3242              
    3243 00000000               .sect   ".text:__isfinitef"
    3244                      .clink
    3245                      .global ||__isfinitef||
    3246              
    3247              $C$DW$235       .dwtag  DW_TAG_subprogram
    3248                      .dwattr $C$DW$235, DW_AT_name("__isfinitef")
    3249                      .dwattr $C$DW$235, DW_AT_low_pc(||__isfinitef||)
    3250                      .dwattr $C$DW$235, DW_AT_high_pc(0x00)
    3251                      .dwattr $C$DW$235, DW_AT_linkage_name("__isfinitef")
    3252                      .dwattr $C$DW$235, DW_AT_external
    3253                      .dwattr $C$DW$235, DW_AT_type(*$C$DW$T$10)
TMS320C2000 Assembler PC v22.6.0 Fri Aug 30 17:52:41 2024

Copyright (c) 1996-2018 Texas Instruments Incorporated
clllc_main.asm                                                       PAGE   64

    3254                      .dwattr $C$DW$235, DW_AT_decl_file("C:/ti/ccs1240/ccs/tools/compiler/ti-cgt-c2000_22.6.0.LTS/include/
    3255                      .dwattr $C$DW$235, DW_AT_decl_line(0x150)
    3256                      .dwattr $C$DW$235, DW_AT_decl_column(0x18)
    3257                      .dwattr $C$DW$235, DW_AT_TI_max_frame_size(-2)
    3258                      .dwpsn  file "C:/ti/ccs1240/ccs/tools/compiler/ti-cgt-c2000_22.6.0.LTS/include/_defs.h",line 337,colu
    3259              
    3260                      .dwfde $C$DW$CIE, ||__isfinitef||
    3261              $C$DW$236       .dwtag  DW_TAG_formal_parameter
    3262                      .dwattr $C$DW$236, DW_AT_name("f")
    3263                      .dwattr $C$DW$236, DW_AT_type(*$C$DW$T$16)
    3264                      .dwattr $C$DW$236, DW_AT_location[DW_OP_regx 0x2b]
    3265              
    3266              
    3267              ;***************************************************************
    3268              ;* FNAME: __isfinitef                   FR SIZE:   0           *
    3269              ;*                                                             *
    3270              ;* FUNCTION ENVIRONMENT                                        *
    3271              ;*                                                             *
    3272              ;* FUNCTION PROPERTIES                                         *
    3273              ;*                            0 Parameter,  0 Auto,  0 SOE     *
    3274              ;***************************************************************
    3275              
    3276              ||__isfinitef||:
    3277              ;* R0    assigned to f
    3278              $C$DW$237       .dwtag  DW_TAG_variable
    3279                      .dwattr $C$DW$237, DW_AT_name("f")
    3280                      .dwattr $C$DW$237, DW_AT_type(*$C$DW$T$93)
    3281                      .dwattr $C$DW$237, DW_AT_location[DW_OP_regx 0x2b]
    3282              
    3283                      .dwcfi  cfa_offset, -2
    3284                      .dwcfi  save_reg_to_mem, 26, 0
    3285                      .dwpsn  file "C:/ti/ccs1240/ccs/tools/compiler/ti-cgt-c2000_22.6.0.LTS/include/_defs.h",line 337,colu
    3286 00000000 BFAB          MOV32     P,R0H                 ; [CPU_FPU] |337| 
         00000001 0F12 
    3287 00000002 18AA          AND       PH,#0x7f80            ; [CPU_ALU] |337| 
         00000003 7F80 
    3288 00000004 80AA          MOVZ      AR7,PH                ; [CPU_ALU] |337| 
    3289 00000005 FF20          MOV       ACC,#32640            ; [CPU_ALU] |337| 
         00000006 7F80 
    3290 00000007 BE00          MOVB      XAR6,#0               ; [CPU_ALU] |337| 
    3291 00000008 0FA7          CMPL      ACC,XAR7              ; [CPU_ALU] |337| 
    3292 00000009 56B0          MOVB      XAR6,#1,NEQ           ; [CPU_ALU] |337| 
         0000000a 01A6 
    3293 0000000b 92A6          MOV       AL,AR6                ; [CPU_ALU] |337| 
    3294              $C$DW$238       .dwtag  DW_TAG_TI_branch
    3295                      .dwattr $C$DW$238, DW_AT_low_pc(0x00)
    3296                      .dwattr $C$DW$238, DW_AT_TI_return
    3297              
    3298 0000000c 0006          LRETR     ; [CPU_ALU] 
    3299                      ; return occurs ; [] 
    3300                      .dwattr $C$DW$235, DW_AT_TI_end_file("C:/ti/ccs1240/ccs/tools/compiler/ti-cgt-c2000_22.6.0.LTS/includ
    3301                      .dwattr $C$DW$235, DW_AT_TI_end_line(0x151)
    3302                      .dwattr $C$DW$235, DW_AT_TI_end_column(0x2d)
    3303                      .dwendentry
    3304                      .dwendtag $C$DW$235
TMS320C2000 Assembler PC v22.6.0 Fri Aug 30 17:52:41 2024

Copyright (c) 1996-2018 Texas Instruments Incorporated
clllc_main.asm                                                       PAGE   65

    3305              
    3306 00000000               .sect   ".text:__isfinite"
    3307                      .clink
    3308                      .global ||__isfinite||
    3309              
    3310              $C$DW$239       .dwtag  DW_TAG_subprogram
    3311                      .dwattr $C$DW$239, DW_AT_name("__isfinite")
    3312                      .dwattr $C$DW$239, DW_AT_low_pc(||__isfinite||)
    3313                      .dwattr $C$DW$239, DW_AT_high_pc(0x00)
    3314                      .dwattr $C$DW$239, DW_AT_linkage_name("__isfinite")
    3315                      .dwattr $C$DW$239, DW_AT_external
    3316                      .dwattr $C$DW$239, DW_AT_type(*$C$DW$T$10)
    3317                      .dwattr $C$DW$239, DW_AT_decl_file("C:/ti/ccs1240/ccs/tools/compiler/ti-cgt-c2000_22.6.0.LTS/include/
    3318                      .dwattr $C$DW$239, DW_AT_decl_line(0x14e)
    3319                      .dwattr $C$DW$239, DW_AT_decl_column(0x18)
    3320                      .dwattr $C$DW$239, DW_AT_TI_max_frame_size(-2)
    3321                      .dwpsn  file "C:/ti/ccs1240/ccs/tools/compiler/ti-cgt-c2000_22.6.0.LTS/include/_defs.h",line 335,colu
    3322              
    3323                      .dwfde $C$DW$CIE, ||__isfinite||
    3324              $C$DW$240       .dwtag  DW_TAG_formal_parameter
    3325                      .dwattr $C$DW$240, DW_AT_name("d")
    3326                      .dwattr $C$DW$240, DW_AT_type(*$C$DW$T$98)
    3327                      .dwattr $C$DW$240, DW_AT_location[DW_OP_reg12]
    3328              
    3329              
    3330              ;***************************************************************
    3331              ;* FNAME: __isfinite                    FR SIZE:   0           *
    3332              ;*                                                             *
    3333              ;* FUNCTION ENVIRONMENT                                        *
    3334              ;*                                                             *
    3335              ;* FUNCTION PROPERTIES                                         *
    3336              ;*                            0 Parameter,  0 Auto,  0 SOE     *
    3337              ;***************************************************************
    3338              
    3339              ||__isfinite||:
    3340              ;* AR4   assigned to d
    3341              $C$DW$241       .dwtag  DW_TAG_variable
    3342                      .dwattr $C$DW$241, DW_AT_name("d")
    3343                      .dwattr $C$DW$241, DW_AT_type(*$C$DW$T$99)
    3344                      .dwattr $C$DW$241, DW_AT_location[DW_OP_reg12]
    3345              
    3346                      .dwcfi  cfa_offset, -2
    3347                      .dwcfi  save_reg_to_mem, 26, 0
    3348                      .dwpsn  file "C:/ti/ccs1240/ccs/tools/compiler/ti-cgt-c2000_22.6.0.LTS/include/_defs.h",line 335,colu
    3349 00000000 A3C4          MOVL      P,*+XAR4[0]           ; [CPU_ALU] |335| 
    3350 00000001 06D4          MOVL      ACC,*+XAR4[2]         ; [CPU_ALU] |335| 
    3351 00000002 28AC          MOV       T,#48                 ; [CPU_ALU] |335| 
         00000003 0030 
    3352 00000004 565B          LSR64     ACC:P,T               ; [CPU_ALU] |335| 
    3353 00000005 18AB          AND       PL,#0x7ff0            ; [CPU_ALU] |335| 
         00000006 7FF0 
    3354 00000007 80AB          MOVZ      AR7,PL                ; [CPU_ALU] |335| 
    3355 00000008 FF20          MOV       ACC,#32752            ; [CPU_ALU] |335| 
         00000009 7FF0 
    3356 0000000a BE00          MOVB      XAR6,#0               ; [CPU_ALU] |335| 
TMS320C2000 Assembler PC v22.6.0 Fri Aug 30 17:52:41 2024

Copyright (c) 1996-2018 Texas Instruments Incorporated
clllc_main.asm                                                       PAGE   66

    3357 0000000b 0FA7          CMPL      ACC,XAR7              ; [CPU_ALU] |335| 
