TMS320C2000 Assembler PC v22.6.0 Mon Sep  2 11:55:45 2024

Copyright (c) 1996-2018 Texas Instruments Incorporated
clllc_hal.asm                                                        PAGE    1

       1              ;***************************************************************
       2              ;* TMS320C2000 G3 C/C++ Codegen                               PC v22.6.0.LTS *
       3              ;* Date/Time created: Mon Sep  2 11:55:45 2024                 *
       4              ;***************************************************************
       5                      .compiler_opts --abi=eabi --cla_support=cla2 --diag_wrap=off --float_support=fpu32 --hll_source=on --
       6                      .asg    XAR2, FP
       7              
       8              $C$DW$CU        .dwtag  DW_TAG_compile_unit
       9                      .dwattr $C$DW$CU, DW_AT_name("../clllc_hal.c")
      10                      .dwattr $C$DW$CU, DW_AT_producer("TI TMS320C2000 G3 C/C++ Codegen PC v22.6.0.LTS Copyright (c) 1996-2
      11                      .dwattr $C$DW$CU, DW_AT_TI_version(0x01)
      12                      .dwattr $C$DW$CU, DW_AT_comp_dir("C:\Users\ZXC\Documents\mcu project\ti-project\clllc_nonpowerSUITE_F
      13              
      14              $C$DW$1 .dwtag  DW_TAG_subprogram
      15                      .dwattr $C$DW$1, DW_AT_name("Device_init")
      16                      .dwattr $C$DW$1, DW_AT_linkage_name("Device_init")
      17                      .dwattr $C$DW$1, DW_AT_declaration
      18                      .dwattr $C$DW$1, DW_AT_external
      19                      .dwattr $C$DW$1, DW_AT_decl_file("C:/Users/ZXC/Documents/mcu project/ti-project/clllc_nonpowerSUITE_F
      20                      .dwattr $C$DW$1, DW_AT_decl_line(0x87)
      21                      .dwattr $C$DW$1, DW_AT_decl_column(0x0d)
      22                      .dwendtag $C$DW$1
      23              
      24              
      25              $C$DW$2 .dwtag  DW_TAG_subprogram
      26                      .dwattr $C$DW$2, DW_AT_name("Device_initGPIO")
      27                      .dwattr $C$DW$2, DW_AT_linkage_name("Device_initGPIO")
      28                      .dwattr $C$DW$2, DW_AT_declaration
      29                      .dwattr $C$DW$2, DW_AT_external
      30                      .dwattr $C$DW$2, DW_AT_decl_file("C:/Users/ZXC/Documents/mcu project/ti-project/clllc_nonpowerSUITE_F
      31                      .dwattr $C$DW$2, DW_AT_decl_line(0x89)
      32                      .dwattr $C$DW$2, DW_AT_decl_column(0x0d)
      33                      .dwendtag $C$DW$2
      34              
      35              
      36              $C$DW$3 .dwtag  DW_TAG_subprogram
      37                      .dwattr $C$DW$3, DW_AT_name("Interrupt_initModule")
      38                      .dwattr $C$DW$3, DW_AT_linkage_name("Interrupt_initModule")
      39                      .dwattr $C$DW$3, DW_AT_declaration
      40                      .dwattr $C$DW$3, DW_AT_external
      41                      .dwattr $C$DW$3, DW_AT_decl_file("C:\Users\ZXC\Documents\mcu project\ti-project\clllc_nonpowerSUITE_F
      42                      .dwattr $C$DW$3, DW_AT_decl_line(0x1a9)
      43                      .dwattr $C$DW$3, DW_AT_decl_column(0x01)
      44                      .dwendtag $C$DW$3
      45              
      46              
      47              $C$DW$4 .dwtag  DW_TAG_subprogram
      48                      .dwattr $C$DW$4, DW_AT_name("Interrupt_initVectorTable")
      49                      .dwattr $C$DW$4, DW_AT_linkage_name("Interrupt_initVectorTable")
      50                      .dwattr $C$DW$4, DW_AT_declaration
      51                      .dwattr $C$DW$4, DW_AT_external
      52                      .dwattr $C$DW$4, DW_AT_decl_file("C:\Users\ZXC\Documents\mcu project\ti-project\clllc_nonpowerSUITE_F
      53                      .dwattr $C$DW$4, DW_AT_decl_line(0x1b4)
      54                      .dwattr $C$DW$4, DW_AT_decl_column(0x01)
      55                      .dwendtag $C$DW$4
TMS320C2000 Assembler PC v22.6.0 Mon Sep  2 11:55:45 2024

Copyright (c) 1996-2018 Texas Instruments Incorporated
clllc_hal.asm                                                        PAGE    2

      56              
      57              
      58              $C$DW$5 .dwtag  DW_TAG_subprogram
      59                      .dwattr $C$DW$5, DW_AT_name("CPUTimer_setEmulationMode")
      60                      .dwattr $C$DW$5, DW_AT_linkage_name("CPUTimer_setEmulationMode")
      61                      .dwattr $C$DW$5, DW_AT_declaration
      62                      .dwattr $C$DW$5, DW_AT_external
      63                      .dwattr $C$DW$5, DW_AT_decl_file("C:/Users/ZXC/Documents/mcu project/ti-project/clllc_nonpowerSUITE_F
      64                      .dwattr $C$DW$5, DW_AT_decl_line(0x1e3)
      65                      .dwattr $C$DW$5, DW_AT_decl_column(0x0d)
      66              $C$DW$6 .dwtag  DW_TAG_formal_parameter
      67                      .dwattr $C$DW$6, DW_AT_type(*$C$DW$T$142)
      68              
      69              $C$DW$7 .dwtag  DW_TAG_formal_parameter
      70                      .dwattr $C$DW$7, DW_AT_type(*$C$DW$T$42)
      71              
      72                      .dwendtag $C$DW$5
      73              
      74              
      75              $C$DW$8 .dwtag  DW_TAG_subprogram
      76                      .dwattr $C$DW$8, DW_AT_name("ADC_setVREF")
      77                      .dwattr $C$DW$8, DW_AT_linkage_name("ADC_setVREF")
      78                      .dwattr $C$DW$8, DW_AT_declaration
      79                      .dwattr $C$DW$8, DW_AT_external
      80                      .dwattr $C$DW$8, DW_AT_decl_file("C:/Users/ZXC/Documents/mcu project/ti-project/clllc_nonpowerSUITE_F
      81                      .dwattr $C$DW$8, DW_AT_decl_line(0x7e9)
      82                      .dwattr $C$DW$8, DW_AT_decl_column(0x01)
      83              $C$DW$9 .dwtag  DW_TAG_formal_parameter
      84                      .dwattr $C$DW$9, DW_AT_type(*$C$DW$T$142)
      85              
      86              $C$DW$10        .dwtag  DW_TAG_formal_parameter
      87                      .dwattr $C$DW$10, DW_AT_type(*$C$DW$T$28)
      88              
      89              $C$DW$11        .dwtag  DW_TAG_formal_parameter
      90                      .dwattr $C$DW$11, DW_AT_type(*$C$DW$T$30)
      91              
      92                      .dwendtag $C$DW$8
      93              
      94              
      95              $C$DW$12        .dwtag  DW_TAG_subprogram
      96                      .dwattr $C$DW$12, DW_AT_name("SysCtl_delay")
      97                      .dwattr $C$DW$12, DW_AT_linkage_name("SysCtl_delay")
      98                      .dwattr $C$DW$12, DW_AT_declaration
      99                      .dwattr $C$DW$12, DW_AT_external
     100                      .dwattr $C$DW$12, DW_AT_decl_file("C:\Users\ZXC\Documents\mcu project\ti-project\clllc_nonpowerSUITE_
     101                      .dwattr $C$DW$12, DW_AT_decl_line(0xaf6)
     102                      .dwattr $C$DW$12, DW_AT_decl_column(0x01)
     103              $C$DW$13        .dwtag  DW_TAG_formal_parameter
     104                      .dwattr $C$DW$13, DW_AT_type(*$C$DW$T$142)
     105              
     106                      .dwendtag $C$DW$12
     107              
     108              
     109              $C$DW$14        .dwtag  DW_TAG_subprogram
     110                      .dwattr $C$DW$14, DW_AT_name("XBAR_setEPWMMuxConfig")
TMS320C2000 Assembler PC v22.6.0 Mon Sep  2 11:55:45 2024

Copyright (c) 1996-2018 Texas Instruments Incorporated
clllc_hal.asm                                                        PAGE    3

     111                      .dwattr $C$DW$14, DW_AT_linkage_name("XBAR_setEPWMMuxConfig")
     112                      .dwattr $C$DW$14, DW_AT_declaration
     113                      .dwattr $C$DW$14, DW_AT_external
     114                      .dwattr $C$DW$14, DW_AT_decl_file("C:\Users\ZXC\Documents\mcu project\ti-project\clllc_nonpowerSUITE_
     115                      .dwattr $C$DW$14, DW_AT_decl_line(0x4be)
     116                      .dwattr $C$DW$14, DW_AT_decl_column(0x01)
     117              $C$DW$15        .dwtag  DW_TAG_formal_parameter
     118                      .dwattr $C$DW$15, DW_AT_type(*$C$DW$T$118)
     119              
     120              $C$DW$16        .dwtag  DW_TAG_formal_parameter
     121                      .dwattr $C$DW$16, DW_AT_type(*$C$DW$T$122)
     122              
     123                      .dwendtag $C$DW$14
     124              
     125              
     126              $C$DW$17        .dwtag  DW_TAG_subprogram
     127                      .dwattr $C$DW$17, DW_AT_name("XBAR_clearInputFlag")
     128                      .dwattr $C$DW$17, DW_AT_linkage_name("XBAR_clearInputFlag")
     129                      .dwattr $C$DW$17, DW_AT_declaration
     130                      .dwattr $C$DW$17, DW_AT_external
     131                      .dwattr $C$DW$17, DW_AT_decl_file("C:\Users\ZXC\Documents\mcu project\ti-project\clllc_nonpowerSUITE_
     132                      .dwattr $C$DW$17, DW_AT_decl_line(0x4db)
     133                      .dwattr $C$DW$17, DW_AT_decl_column(0x01)
     134              $C$DW$18        .dwtag  DW_TAG_formal_parameter
     135                      .dwattr $C$DW$18, DW_AT_type(*$C$DW$T$124)
     136              
     137                      .dwendtag $C$DW$17
     138              
     139              
     140              $C$DW$19        .dwtag  DW_TAG_subprogram
     141                      .dwattr $C$DW$19, DW_AT_name("CMPSS_configLatchOnPWMSYNC")
     142                      .dwattr $C$DW$19, DW_AT_linkage_name("CMPSS_configLatchOnPWMSYNC")
     143                      .dwattr $C$DW$19, DW_AT_declaration
     144                      .dwattr $C$DW$19, DW_AT_external
     145                      .dwattr $C$DW$19, DW_AT_decl_file("C:/Users/ZXC/Documents/mcu project/ti-project/clllc_nonpowerSUITE_
     146                      .dwattr $C$DW$19, DW_AT_decl_line(0x549)
     147                      .dwattr $C$DW$19, DW_AT_decl_column(0x01)
     148              $C$DW$20        .dwtag  DW_TAG_formal_parameter
     149                      .dwattr $C$DW$20, DW_AT_type(*$C$DW$T$142)
     150              
     151              $C$DW$21        .dwtag  DW_TAG_formal_parameter
     152                      .dwattr $C$DW$21, DW_AT_type(*$C$DW$T$169)
     153              
     154              $C$DW$22        .dwtag  DW_TAG_formal_parameter
     155                      .dwattr $C$DW$22, DW_AT_type(*$C$DW$T$169)
     156              
     157                      .dwendtag $C$DW$19
     158              
     159              
     160              $C$DW$23        .dwtag  DW_TAG_subprogram
     161                      .dwattr $C$DW$23, DW_AT_name("CMPSS_configFilterHigh")
     162                      .dwattr $C$DW$23, DW_AT_linkage_name("CMPSS_configFilterHigh")
     163                      .dwattr $C$DW$23, DW_AT_declaration
     164                      .dwattr $C$DW$23, DW_AT_external
     165                      .dwattr $C$DW$23, DW_AT_decl_file("C:/Users/ZXC/Documents/mcu project/ti-project/clllc_nonpowerSUITE_
TMS320C2000 Assembler PC v22.6.0 Mon Sep  2 11:55:45 2024

Copyright (c) 1996-2018 Texas Instruments Incorporated
clllc_hal.asm                                                        PAGE    4

     166                      .dwattr $C$DW$23, DW_AT_decl_line(0x503)
     167                      .dwattr $C$DW$23, DW_AT_decl_column(0x01)
     168              $C$DW$24        .dwtag  DW_TAG_formal_parameter
     169                      .dwattr $C$DW$24, DW_AT_type(*$C$DW$T$142)
     170              
     171              $C$DW$25        .dwtag  DW_TAG_formal_parameter
     172                      .dwattr $C$DW$25, DW_AT_type(*$C$DW$T$163)
     173              
     174              $C$DW$26        .dwtag  DW_TAG_formal_parameter
     175                      .dwattr $C$DW$26, DW_AT_type(*$C$DW$T$163)
     176              
     177              $C$DW$27        .dwtag  DW_TAG_formal_parameter
     178                      .dwattr $C$DW$27, DW_AT_type(*$C$DW$T$163)
     179              
     180                      .dwendtag $C$DW$23
     181              
     182              
     183              $C$DW$28        .dwtag  DW_TAG_subprogram
     184                      .dwattr $C$DW$28, DW_AT_name("CMPSS_configFilterLow")
     185                      .dwattr $C$DW$28, DW_AT_linkage_name("CMPSS_configFilterLow")
     186                      .dwattr $C$DW$28, DW_AT_declaration
     187                      .dwattr $C$DW$28, DW_AT_external
     188                      .dwattr $C$DW$28, DW_AT_decl_file("C:/Users/ZXC/Documents/mcu project/ti-project/clllc_nonpowerSUITE_
     189                      .dwattr $C$DW$28, DW_AT_decl_line(0x533)
     190                      .dwattr $C$DW$28, DW_AT_decl_column(0x01)
     191              $C$DW$29        .dwtag  DW_TAG_formal_parameter
     192                      .dwattr $C$DW$29, DW_AT_type(*$C$DW$T$142)
     193              
     194              $C$DW$30        .dwtag  DW_TAG_formal_parameter
     195                      .dwattr $C$DW$30, DW_AT_type(*$C$DW$T$163)
     196              
     197              $C$DW$31        .dwtag  DW_TAG_formal_parameter
     198                      .dwattr $C$DW$31, DW_AT_type(*$C$DW$T$163)
     199              
     200              $C$DW$32        .dwtag  DW_TAG_formal_parameter
     201                      .dwattr $C$DW$32, DW_AT_type(*$C$DW$T$163)
     202              
     203                      .dwendtag $C$DW$28
     204              
     205              
     206              $C$DW$33        .dwtag  DW_TAG_subprogram
     207                      .dwattr $C$DW$33, DW_AT_name("XBAR_setOutputMuxConfig")
     208                      .dwattr $C$DW$33, DW_AT_linkage_name("XBAR_setOutputMuxConfig")
     209                      .dwattr $C$DW$33, DW_AT_declaration
     210                      .dwattr $C$DW$33, DW_AT_external
     211                      .dwattr $C$DW$33, DW_AT_decl_file("C:\Users\ZXC\Documents\mcu project\ti-project\clllc_nonpowerSUITE_
     212                      .dwattr $C$DW$33, DW_AT_decl_line(0x49d)
     213                      .dwattr $C$DW$33, DW_AT_decl_column(0x01)
     214              $C$DW$34        .dwtag  DW_TAG_formal_parameter
     215                      .dwattr $C$DW$34, DW_AT_type(*$C$DW$T$116)
     216              
     217              $C$DW$35        .dwtag  DW_TAG_formal_parameter
     218                      .dwattr $C$DW$35, DW_AT_type(*$C$DW$T$120)
     219              
     220                      .dwendtag $C$DW$33
TMS320C2000 Assembler PC v22.6.0 Mon Sep  2 11:55:45 2024

Copyright (c) 1996-2018 Texas Instruments Incorporated
clllc_hal.asm                                                        PAGE    5

     221              
     222              
     223              $C$DW$36        .dwtag  DW_TAG_subprogram
     224                      .dwattr $C$DW$36, DW_AT_name("GPIO_setDirectionMode")
     225                      .dwattr $C$DW$36, DW_AT_linkage_name("GPIO_setDirectionMode")
     226                      .dwattr $C$DW$36, DW_AT_declaration
     227                      .dwattr $C$DW$36, DW_AT_external
     228                      .dwattr $C$DW$36, DW_AT_decl_file("C:/Users/ZXC/Documents/mcu project/ti-project/clllc_nonpowerSUITE_
     229                      .dwattr $C$DW$36, DW_AT_decl_line(0x31f)
     230                      .dwattr $C$DW$36, DW_AT_decl_column(0x01)
     231              $C$DW$37        .dwtag  DW_TAG_formal_parameter
     232                      .dwattr $C$DW$37, DW_AT_type(*$C$DW$T$142)
     233              
     234              $C$DW$38        .dwtag  DW_TAG_formal_parameter
     235                      .dwattr $C$DW$38, DW_AT_type(*$C$DW$T$126)
     236              
     237                      .dwendtag $C$DW$36
     238              
     239              
     240              $C$DW$39        .dwtag  DW_TAG_subprogram
     241                      .dwattr $C$DW$39, DW_AT_name("GPIO_setQualificationMode")
     242                      .dwattr $C$DW$39, DW_AT_linkage_name("GPIO_setQualificationMode")
     243                      .dwattr $C$DW$39, DW_AT_declaration
     244                      .dwattr $C$DW$39, DW_AT_external
     245                      .dwattr $C$DW$39, DW_AT_decl_file("C:/Users/ZXC/Documents/mcu project/ti-project/clllc_nonpowerSUITE_
     246                      .dwattr $C$DW$39, DW_AT_decl_line(0x38f)
     247                      .dwattr $C$DW$39, DW_AT_decl_column(0x01)
     248              $C$DW$40        .dwtag  DW_TAG_formal_parameter
     249                      .dwattr $C$DW$40, DW_AT_type(*$C$DW$T$142)
     250              
     251              $C$DW$41        .dwtag  DW_TAG_formal_parameter
     252                      .dwattr $C$DW$41, DW_AT_type(*$C$DW$T$128)
     253              
     254                      .dwendtag $C$DW$39
     255              
     256              
     257              $C$DW$42        .dwtag  DW_TAG_subprogram
     258                      .dwattr $C$DW$42, DW_AT_name("GPIO_setPinConfig")
     259                      .dwattr $C$DW$42, DW_AT_linkage_name("GPIO_setPinConfig")
     260                      .dwattr $C$DW$42, DW_AT_declaration
     261                      .dwattr $C$DW$42, DW_AT_external
     262                      .dwattr $C$DW$42, DW_AT_decl_file("C:/Users/ZXC/Documents/mcu project/ti-project/clllc_nonpowerSUITE_
     263                      .dwattr $C$DW$42, DW_AT_decl_line(0x3fe)
     264                      .dwattr $C$DW$42, DW_AT_decl_column(0x01)
     265              $C$DW$43        .dwtag  DW_TAG_formal_parameter
     266                      .dwattr $C$DW$43, DW_AT_type(*$C$DW$T$142)
     267              
     268                      .dwendtag $C$DW$42
     269              
     270              
     271              $C$DW$44        .dwtag  DW_TAG_subprogram
     272                      .dwattr $C$DW$44, DW_AT_name("SCI_setConfig")
     273                      .dwattr $C$DW$44, DW_AT_linkage_name("SCI_setConfig")
     274                      .dwattr $C$DW$44, DW_AT_declaration
     275                      .dwattr $C$DW$44, DW_AT_external
TMS320C2000 Assembler PC v22.6.0 Mon Sep  2 11:55:45 2024

Copyright (c) 1996-2018 Texas Instruments Incorporated
clllc_hal.asm                                                        PAGE    6

     276                      .dwattr $C$DW$44, DW_AT_decl_file("C:/Users/ZXC/Documents/mcu project/ti-project/clllc_nonpowerSUITE_
     277                      .dwattr $C$DW$44, DW_AT_decl_line(0x5ba)
     278                      .dwattr $C$DW$44, DW_AT_decl_column(0x01)
     279              $C$DW$45        .dwtag  DW_TAG_formal_parameter
     280                      .dwattr $C$DW$45, DW_AT_type(*$C$DW$T$142)
     281              
     282              $C$DW$46        .dwtag  DW_TAG_formal_parameter
     283                      .dwattr $C$DW$46, DW_AT_type(*$C$DW$T$142)
     284              
     285              $C$DW$47        .dwtag  DW_TAG_formal_parameter
     286                      .dwattr $C$DW$47, DW_AT_type(*$C$DW$T$142)
     287              
     288              $C$DW$48        .dwtag  DW_TAG_formal_parameter
     289                      .dwattr $C$DW$48, DW_AT_type(*$C$DW$T$142)
     290              
     291                      .dwendtag $C$DW$44
     292              
     293              
     294              $C$DW$49        .dwtag  DW_TAG_subprogram
     295                      .dwattr $C$DW$49, DW_AT_name("SCI_clearInterruptStatus")
     296                      .dwattr $C$DW$49, DW_AT_linkage_name("SCI_clearInterruptStatus")
     297                      .dwattr $C$DW$49, DW_AT_declaration
     298                      .dwattr $C$DW$49, DW_AT_external
     299                      .dwattr $C$DW$49, DW_AT_decl_file("C:/Users/ZXC/Documents/mcu project/ti-project/clllc_nonpowerSUITE_
     300                      .dwattr $C$DW$49, DW_AT_decl_line(0x63a)
     301                      .dwattr $C$DW$49, DW_AT_decl_column(0x01)
     302              $C$DW$50        .dwtag  DW_TAG_formal_parameter
     303                      .dwattr $C$DW$50, DW_AT_type(*$C$DW$T$142)
     304              
     305              $C$DW$51        .dwtag  DW_TAG_formal_parameter
     306                      .dwattr $C$DW$51, DW_AT_type(*$C$DW$T$142)
     307              
     308                      .dwendtag $C$DW$49
     309              
     310              
     311              $C$DW$52        .dwtag  DW_TAG_subprogram
     312                      .dwattr $C$DW$52, DW_AT_name("SCI_enableInterrupt")
     313                      .dwattr $C$DW$52, DW_AT_linkage_name("SCI_enableInterrupt")
     314                      .dwattr $C$DW$52, DW_AT_declaration
     315                      .dwattr $C$DW$52, DW_AT_external
     316                      .dwattr $C$DW$52, DW_AT_decl_file("C:/Users/ZXC/Documents/mcu project/ti-project/clllc_nonpowerSUITE_
     317                      .dwattr $C$DW$52, DW_AT_decl_line(0x605)
     318                      .dwattr $C$DW$52, DW_AT_decl_column(0x01)
     319              $C$DW$53        .dwtag  DW_TAG_formal_parameter
     320                      .dwattr $C$DW$53, DW_AT_type(*$C$DW$T$142)
     321              
     322              $C$DW$54        .dwtag  DW_TAG_formal_parameter
     323                      .dwattr $C$DW$54, DW_AT_type(*$C$DW$T$142)
     324              
     325                      .dwendtag $C$DW$52
     326              
     327              
     328              $C$DW$55        .dwtag  DW_TAG_subprogram
     329                      .dwattr $C$DW$55, DW_AT_name("GPIO_setPadConfig")
     330                      .dwattr $C$DW$55, DW_AT_linkage_name("GPIO_setPadConfig")
TMS320C2000 Assembler PC v22.6.0 Mon Sep  2 11:55:45 2024

Copyright (c) 1996-2018 Texas Instruments Incorporated
clllc_hal.asm                                                        PAGE    7

     331                      .dwattr $C$DW$55, DW_AT_declaration
     332                      .dwattr $C$DW$55, DW_AT_external
     333                      .dwattr $C$DW$55, DW_AT_decl_file("C:/Users/ZXC/Documents/mcu project/ti-project/clllc_nonpowerSUITE_
     334                      .dwattr $C$DW$55, DW_AT_decl_line(0x368)
     335                      .dwattr $C$DW$55, DW_AT_decl_column(0x01)
     336              $C$DW$56        .dwtag  DW_TAG_formal_parameter
     337                      .dwattr $C$DW$56, DW_AT_type(*$C$DW$T$142)
     338              
     339              $C$DW$57        .dwtag  DW_TAG_formal_parameter
     340                      .dwattr $C$DW$57, DW_AT_type(*$C$DW$T$142)
     341              
     342                      .dwendtag $C$DW$55
     343              
     344                      .global ||MEP_ScaleFactor||
     345 00000000               .bss    ||MEP_ScaleFactor||,1,1,0
     346              $C$DW$58        .dwtag  DW_TAG_variable
     347                      .dwattr $C$DW$58, DW_AT_name("MEP_ScaleFactor")
     348                      .dwattr $C$DW$58, DW_AT_linkage_name("MEP_ScaleFactor")
     349                      .dwattr $C$DW$58, DW_AT_location[DW_OP_addr ||MEP_ScaleFactor||]
     350                      .dwattr $C$DW$58, DW_AT_type(*$C$DW$T$233)
     351                      .dwattr $C$DW$58, DW_AT_external
     352                      .dwattr $C$DW$58, DW_AT_decl_file("../clllc_hal.c")
     353                      .dwattr $C$DW$58, DW_AT_decl_line(0x21)
     354                      .dwattr $C$DW$58, DW_AT_decl_column(0x09)
     355              
     356 00000000               .data
     357                      .align  1
     358                      .elfsym ||ledCnt1$1||,SYM_SIZE(1),SYM_BLOCKED(1)
     359 00000000       ||ledCnt1$1||:
     360 00000000 0000          .bits           0,16
     361                                      ; ledCnt1$1 @ 0
     362              
     363              
     364              $C$DW$59        .dwtag  DW_TAG_subprogram
     365                      .dwattr $C$DW$59, DW_AT_name("SFO")
     366                      .dwattr $C$DW$59, DW_AT_linkage_name("SFO")
     367                      .dwattr $C$DW$59, DW_AT_type(*$C$DW$T$10)
     368                      .dwattr $C$DW$59, DW_AT_declaration
     369                      .dwattr $C$DW$59, DW_AT_external
     370                      .dwattr $C$DW$59, DW_AT_decl_file("C:/Users/ZXC/Documents/mcu project/ti-project/clllc_nonpowerSUITE_
     371                      .dwattr $C$DW$59, DW_AT_decl_line(0x4b)
     372                      .dwattr $C$DW$59, DW_AT_decl_column(0x05)
     373                      .dwendtag $C$DW$59
     374              
     375              
     376              $C$DW$60        .dwtag  DW_TAG_subprogram
     377                      .dwattr $C$DW$60, DW_AT_name("__eallow")
     378                      .dwattr $C$DW$60, DW_AT_linkage_name("__eallow")
     379                      .dwattr $C$DW$60, DW_AT_declaration
     380                      .dwattr $C$DW$60, DW_AT_external
     381                      .dwendtag $C$DW$60
     382              
     383              
     384              $C$DW$61        .dwtag  DW_TAG_subprogram
     385                      .dwattr $C$DW$61, DW_AT_name("__edis")
TMS320C2000 Assembler PC v22.6.0 Mon Sep  2 11:55:45 2024

Copyright (c) 1996-2018 Texas Instruments Incorporated
clllc_hal.asm                                                        PAGE    8

     386                      .dwattr $C$DW$61, DW_AT_linkage_name("__edis")
     387                      .dwattr $C$DW$61, DW_AT_declaration
     388                      .dwattr $C$DW$61, DW_AT_external
     389                      .dwendtag $C$DW$61
     390              
     391                      .global ||ePWM||
     392 00000000               .sect   ".data:ePWM", RW
     393                      .align  2
     394                      .elfsym ||ePWM||,SYM_SIZE(18)
     395 00000000       ||ePWM||:
     396 00000000 0000          .bits           0,32
         00000001 0000 
     397                                      ; ePWM[0] @ 0
     398 00000002 4000          .bits           0x4000,32
         00000003 0000 
     399                                      ; ePWM[1] @ 32
     400 00000004 4100          .bits           0x4100,32
         00000005 0000 
     401                                      ; ePWM[2] @ 64
     402 00000006 4200          .bits           0x4200,32
         00000007 0000 
     403                                      ; ePWM[3] @ 96
     404 00000008 4300          .bits           0x4300,32
         00000009 0000 
     405                                      ; ePWM[4] @ 128
     406 0000000a 4400          .bits           0x4400,32
         0000000b 0000 
     407                                      ; ePWM[5] @ 160
     408 0000000c 4500          .bits           0x4500,32
         0000000d 0000 
     409                                      ; ePWM[6] @ 192
     410 0000000e 4600          .bits           0x4600,32
         0000000f 0000 
     411                                      ; ePWM[7] @ 224
     412 00000010 4700          .bits           0x4700,32
         00000011 0000 
     413                                      ; ePWM[8] @ 256
     414              
     415              $C$DW$62        .dwtag  DW_TAG_variable
     416                      .dwattr $C$DW$62, DW_AT_name("ePWM")
     417                      .dwattr $C$DW$62, DW_AT_linkage_name("ePWM")
     418                      .dwattr $C$DW$62, DW_AT_location[DW_OP_addr ||ePWM||]
     419                      .dwattr $C$DW$62, DW_AT_type(*$C$DW$T$245)
     420                      .dwattr $C$DW$62, DW_AT_external
     421                      .dwattr $C$DW$62, DW_AT_decl_file("../clllc_hal.c")
     422                      .dwattr $C$DW$62, DW_AT_decl_line(0x23)
     423                      .dwattr $C$DW$62, DW_AT_decl_column(0x13)
     424              
     425                      .sblock ".bss"
     426                      .sblock ".data"
     427              ;       C:\ti\ccs1240\ccs\tools\compiler\ti-cgt-c2000_22.6.0.LTS\bin\opt2000.exe C:\\Users\\ZXC\\AppData\\Loc
     428              ;       C:\ti\ccs1240\ccs\tools\compiler\ti-cgt-c2000_22.6.0.LTS\bin\acia2000.exe -@C:\\Users\\ZXC\\AppData\\
     429 00000000               .sect   ".text"
     430                      .clink
     431                      .global ||CLLLC_HAL_toggleLED1||
TMS320C2000 Assembler PC v22.6.0 Mon Sep  2 11:55:45 2024

Copyright (c) 1996-2018 Texas Instruments Incorporated
clllc_hal.asm                                                        PAGE    9

     432              
     433              $C$DW$63        .dwtag  DW_TAG_subprogram
     434                      .dwattr $C$DW$63, DW_AT_name("CLLLC_HAL_toggleLED1")
     435                      .dwattr $C$DW$63, DW_AT_low_pc(||CLLLC_HAL_toggleLED1||)
     436                      .dwattr $C$DW$63, DW_AT_high_pc(0x00)
     437                      .dwattr $C$DW$63, DW_AT_linkage_name("CLLLC_HAL_toggleLED1")
     438                      .dwattr $C$DW$63, DW_AT_external
     439                      .dwattr $C$DW$63, DW_AT_decl_file("../clllc_hal.c")
     440                      .dwattr $C$DW$63, DW_AT_decl_line(0x4ae)
     441                      .dwattr $C$DW$63, DW_AT_decl_column(0x06)
     442                      .dwattr $C$DW$63, DW_AT_TI_max_frame_size(-2)
     443                      .dwpsn  file "../clllc_hal.c",line 1199,column 1,is_stmt,address ||CLLLC_HAL_toggleLED1||,isa 0
     444              
     445                      .dwfde $C$DW$CIE, ||CLLLC_HAL_toggleLED1||
     446              $C$DW$64        .dwtag  DW_TAG_variable
     447                      .dwattr $C$DW$64, DW_AT_name("ledCnt1")
     448                      .dwattr $C$DW$64, DW_AT_linkage_name("ledCnt1$1")
     449                      .dwattr $C$DW$64, DW_AT_type(*$C$DW$T$163)
     450                      .dwattr $C$DW$64, DW_AT_location[DW_OP_addr ||ledCnt1$1||]
     451              
     452              
     453              ;***************************************************************
     454              ;* FNAME: CLLLC_HAL_toggleLED1          FR SIZE:   0           *
     455              ;*                                                             *
     456              ;* FUNCTION ENVIRONMENT                                        *
     457              ;*                                                             *
     458              ;* FUNCTION PROPERTIES                                         *
     459              ;*                            0 Parameter,  0 Auto,  0 SOE     *
     460              ;***************************************************************
     461              
     462 00000000       ||CLLLC_HAL_toggleLED1||:
     463                      .dwcfi  cfa_offset, -2
     464                      .dwcfi  save_reg_to_mem, 26, 0
     465 00000000 761F!         MOVW      DP,#||ledCnt1$1||     ; [CPU_ARAU] 
         00000001 0000 
     466                      .dwpsn  file "../clllc_hal.c",line 1202,column 5,is_stmt,isa 0
     467 00000002 9200!         MOV       AL,@||ledCnt1$1||     ; [CPU_ALU] |1202| 
     468 00000003 6007          B         ||$C$L1||,NEQ         ; [CPU_ALU] |1202| 
     469                      ; branchcc occurs ; [] |1202| 
     470                      .dwcfi  remember_state
     471                      .dwpsn  file "C:/Users/ZXC/Documents/mcu project/ti-project/clllc_nonpowerSUITE_F28004x/device/driver
     472 00000004 0204          MOVB      ACC,#4                ; [CPU_ALU] |498| 
     473                      .dwpsn  file "../clllc_hal.c",line 1205,column 9,is_stmt,isa 0
     474 00000005 56BF!         MOVB      @||ledCnt1$1||,#5,UNC ; [CPU_ALU] |1205| 
         00000006 0500 
     475                      .dwpsn  file "C:/Users/ZXC/Documents/mcu project/ti-project/clllc_nonpowerSUITE_F28004x/device/driver
     476 00000007 BDA9          MOV32     *(0:0x7f0e),ACC       ; [CPU_FPU] |498| 
         00000008 7F0E 
     477              $C$DW$65        .dwtag  DW_TAG_TI_branch
     478                      .dwattr $C$DW$65, DW_AT_low_pc(0x00)
     479                      .dwattr $C$DW$65, DW_AT_TI_return
     480              
     481 00000009 0006          LRETR     ; [CPU_ALU] 
     482                      ; return occurs ; [] 
     483                      .dwcfi  restore_state
TMS320C2000 Assembler PC v22.6.0 Mon Sep  2 11:55:45 2024

Copyright (c) 1996-2018 Texas Instruments Incorporated
clllc_hal.asm                                                        PAGE   10

     484 0000000a       ||$C$L1||:    
     485                      .dwpsn  file "../clllc_hal.c",line 1209,column 9,is_stmt,isa 0
     486 0000000a 0B00!         DEC       @||ledCnt1$1||        ; [CPU_ALU] |1209| 
     487              $C$DW$66        .dwtag  DW_TAG_TI_branch
     488                      .dwattr $C$DW$66, DW_AT_low_pc(0x00)
     489                      .dwattr $C$DW$66, DW_AT_TI_return
     490              
     491 0000000b 0006          LRETR     ; [CPU_ALU] 
     492                      ; return occurs ; [] 
     493                      .dwattr $C$DW$63, DW_AT_TI_end_file("../clllc_hal.c")
     494                      .dwattr $C$DW$63, DW_AT_TI_end_line(0x4bc)
     495                      .dwattr $C$DW$63, DW_AT_TI_end_column(0x01)
     496                      .dwendentry
     497                      .dwendtag $C$DW$63
     498              
     499 0000000c               .sect   ".text"
     500                      .clink
     501                      .global ||CLLLC_HAL_setupTrigForADC||
     502              
     503              $C$DW$67        .dwtag  DW_TAG_subprogram
     504                      .dwattr $C$DW$67, DW_AT_name("CLLLC_HAL_setupTrigForADC")
     505                      .dwattr $C$DW$67, DW_AT_low_pc(||CLLLC_HAL_setupTrigForADC||)
     506                      .dwattr $C$DW$67, DW_AT_high_pc(0x00)
     507                      .dwattr $C$DW$67, DW_AT_linkage_name("CLLLC_HAL_setupTrigForADC")
     508                      .dwattr $C$DW$67, DW_AT_external
     509                      .dwattr $C$DW$67, DW_AT_decl_file("../clllc_hal.c")
     510                      .dwattr $C$DW$67, DW_AT_decl_line(0x472)
     511                      .dwattr $C$DW$67, DW_AT_decl_column(0x06)
     512                      .dwattr $C$DW$67, DW_AT_TI_max_frame_size(-2)
     513                      .dwpsn  file "../clllc_hal.c",line 1139,column 1,is_stmt,address ||CLLLC_HAL_setupTrigForADC||,isa 0
     514              
     515                      .dwfde $C$DW$CIE, ||CLLLC_HAL_setupTrigForADC||
     516              
     517              ;***************************************************************
     518              ;* FNAME: CLLLC_HAL_setupTrigForADC     FR SIZE:   0           *
     519              ;*                                                             *
     520              ;* FUNCTION ENVIRONMENT                                        *
     521              ;*                                                             *
     522              ;* FUNCTION PROPERTIES                                         *
     523              ;*                            0 Parameter,  0 Auto,  0 SOE     *
     524              ;***************************************************************
     525              
     526 0000000c       ||CLLLC_HAL_setupTrigForADC||:
     527                      .dwcfi  cfa_offset, -2
     528                      .dwcfi  save_reg_to_mem, 26, 0
     529                      .dwpsn  file "C:/Users/ZXC/Documents/mcu project/ti-project/clllc_nonpowerSUITE_F28004x/device/driver
     530 0000000c F5A9          MOV       AL,*(0:0x44a4)        ; [CPU_ALU] |5176| 
         0000000d 44A4 
     531 0000000e 1AA9          OR        AL,#0x0700            ; [CPU_ALU] |5176| 
         0000000f 0700 
     532                      .dwpsn  file "C:/Users/ZXC/Documents/mcu project/ti-project/clllc_nonpowerSUITE_F28004x/device/driver
     533 00000010 9B1E          MOVB      AH,#30                ; [CPU_FPU] |2445| 
     534                      .dwpsn  file "C:/Users/ZXC/Documents/mcu project/ti-project/clllc_nonpowerSUITE_F28004x/device/driver
     535 00000011 F4A9          MOV       *(0:0x44a4),AL        ; [CPU_ALU] |5176| 
         00000012 44A4 
TMS320C2000 Assembler PC v22.6.0 Mon Sep  2 11:55:45 2024

Copyright (c) 1996-2018 Texas Instruments Incorporated
clllc_hal.asm                                                        PAGE   11

     536                      .dwpsn  file "C:/Users/ZXC/Documents/mcu project/ti-project/clllc_nonpowerSUITE_F28004x/device/driver
     537 00000013 F5A9          MOV       AL,*(0:0x44a4)        ; [CPU_ALU] |5191| 
         00000014 44A4 
     538 00000015 18A9          AND       AL,#0xffef            ; [CPU_ALU] |5191| 
         00000016 FFEF 
     539 00000017 F4A9          MOV       *(0:0x44a4),AL        ; [CPU_ALU] |5191| 
         00000018 44A4 
     540                      .dwpsn  file "C:/Users/ZXC/Documents/mcu project/ti-project/clllc_nonpowerSUITE_F28004x/device/driver
     541 00000019 F4A8          MOV       *(0:0x446d),AH        ; [CPU_ALU] |2445| 
         0000001a 446D 
     542                      .dwpsn  file "C:/Users/ZXC/Documents/mcu project/ti-project/clllc_nonpowerSUITE_F28004x/device/driver
     543 0000001b F5A9          MOV       AL,*(0:0x44a6)        ; [CPU_ALU] |5288| 
         0000001c 44A6 
     544 0000001d 5020          ORB       AL,#0x20              ; [CPU_ALU] |5288| 
     545 0000001e F4A9          MOV       *(0:0x44a6),AL        ; [CPU_ALU] |5288| 
         0000001f 44A6 
     546                      .dwpsn  file "C:/Users/ZXC/Documents/mcu project/ti-project/clllc_nonpowerSUITE_F28004x/device/driver
     547 00000020 F5A9          MOV       AL,*(0:0x44b0)        ; [CPU_ALU] |5294| 
         00000021 44B0 
     548 00000022 CCA9          AND       AL,AL,#0xfff0         ; [CPU_ALU] |5294| 
         00000023 FFF0 
     549 00000024 5001          ORB       AL,#0x01              ; [CPU_ALU] |5294| 
     550 00000025 F4A9          MOV       *(0:0x44b0),AL        ; [CPU_ALU] |5294| 
         00000026 44B0 
     551                      .dwpsn  file "C:/Users/ZXC/Documents/mcu project/ti-project/clllc_nonpowerSUITE_F28004x/device/driver
     552 00000027 F5A9          MOV       AL,*(0:0x44a4)        ; [CPU_ALU] |5072| 
         00000028 44A4 
     553 00000029 1AA9          OR        AL,#0x0800            ; [CPU_ALU] |5072| 
         0000002a 0800 
     554 0000002b F4A9          MOV       *(0:0x44a4),AL        ; [CPU_ALU] |5072| 
         0000002c 44A4 
     555                      .dwpsn  file "C:/Users/ZXC/Documents/mcu project/ti-project/clllc_nonpowerSUITE_F28004x/device/driver
     556 0000002d F5A9          MOV       AL,*(0:0x40a4)        ; [CPU_ALU] |5176| 
         0000002e 40A4 
     557 0000002f 18A9          AND       AL,#0xfeff            ; [CPU_ALU] |5176| 
         00000030 FEFF 
     558 00000031 1AA9          OR        AL,#0x0600            ; [CPU_ALU] |5176| 
         00000032 0600 
     559 00000033 F4A9          MOV       *(0:0x40a4),AL        ; [CPU_ALU] |5176| 
         00000034 40A4 
     560                      .dwpsn  file "C:/Users/ZXC/Documents/mcu project/ti-project/clllc_nonpowerSUITE_F28004x/device/driver
     561 00000035 F5A9          MOV       AL,*(0:0x40a4)        ; [CPU_ALU] |5201| 
         00000036 40A4 
     562 00000037 5010          ORB       AL,#0x10              ; [CPU_ALU] |5201| 
     563 00000038 F4A9          MOV       *(0:0x40a4),AL        ; [CPU_ALU] |5201| 
         00000039 40A4 
     564                      .dwpsn  file "C:/Users/ZXC/Documents/mcu project/ti-project/clllc_nonpowerSUITE_F28004x/device/driver
     565 0000003a F5A9          MOV       AL,*(0:0x40a6)        ; [CPU_ALU] |5288| 
         0000003b 40A6 
     566 0000003c 5020          ORB       AL,#0x20              ; [CPU_ALU] |5288| 
     567 0000003d F4A9          MOV       *(0:0x40a6),AL        ; [CPU_ALU] |5288| 
         0000003e 40A6 
     568                      .dwpsn  file "C:/Users/ZXC/Documents/mcu project/ti-project/clllc_nonpowerSUITE_F28004x/device/driver
     569 0000003f F5A9          MOV       AL,*(0:0x40b0)        ; [CPU_ALU] |5294| 
         00000040 40B0 
TMS320C2000 Assembler PC v22.6.0 Mon Sep  2 11:55:45 2024

Copyright (c) 1996-2018 Texas Instruments Incorporated
clllc_hal.asm                                                        PAGE   12

     570 00000041 CCA9          AND       AL,AL,#0xfff0         ; [CPU_ALU] |5294| 
         00000042 FFF0 
     571 00000043 5006          ORB       AL,#0x06              ; [CPU_ALU] |5294| 
     572 00000044 F4A9          MOV       *(0:0x40b0),AL        ; [CPU_ALU] |5294| 
         00000045 40B0 
     573                      .dwpsn  file "C:/Users/ZXC/Documents/mcu project/ti-project/clllc_nonpowerSUITE_F28004x/device/driver
     574 00000046 F5A9          MOV       AL,*(0:0x40a4)        ; [CPU_ALU] |5072| 
         00000047 40A4 
     575 00000048 1AA9          OR        AL,#0x0800            ; [CPU_ALU] |5072| 
         00000049 0800 
     576 0000004a F4A9          MOV       *(0:0x40a4),AL        ; [CPU_ALU] |5072| 
         0000004b 40A4 
     577              $C$DW$68        .dwtag  DW_TAG_TI_branch
     578                      .dwattr $C$DW$68, DW_AT_low_pc(0x00)
     579                      .dwattr $C$DW$68, DW_AT_TI_return
     580              
     581 0000004c 0006          LRETR     ; [CPU_ALU] 
     582                      ; return occurs ; [] 
     583                      .dwattr $C$DW$67, DW_AT_TI_end_file("../clllc_hal.c")
     584                      .dwattr $C$DW$67, DW_AT_TI_end_line(0x4a5)
     585                      .dwattr $C$DW$67, DW_AT_TI_end_column(0x01)
     586                      .dwendentry
     587                      .dwendtag $C$DW$67
     588              
     589 0000004d               .sect   ".text"
     590                      .clink
     591                      .global ||CLLLC_HAL_setupSynchronousRectificationActionDebug||
     592              
     593              $C$DW$69        .dwtag  DW_TAG_subprogram
     594                      .dwattr $C$DW$69, DW_AT_name("CLLLC_HAL_setupSynchronousRectificationActionDebug")
     595                      .dwattr $C$DW$69, DW_AT_low_pc(||CLLLC_HAL_setupSynchronousRectificationActionDebug||)
     596                      .dwattr $C$DW$69, DW_AT_high_pc(0x00)
     597                      .dwattr $C$DW$69, DW_AT_linkage_name("CLLLC_HAL_setupSynchronousRectificationActionDebug")
     598                      .dwattr $C$DW$69, DW_AT_external
     599                      .dwattr $C$DW$69, DW_AT_decl_file("../clllc_hal.c")
     600                      .dwattr $C$DW$69, DW_AT_decl_line(0x44b)
     601                      .dwattr $C$DW$69, DW_AT_decl_column(0x06)
     602                      .dwattr $C$DW$69, DW_AT_TI_max_frame_size(-2)
     603                      .dwpsn  file "../clllc_hal.c",line 1100,column 1,is_stmt,address ||CLLLC_HAL_setupSynchronousRectific
     604              
     605                      .dwfde $C$DW$CIE, ||CLLLC_HAL_setupSynchronousRectificationActionDebug||
     606              $C$DW$70        .dwtag  DW_TAG_formal_parameter
     607                      .dwattr $C$DW$70, DW_AT_name("powerFlow")
     608                      .dwattr $C$DW$70, DW_AT_type(*$C$DW$T$163)
     609                      .dwattr $C$DW$70, DW_AT_location[DW_OP_reg0]
     610              
     611              
     612              ;***************************************************************
     613              ;* FNAME: CLLLC_HAL_setupSynchronousRectificationActionDebug FR SIZE:   0           *
     614              ;*                                                             *
     615              ;* FUNCTION ENVIRONMENT                                        *
     616              ;*                                                             *
     617              ;* FUNCTION PROPERTIES                                         *
     618              ;*                            0 Parameter,  0 Auto,  0 SOE     *
     619              ;***************************************************************
TMS320C2000 Assembler PC v22.6.0 Mon Sep  2 11:55:45 2024

Copyright (c) 1996-2018 Texas Instruments Incorporated
clllc_hal.asm                                                        PAGE   13

     620              
     621              ||CLLLC_HAL_setupSynchronousRectificationActionDebug||:
     622              ;* AL    assigned to powerFlow
     623              $C$DW$71        .dwtag  DW_TAG_variable
     624                      .dwattr $C$DW$71, DW_AT_name("powerFlow")
     625                      .dwattr $C$DW$71, DW_AT_type(*$C$DW$T$237)
     626                      .dwattr $C$DW$71, DW_AT_location[DW_OP_reg0]
     627              
     628                      .dwcfi  cfa_offset, -2
     629                      .dwcfi  save_reg_to_mem, 26, 0
     630                      .dwpsn  file "../clllc_hal.c",line 1104,column 5,is_stmt,isa 0
     631 0000004d 5201          CMPB      AL,#1                 ; [CPU_ALU] |1104| 
     632 0000004e 6119          B         ||$C$L2||,EQ          ; [CPU_ALU] |1104| 
     633                      ; branchcc occurs ; [] |1104| 
     634                      .dwpsn  file "../clllc_hal.c",line 1118,column 9,is_stmt,isa 0
     635 0000004f 9A00          MOVB      AL,#0                 ; [CPU_ALU] |1118| 
     636 00000050 28A8          MOV       AH,#4096              ; [CPU_ALU] |1118| 
         00000051 1000 
     637              $C$DW$72        .dwtag  DW_TAG_TI_branch
     638                      .dwattr $C$DW$72, DW_AT_low_pc(0x00)
     639                      .dwattr $C$DW$72, DW_AT_name("XBAR_setOutputMuxConfig")
     640                      .dwattr $C$DW$72, DW_AT_TI_call
     641              
     642 00000052 7640!         LCR       #||XBAR_setOutputMuxConfig|| ; [CPU_ALU] |1118| 
         00000053 0000 
     643                      ; call occurs [#||XBAR_setOutputMuxConfig||] ; [] |1118| 
     644                      .dwpsn  file "C:\Users\ZXC\Documents\mcu project\ti-project\clllc_nonpowerSUITE_F28004x\device\driver
     645 00000054 7622          EALLOW    ; [CPU_ALU] |645| 
     646                      .dwpsn  file "C:\Users\ZXC\Documents\mcu project\ti-project\clllc_nonpowerSUITE_F28004x\device\driver
     647 00000055 BFA9          MOV32     ACC,*(0:0x7aa0)       ; [CPU_FPU] |647| 
         00000056 7AA0 
     648 00000057 1AA9          OR        AL,#256               ; [CPU_ALU] |647| 
         00000058 0100 
     649 00000059 BDA9          MOV32     *(0:0x7aa0),ACC       ; [CPU_FPU] |647| 
         0000005a 7AA0 
     650                      .dwpsn  file "C:\Users\ZXC\Documents\mcu project\ti-project\clllc_nonpowerSUITE_F28004x\device\driver
     651 0000005b 761A          EDIS      ; [CPU_ALU] |649| 
     652                      .dwpsn  file "../clllc_hal.c",line 1122,column 9,is_stmt,isa 0
     653 0000005c 9A02          MOVB      AL,#2                 ; [CPU_ALU] |1122| 
     654 0000005d 28A8          MOV       AH,#4608              ; [CPU_ALU] |1122| 
         0000005e 1200 
     655              $C$DW$73        .dwtag  DW_TAG_TI_branch
     656                      .dwattr $C$DW$73, DW_AT_low_pc(0x00)
     657                      .dwattr $C$DW$73, DW_AT_name("XBAR_setOutputMuxConfig")
     658                      .dwattr $C$DW$73, DW_AT_TI_call
     659              
     660 0000005f 7640!         LCR       #||XBAR_setOutputMuxConfig|| ; [CPU_ALU] |1122| 
         00000060 0000 
     661                      ; call occurs [#||XBAR_setOutputMuxConfig||] ; [] |1122| 
     662                      .dwpsn  file "C:\Users\ZXC\Documents\mcu project\ti-project\clllc_nonpowerSUITE_F28004x\device\driver
     663 00000061 7622          EALLOW    ; [CPU_ALU] |645| 
     664                      .dwpsn  file "C:\Users\ZXC\Documents\mcu project\ti-project\clllc_nonpowerSUITE_F28004x\device\driver
     665 00000062 BFA9          MOV32     ACC,*(0:0x7aa2)       ; [CPU_FPU] |647| 
         00000063 7AA2 
     666 00000064 1AA9          OR        AL,#512               ; [CPU_ALU] |647| 
TMS320C2000 Assembler PC v22.6.0 Mon Sep  2 11:55:45 2024

Copyright (c) 1996-2018 Texas Instruments Incorporated
clllc_hal.asm                                                        PAGE   14

         00000065 0200 
     667                      .dwpsn  file "../clllc_hal.c",line 1124,column 9,is_stmt,isa 0
     668 00000066 6F16          B         ||$C$L3||,UNC         ; [CPU_ALU] |1124| 
     669                      ; branch occurs ; [] |1124| 
     670 00000067       ||$C$L2||:    
     671                      .dwpsn  file "../clllc_hal.c",line 1107,column 9,is_stmt,isa 0
     672 00000067 9A00          MOVB      AL,#0                 ; [CPU_ALU] |1107| 
     673 00000068 28A8          MOV       AH,#3072              ; [CPU_ALU] |1107| 
         00000069 0C00 
     674              $C$DW$74        .dwtag  DW_TAG_TI_branch
     675                      .dwattr $C$DW$74, DW_AT_low_pc(0x00)
     676                      .dwattr $C$DW$74, DW_AT_name("XBAR_setOutputMuxConfig")
     677                      .dwattr $C$DW$74, DW_AT_TI_call
     678              
     679 0000006a 7640!         LCR       #||XBAR_setOutputMuxConfig|| ; [CPU_ALU] |1107| 
         0000006b 0000 
     680                      ; call occurs [#||XBAR_setOutputMuxConfig||] ; [] |1107| 
     681                      .dwpsn  file "C:\Users\ZXC\Documents\mcu project\ti-project\clllc_nonpowerSUITE_F28004x\device\driver
     682 0000006c 7622          EALLOW    ; [CPU_ALU] |645| 
     683                      .dwpsn  file "C:\Users\ZXC\Documents\mcu project\ti-project\clllc_nonpowerSUITE_F28004x\device\driver
     684 0000006d BFA9          MOV32     ACC,*(0:0x7aa0)       ; [CPU_FPU] |647| 
         0000006e 7AA0 
     685 0000006f 5040          ORB       AL,#0x40              ; [CPU_ALU] |647| 
     686 00000070 BDA9          MOV32     *(0:0x7aa0),ACC       ; [CPU_FPU] |647| 
         00000071 7AA0 
     687                      .dwpsn  file "C:\Users\ZXC\Documents\mcu project\ti-project\clllc_nonpowerSUITE_F28004x\device\driver
     688 00000072 761A          EDIS      ; [CPU_ALU] |649| 
     689                      .dwpsn  file "../clllc_hal.c",line 1111,column 9,is_stmt,isa 0
     690 00000073 9A02          MOVB      AL,#2                 ; [CPU_ALU] |1111| 
     691 00000074 28A8          MOV       AH,#3584              ; [CPU_ALU] |1111| 
         00000075 0E00 
     692              $C$DW$75        .dwtag  DW_TAG_TI_branch
     693                      .dwattr $C$DW$75, DW_AT_low_pc(0x00)
     694                      .dwattr $C$DW$75, DW_AT_name("XBAR_setOutputMuxConfig")
     695                      .dwattr $C$DW$75, DW_AT_TI_call
     696              
     697 00000076 7640!         LCR       #||XBAR_setOutputMuxConfig|| ; [CPU_ALU] |1111| 
         00000077 0000 
     698                      ; call occurs [#||XBAR_setOutputMuxConfig||] ; [] |1111| 
     699                      .dwpsn  file "C:\Users\ZXC\Documents\mcu project\ti-project\clllc_nonpowerSUITE_F28004x\device\driver
     700 00000078 7622          EALLOW    ; [CPU_ALU] |645| 
     701                      .dwpsn  file "C:\Users\ZXC\Documents\mcu project\ti-project\clllc_nonpowerSUITE_F28004x\device\driver
     702 00000079 BFA9          MOV32     ACC,*(0:0x7aa2)       ; [CPU_FPU] |647| 
         0000007a 7AA2 
     703 0000007b 5080          ORB       AL,#0x80              ; [CPU_ALU] |647| 
     704 0000007c       ||$C$L3||:    
     705 0000007c BDA9          MOV32     *(0:0x7aa2),ACC       ; [CPU_FPU] |647| 
         0000007d 7AA2 
     706                      .dwpsn  file "C:\Users\ZXC\Documents\mcu project\ti-project\clllc_nonpowerSUITE_F28004x\device\driver
     707 0000007e 761A          EDIS      ; [CPU_ALU] |649| 
     708                      .dwpsn  file "../clllc_hal.c",line 1129,column 5,is_stmt,isa 0
     709 0000007f D401          MOVB      XAR4,#1               ; [CPU_ALU] |1129| 
     710 00000080 023A          MOVB      ACC,#58               ; [CPU_ALU] |1129| 
     711              $C$DW$76        .dwtag  DW_TAG_TI_branch
     712                      .dwattr $C$DW$76, DW_AT_low_pc(0x00)
TMS320C2000 Assembler PC v22.6.0 Mon Sep  2 11:55:45 2024

Copyright (c) 1996-2018 Texas Instruments Incorporated
clllc_hal.asm                                                        PAGE   15

     713                      .dwattr $C$DW$76, DW_AT_name("GPIO_setDirectionMode")
     714                      .dwattr $C$DW$76, DW_AT_TI_call
     715              
     716 00000081 7640!         LCR       #||GPIO_setDirectionMode|| ; [CPU_ALU] |1129| 
         00000082 0000 
     717                      ; call occurs [#||GPIO_setDirectionMode||] ; [] |1129| 
     718                      .dwpsn  file "../clllc_hal.c",line 1130,column 5,is_stmt,isa 0
     719 00000083 D403          MOVB      XAR4,#3               ; [CPU_ALU] |1130| 
     720 00000084 023A          MOVB      ACC,#58               ; [CPU_ALU] |1130| 
     721              $C$DW$77        .dwtag  DW_TAG_TI_branch
     722                      .dwattr $C$DW$77, DW_AT_low_pc(0x00)
     723                      .dwattr $C$DW$77, DW_AT_name("GPIO_setQualificationMode")
     724                      .dwattr $C$DW$77, DW_AT_TI_call
     725              
     726 00000085 7640!         LCR       #||GPIO_setQualificationMode|| ; [CPU_ALU] |1130| 
         00000086 0000 
     727                      ; call occurs [#||GPIO_setQualificationMode||] ; [] |1130| 
     728                      .dwpsn  file "../clllc_hal.c",line 1131,column 5,is_stmt,isa 0
     729 00000087 28A9          MOV       AL,#5125              ; [CPU_ALU] |1131| 
         00000088 1405 
     730 00000089 9B48          MOV       AH,#72                ; [CPU_ALU] |1131| 
     731              $C$DW$78        .dwtag  DW_TAG_TI_branch
     732                      .dwattr $C$DW$78, DW_AT_low_pc(0x00)
     733                      .dwattr $C$DW$78, DW_AT_name("GPIO_setPinConfig")
     734                      .dwattr $C$DW$78, DW_AT_TI_call
     735              
     736 0000008a 7640!         LCR       #||GPIO_setPinConfig|| ; [CPU_ALU] |1131| 
         0000008b 0000 
     737                      ; call occurs [#||GPIO_setPinConfig||] ; [] |1131| 
     738                      .dwpsn  file "../clllc_hal.c",line 1133,column 5,is_stmt,isa 0
     739 0000008c D401          MOVB      XAR4,#1               ; [CPU_ALU] |1133| 
     740 0000008d 023B          MOVB      ACC,#59               ; [CPU_ALU] |1133| 
     741              $C$DW$79        .dwtag  DW_TAG_TI_branch
     742                      .dwattr $C$DW$79, DW_AT_low_pc(0x00)
     743                      .dwattr $C$DW$79, DW_AT_name("GPIO_setDirectionMode")
     744                      .dwattr $C$DW$79, DW_AT_TI_call
     745              
     746 0000008e 7640!         LCR       #||GPIO_setDirectionMode|| ; [CPU_ALU] |1133| 
         0000008f 0000 
     747                      ; call occurs [#||GPIO_setDirectionMode||] ; [] |1133| 
     748                      .dwpsn  file "../clllc_hal.c",line 1134,column 5,is_stmt,isa 0
     749 00000090 D403          MOVB      XAR4,#3               ; [CPU_ALU] |1134| 
     750 00000091 023B          MOVB      ACC,#59               ; [CPU_ALU] |1134| 
     751              $C$DW$80        .dwtag  DW_TAG_TI_branch
     752                      .dwattr $C$DW$80, DW_AT_low_pc(0x00)
     753                      .dwattr $C$DW$80, DW_AT_name("GPIO_setQualificationMode")
     754                      .dwattr $C$DW$80, DW_AT_TI_call
     755              
     756 00000092 7640!         LCR       #||GPIO_setQualificationMode|| ; [CPU_ALU] |1134| 
         00000093 0000 
     757                      ; call occurs [#||GPIO_setQualificationMode||] ; [] |1134| 
     758                      .dwpsn  file "../clllc_hal.c",line 1135,column 5,is_stmt,isa 0
     759 00000094 28A9          MOV       AL,#5637              ; [CPU_ALU] |1135| 
         00000095 1605 
     760 00000096 9B48          MOV       AH,#72                ; [CPU_ALU] |1135| 
TMS320C2000 Assembler PC v22.6.0 Mon Sep  2 11:55:45 2024

Copyright (c) 1996-2018 Texas Instruments Incorporated
clllc_hal.asm                                                        PAGE   16

     761              $C$DW$81        .dwtag  DW_TAG_TI_branch
     762                      .dwattr $C$DW$81, DW_AT_low_pc(0x00)
     763                      .dwattr $C$DW$81, DW_AT_name("GPIO_setPinConfig")
     764                      .dwattr $C$DW$81, DW_AT_TI_call
     765              
     766 00000097 7640!         LCR       #||GPIO_setPinConfig|| ; [CPU_ALU] |1135| 
         00000098 0000 
     767                      ; call occurs [#||GPIO_setPinConfig||] ; [] |1135| 
     768              $C$DW$82        .dwtag  DW_TAG_TI_branch
     769                      .dwattr $C$DW$82, DW_AT_low_pc(0x00)
     770                      .dwattr $C$DW$82, DW_AT_TI_return
     771              
     772 00000099 0006          LRETR     ; [CPU_ALU] 
     773                      ; return occurs ; [] 
     774                      .dwattr $C$DW$69, DW_AT_TI_end_file("../clllc_hal.c")
     775                      .dwattr $C$DW$69, DW_AT_TI_end_line(0x470)
     776                      .dwattr $C$DW$69, DW_AT_TI_end_column(0x01)
     777                      .dwendentry
     778                      .dwendtag $C$DW$69
     779              
     780 0000009a               .sect   ".text"
     781                      .clink
     782                      .global ||CLLLC_HAL_setupSynchronousRectificationAction||
     783              
     784              $C$DW$83        .dwtag  DW_TAG_subprogram
     785                      .dwattr $C$DW$83, DW_AT_name("CLLLC_HAL_setupSynchronousRectificationAction")
     786                      .dwattr $C$DW$83, DW_AT_low_pc(||CLLLC_HAL_setupSynchronousRectificationAction||)
     787                      .dwattr $C$DW$83, DW_AT_high_pc(0x00)
     788                      .dwattr $C$DW$83, DW_AT_linkage_name("CLLLC_HAL_setupSynchronousRectificationAction")
     789                      .dwattr $C$DW$83, DW_AT_external
     790                      .dwattr $C$DW$83, DW_AT_decl_file("../clllc_hal.c")
     791                      .dwattr $C$DW$83, DW_AT_decl_line(0x2ad)
     792                      .dwattr $C$DW$83, DW_AT_decl_column(0x06)
     793                      .dwattr $C$DW$83, DW_AT_TI_max_frame_size(-4)
     794                      .dwpsn  file "../clllc_hal.c",line 686,column 1,is_stmt,address ||CLLLC_HAL_setupSynchronousRectifica
     795              
     796                      .dwfde $C$DW$CIE, ||CLLLC_HAL_setupSynchronousRectificationAction||
     797              $C$DW$84        .dwtag  DW_TAG_formal_parameter
     798                      .dwattr $C$DW$84, DW_AT_name("powerFlow")
     799                      .dwattr $C$DW$84, DW_AT_type(*$C$DW$T$163)
     800                      .dwattr $C$DW$84, DW_AT_location[DW_OP_reg0]
     801              
     802              
     803              ;***************************************************************
     804              ;* FNAME: CLLLC_HAL_setupSynchronousRectificationAction FR SIZE:   2           *
     805              ;*                                                             *
     806              ;* FUNCTION ENVIRONMENT                                        *
     807              ;*                                                             *
     808              ;* FUNCTION PROPERTIES                                         *
     809              ;*                            1 Parameter,  0 Auto,  0 SOE     *
     810              ;***************************************************************
     811              
     812              ||CLLLC_HAL_setupSynchronousRectificationAction||:
     813              ;* AL    assigned to powerFlow
     814              $C$DW$85        .dwtag  DW_TAG_variable
TMS320C2000 Assembler PC v22.6.0 Mon Sep  2 11:55:45 2024

Copyright (c) 1996-2018 Texas Instruments Incorporated
clllc_hal.asm                                                        PAGE   17

     815                      .dwattr $C$DW$85, DW_AT_name("powerFlow")
     816                      .dwattr $C$DW$85, DW_AT_type(*$C$DW$T$237)
     817                      .dwattr $C$DW$85, DW_AT_location[DW_OP_reg0]
     818              
     819                      .dwcfi  cfa_offset, -2
     820                      .dwcfi  save_reg_to_mem, 26, 0
     821 0000009a FE02          ADDB      SP,#2                 ; [CPU_ARAU] 
     822                      .dwcfi  cfa_offset, -4
     823                      .dwpsn  file "../clllc_hal.c",line 687,column 5,is_stmt,isa 0
     824 0000009b 5201          CMPB      AL,#1                 ; [CPU_ALU] |687| 
     825 0000009c FFE1          B         ||$C$L4||,EQ          ; [CPU_ALU] |687| 
         0000009d 015B 
     826                      ; branchcc occurs ; [] |687| 
     827                      .dwpsn  file "../clllc_hal.c",line 886,column 10,is_stmt,isa 0
     828 0000009e 5202          CMPB      AL,#2                 ; [CPU_ALU] |886| 
     829 0000009f FFE0          B         ||$C$L6||,NEQ         ; [CPU_ALU] |886| 
         000000a0 02B1 
     830                      ; branchcc occurs ; [] |886| 
     831                      .dwpsn  file "C:/Users/ZXC/Documents/mcu project/ti-project/clllc_nonpowerSUITE_F28004x/device/driver
     832 000000a1 7622          EALLOW    ; [CPU_ALU] |643| 
     833                      .dwpsn  file "C:/Users/ZXC/Documents/mcu project/ti-project/clllc_nonpowerSUITE_F28004x/device/driver
     834 000000a2 8F05          MOVL      XAR4,#382850          ; [CPU_ARAU] |648| 
         000000a3 D782 
     835 000000a4 06C4          MOVL      ACC,*+XAR4[0]         ; [CPU_ALU] |648| 
     836 000000a5 18A9          AND       AL,#36863             ; [CPU_ALU] |648| 
         000000a6 8FFF 
     837 000000a7 1EC4          MOVL      *+XAR4[0],ACC         ; [CPU_ALU] |648| 
     838                      .dwpsn  file "C:/Users/ZXC/Documents/mcu project/ti-project/clllc_nonpowerSUITE_F28004x/device/driver
     839 000000a8 8F05          MOVL      XAR4,#382852          ; [CPU_ARAU] |687| 
         000000a9 D784 
     840 000000aa 06C4          MOVL      ACC,*+XAR4[0]         ; [CPU_ALU] |687| 
     841 000000ab 18A9          AND       AL,#36863             ; [CPU_ALU] |687| 
         000000ac 8FFF 
     842 000000ad 1EC4          MOVL      *+XAR4[0],ACC         ; [CPU_ALU] |687| 
     843                      .dwpsn  file "C:/Users/ZXC/Documents/mcu project/ti-project/clllc_nonpowerSUITE_F28004x/device/driver
     844 000000ae F5A9          MOV       AL,*(0:0x5d00)        ; [CPU_ALU] |258| 
         000000af 5D00 
     845 000000b0 1AA9          OR        AL,#0x8000            ; [CPU_ALU] |258| 
         000000b1 8000 
     846 000000b2 F4A9          MOV       *(0:0x5d00),AL        ; [CPU_ALU] |258| 
         000000b3 5D00 
     847                      .dwpsn  file "C:/Users/ZXC/Documents/mcu project/ti-project/clllc_nonpowerSUITE_F28004x/device/driver
     848 000000b4 F5A9          MOV       AL,*(0:0x5d04)        ; [CPU_ALU] |560| 
         000000b5 5D04 
     849 000000b6 18A9          AND       AL,#0xff5e            ; [CPU_ALU] |560| 
         000000b7 FF5E 
     850 000000b8 F4A9          MOV       *(0:0x5d04),AL        ; [CPU_ALU] |560| 
         000000b9 5D04 
     851                      .dwpsn  file "C:/Users/ZXC/Documents/mcu project/ti-project/clllc_nonpowerSUITE_F28004x/device/driver
     852 000000ba 761A          EDIS      ; [CPU_ALU] |564| 
     853                      .dwpsn  file "C:/Users/ZXC/Documents/mcu project/ti-project/clllc_nonpowerSUITE_F28004x/device/driver
     854 000000bb 28A8          MOV       AH,#2150              ; [CPU_ALU] |594| 
         000000bc 0866 
     855                      .dwpsn  file "C:/Users/ZXC/Documents/mcu project/ti-project/clllc_nonpowerSUITE_F28004x/device/driver
     856 000000bd 28A9          MOV       AL,#1950              ; [CPU_ALU] |624| 
TMS320C2000 Assembler PC v22.6.0 Mon Sep  2 11:55:45 2024

Copyright (c) 1996-2018 Texas Instruments Incorporated
clllc_hal.asm                                                        PAGE   18

         000000be 079E 
     857                      .dwpsn  file "C:/Users/ZXC/Documents/mcu project/ti-project/clllc_nonpowerSUITE_F28004x/device/driver
     858 000000bf F4A8          MOV       *(0:0x5d06),AH        ; [CPU_ALU] |594| 
         000000c0 5D06 
     859                      .dwpsn  file "C:/Users/ZXC/Documents/mcu project/ti-project/clllc_nonpowerSUITE_F28004x/device/driver
     860 000000c1 F4A9          MOV       *(0:0x5d12),AL        ; [CPU_ALU] |624| 
         000000c2 5D12 
     861                      .dwpsn  file "C:/Users/ZXC/Documents/mcu project/ti-project/clllc_nonpowerSUITE_F28004x/device/driver
     862 000000c3 7622          EALLOW    ; [CPU_ALU] |330| 
     863                      .dwpsn  file "C:/Users/ZXC/Documents/mcu project/ti-project/clllc_nonpowerSUITE_F28004x/device/driver
     864 000000c4 F5A9          MOV       AL,*(0:0x5d00)        ; [CPU_ALU] |332| 
         000000c5 5D00 
     865 000000c6 CCA9          AND       AL,AL,#0xffbe         ; [CPU_ALU] |332| 
         000000c7 FFBE 
     866 000000c8 5002          ORB       AL,#0x02              ; [CPU_ALU] |332| 
     867 000000c9 F4A9          MOV       *(0:0x5d00),AL        ; [CPU_ALU] |332| 
         000000ca 5D00 
     868                      .dwpsn  file "C:/Users/ZXC/Documents/mcu project/ti-project/clllc_nonpowerSUITE_F28004x/device/driver
     869 000000cb F5A9          MOV       AL,*(0:0x5d00)        ; [CPU_ALU] |378| 
         000000cc 5D00 
     870 000000cd 18A9          AND       AL,#0xbcff            ; [CPU_ALU] |378| 
         000000ce BCFF 
     871 000000cf F4A9          MOV       *(0:0x5d00),AL        ; [CPU_ALU] |378| 
         000000d0 5D00 
     872                      .dwpsn  file "C:/Users/ZXC/Documents/mcu project/ti-project/clllc_nonpowerSUITE_F28004x/device/driver
     873 000000d1 F5A9          MOV       AL,*(0:0x5d04)        ; [CPU_ALU] |1175| 
         000000d2 5D04 
     874 000000d3 18A9          AND       AL,#0xf0ff            ; [CPU_ALU] |1175| 
         000000d4 F0FF 
     875 000000d5 F4A9          MOV       *(0:0x5d04),AL        ; [CPU_ALU] |1175| 
         000000d6 5D04 
     876                      .dwpsn  file "C:/Users/ZXC/Documents/mcu project/ti-project/clllc_nonpowerSUITE_F28004x/device/driver
     877 000000d7 F5A9          MOV       AL,*(0:0x5d04)        ; [CPU_ALU] |1206| 
         000000d8 5D04 
     878 000000d9 1AA9          OR        AL,#0x1000            ; [CPU_ALU] |1206| 
         000000da 1000 
     879 000000db F4A9          MOV       *(0:0x5d04),AL        ; [CPU_ALU] |1206| 
         000000dc 5D04 
     880                      .dwpsn  file "C:/Users/ZXC/Documents/mcu project/ti-project/clllc_nonpowerSUITE_F28004x/device/driver
     881 000000dd 761A          EDIS      ; [CPU_ALU] |1207| 
     882                      .dwpsn  file "../clllc_hal.c",line 938,column 9,is_stmt,isa 0
     883 000000de D501          MOVB      XAR5,#1               ; [CPU_ALU] |938| 
     884 000000df D401          MOVB      XAR4,#1               ; [CPU_ALU] |938| 
     885 000000e0 FF20          MOV       ACC,#23808            ; [CPU_ALU] |938| 
         000000e1 5D00 
     886              $C$DW$86        .dwtag  DW_TAG_TI_branch
     887                      .dwattr $C$DW$86, DW_AT_low_pc(0x00)
     888                      .dwattr $C$DW$86, DW_AT_name("CMPSS_configLatchOnPWMSYNC")
     889                      .dwattr $C$DW$86, DW_AT_TI_call
     890              
     891 000000e2 7640!         LCR       #||CMPSS_configLatchOnPWMSYNC|| ; [CPU_ALU] |938| 
         000000e3 0000 
     892                      ; call occurs [#||CMPSS_configLatchOnPWMSYNC||] ; [] |938| 
     893                      .dwpsn  file "../clllc_hal.c",line 940,column 9,is_stmt,isa 0
     894 000000e4 7622          EALLOW    ; [CPU_ALU] |940| 
TMS320C2000 Assembler PC v22.6.0 Mon Sep  2 11:55:45 2024

Copyright (c) 1996-2018 Texas Instruments Incorporated
clllc_hal.asm                                                        PAGE   19

     895                      .dwpsn  file "../clllc_hal.c",line 941,column 9,is_stmt,isa 0
     896 000000e5 F5A9          MOV       AL,*(0:0x5d04)        ; [CPU_ALU] |941| 
         000000e6 5D04 
     897 000000e7 501E          ORB       AL,#0x1e              ; [CPU_ALU] |941| 
     898 000000e8 F4A9          MOV       *(0:0x5d04),AL        ; [CPU_ALU] |941| 
         000000e9 5D04 
     899                      .dwpsn  file "../clllc_hal.c",line 942,column 9,is_stmt,isa 0
     900 000000ea 761A          EDIS      ; [CPU_ALU] |942| 
     901                      .dwpsn  file "../clllc_hal.c",line 947,column 9,is_stmt,isa 0
     902 000000eb 56BF          MOVB      *-SP[1],#1,UNC        ; [CPU_ALU] |947| 
         000000ec 0141 
     903 000000ed D400          MOVB      XAR4,#0               ; [CPU_ALU] |947| 
     904 000000ee D501          MOVB      XAR5,#1               ; [CPU_ALU] |947| 
     905 000000ef FF20          MOV       ACC,#23808            ; [CPU_ALU] |947| 
         000000f0 5D00 
     906              $C$DW$87        .dwtag  DW_TAG_TI_branch
     907                      .dwattr $C$DW$87, DW_AT_low_pc(0x00)
     908                      .dwattr $C$DW$87, DW_AT_name("CMPSS_configFilterHigh")
     909                      .dwattr $C$DW$87, DW_AT_TI_call
     910              
     911 000000f1 7640!         LCR       #||CMPSS_configFilterHigh|| ; [CPU_ALU] |947| 
         000000f2 0000 
     912                      ; call occurs [#||CMPSS_configFilterHigh||] ; [] |947| 
     913                      .dwpsn  file "../clllc_hal.c",line 948,column 9,is_stmt,isa 0
     914 000000f3 56BF          MOVB      *-SP[1],#1,UNC        ; [CPU_ALU] |948| 
         000000f4 0141 
     915 000000f5 D400          MOVB      XAR4,#0               ; [CPU_ALU] |948| 
     916 000000f6 D501          MOVB      XAR5,#1               ; [CPU_ALU] |948| 
     917 000000f7 FF20          MOV       ACC,#23808            ; [CPU_ALU] |948| 
         000000f8 5D00 
     918              $C$DW$88        .dwtag  DW_TAG_TI_branch
     919                      .dwattr $C$DW$88, DW_AT_low_pc(0x00)
     920                      .dwattr $C$DW$88, DW_AT_name("CMPSS_configFilterLow")
     921                      .dwattr $C$DW$88, DW_AT_TI_call
     922              
     923 000000f9 7640!         LCR       #||CMPSS_configFilterLow|| ; [CPU_ALU] |948| 
         000000fa 0000 
     924                      ; call occurs [#||CMPSS_configFilterLow||] ; [] |948| 
     925                      .dwpsn  file "C:/Users/ZXC/Documents/mcu project/ti-project/clllc_nonpowerSUITE_F28004x/device/driver
     926 000000fb 7622          EALLOW    ; [CPU_ALU] |653| 
     927                      .dwpsn  file "C:/Users/ZXC/Documents/mcu project/ti-project/clllc_nonpowerSUITE_F28004x/device/driver
     928 000000fc F5A9          MOV       AL,*(0:0x5d18)        ; [CPU_ALU] |655| 
         000000fd 5D18 
     929 000000fe 1AA9          OR        AL,#0x8000            ; [CPU_ALU] |655| 
         000000ff 8000 
     930 00000100 F4A9          MOV       *(0:0x5d18),AL        ; [CPU_ALU] |655| 
         00000101 5D18 
     931                      .dwpsn  file "C:/Users/ZXC/Documents/mcu project/ti-project/clllc_nonpowerSUITE_F28004x/device/driver
     932 00000102 F5A9          MOV       AL,*(0:0x5d16)        ; [CPU_ALU] |688| 
         00000103 5D16 
     933 00000104 1AA9          OR        AL,#0x8000            ; [CPU_ALU] |688| 
         00000105 8000 
     934 00000106 F4A9          MOV       *(0:0x5d16),AL        ; [CPU_ALU] |688| 
         00000107 5D16 
     935                      .dwpsn  file "C:/Users/ZXC/Documents/mcu project/ti-project/clllc_nonpowerSUITE_F28004x/device/driver
TMS320C2000 Assembler PC v22.6.0 Mon Sep  2 11:55:45 2024

Copyright (c) 1996-2018 Texas Instruments Incorporated
clllc_hal.asm                                                        PAGE   20

     936 00000108 F5A9          MOV       AL,*(0:0x5d00)        ; [CPU_ALU] |425| 
         00000109 5D00 
     937 0000010a 503C          ORB       AL,#0x3c              ; [CPU_ALU] |425| 
     938 0000010b F4A9          MOV       *(0:0x5d00),AL        ; [CPU_ALU] |425| 
         0000010c 5D00 
     939                      .dwpsn  file "C:/Users/ZXC/Documents/mcu project/ti-project/clllc_nonpowerSUITE_F28004x/device/driver
     940 0000010d F5A9          MOV       AL,*(0:0x5d00)        ; [CPU_ALU] |474| 
         0000010e 5D00 
     941 0000010f 1AA9          OR        AL,#0x3c00            ; [CPU_ALU] |474| 
         00000110 3C00 
     942 00000111 F4A9          MOV       *(0:0x5d00),AL        ; [CPU_ALU] |474| 
         00000112 5D00 
     943                      .dwpsn  file "C:/Users/ZXC/Documents/mcu project/ti-project/clllc_nonpowerSUITE_F28004x/device/driver
     944 00000113 9A02          MOVB      AL,#2                 ; [CPU_ALU] |1031| 
     945 00000114 F4A9          MOV       *(0:0x5d01),AL        ; [CPU_ALU] |1031| 
         00000115 5D01 
     946                      .dwpsn  file "C:/Users/ZXC/Documents/mcu project/ti-project/clllc_nonpowerSUITE_F28004x/device/driver
     947 00000116 F5A9          MOV       AL,*(0:0x5d03)        ; [CPU_ALU] |772| 
         00000117 5D03 
     948 00000118 5002          ORB       AL,#0x02              ; [CPU_ALU] |772| 
     949 00000119 F4A9          MOV       *(0:0x5d03),AL        ; [CPU_ALU] |772| 
         0000011a 5D03 
     950                      .dwpsn  file "C:/Users/ZXC/Documents/mcu project/ti-project/clllc_nonpowerSUITE_F28004x/device/driver
     951 0000011b F5A9          MOV       AL,*(0:0x5d03)        ; [CPU_ALU] |802| 
         0000011c 5D03 
     952 0000011d 1AA9          OR        AL,#0x0200            ; [CPU_ALU] |802| 
         0000011e 0200 
     953 0000011f F4A9          MOV       *(0:0x5d03),AL        ; [CPU_ALU] |802| 
         00000120 5D03 
     954                      .dwpsn  file "C:/Users/ZXC/Documents/mcu project/ti-project/clllc_nonpowerSUITE_F28004x/device/driver
     955 00000121 761A          EDIS      ; [CPU_ALU] |804| 
     956                      .dwpsn  file "../clllc_hal.c",line 973,column 9,is_stmt,isa 0
     957 00000122 28A8          MOV       AH,#4096              ; [CPU_ALU] |973| 
         00000123 1000 
     958 00000124 9A02          MOVB      AL,#2                 ; [CPU_ALU] |973| 
     959              $C$DW$89        .dwtag  DW_TAG_TI_branch
     960                      .dwattr $C$DW$89, DW_AT_low_pc(0x00)
     961                      .dwattr $C$DW$89, DW_AT_name("XBAR_setEPWMMuxConfig")
     962                      .dwattr $C$DW$89, DW_AT_TI_call
     963              
     964 00000125 7640!         LCR       #||XBAR_setEPWMMuxConfig|| ; [CPU_ALU] |973| 
         00000126 0000 
     965                      ; call occurs [#||XBAR_setEPWMMuxConfig||] ; [] |973| 
     966                      .dwpsn  file "C:\Users\ZXC\Documents\mcu project\ti-project\clllc_nonpowerSUITE_F28004x\device\driver
     967 00000127 7622          EALLOW    ; [CPU_ALU] |856| 
     968                      .dwpsn  file "C:\Users\ZXC\Documents\mcu project\ti-project\clllc_nonpowerSUITE_F28004x\device\driver
     969 00000128 BFA9          MOV32     ACC,*(0:0x7a22)       ; [CPU_FPU] |858| 
         00000129 7A22 
     970 0000012a 1AA9          OR        AL,#256               ; [CPU_ALU] |858| 
         0000012b 0100 
     971 0000012c BDA9          MOV32     *(0:0x7a22),ACC       ; [CPU_FPU] |858| 
         0000012d 7A22 
     972                      .dwpsn  file "C:\Users\ZXC\Documents\mcu project\ti-project\clllc_nonpowerSUITE_F28004x\device\driver
     973 0000012e 761A          EDIS      ; [CPU_ALU] |859| 
     974                      .dwpsn  file "../clllc_hal.c",line 978,column 9,is_stmt,isa 0
TMS320C2000 Assembler PC v22.6.0 Mon Sep  2 11:55:45 2024

Copyright (c) 1996-2018 Texas Instruments Incorporated
clllc_hal.asm                                                        PAGE   21

     975 0000012f 9A04          MOVB      AL,#4                 ; [CPU_ALU] |978| 
     976 00000130 28A8          MOV       AH,#4608              ; [CPU_ALU] |978| 
         00000131 1200 
     977              $C$DW$90        .dwtag  DW_TAG_TI_branch
     978                      .dwattr $C$DW$90, DW_AT_low_pc(0x00)
     979                      .dwattr $C$DW$90, DW_AT_name("XBAR_setEPWMMuxConfig")
     980                      .dwattr $C$DW$90, DW_AT_TI_call
     981              
     982 00000132 7640!         LCR       #||XBAR_setEPWMMuxConfig|| ; [CPU_ALU] |978| 
         00000133 0000 
     983                      ; call occurs [#||XBAR_setEPWMMuxConfig||] ; [] |978| 
     984                      .dwpsn  file "C:\Users\ZXC\Documents\mcu project\ti-project\clllc_nonpowerSUITE_F28004x\device\driver
     985 00000134 7622          EALLOW    ; [CPU_ALU] |856| 
     986                      .dwpsn  file "C:\Users\ZXC\Documents\mcu project\ti-project\clllc_nonpowerSUITE_F28004x\device\driver
     987 00000135 BFA9          MOV32     ACC,*(0:0x7a24)       ; [CPU_FPU] |858| 
         00000136 7A24 
     988 00000137 1AA9          OR        AL,#512               ; [CPU_ALU] |858| 
         00000138 0200 
     989 00000139 BDA9          MOV32     *(0:0x7a24),ACC       ; [CPU_FPU] |858| 
         0000013a 7A24 
     990                      .dwpsn  file "C:\Users\ZXC\Documents\mcu project\ti-project\clllc_nonpowerSUITE_F28004x\device\driver
     991 0000013b 761A          EDIS      ; [CPU_ALU] |859| 
     992                      .dwpsn  file "../clllc_hal.c",line 983,column 9,is_stmt,isa 0
     993 0000013c 9A09          MOVB      AL,#9                 ; [CPU_ALU] |983| 
     994              $C$DW$91        .dwtag  DW_TAG_TI_branch
     995                      .dwattr $C$DW$91, DW_AT_low_pc(0x00)
     996                      .dwattr $C$DW$91, DW_AT_name("XBAR_clearInputFlag")
     997                      .dwattr $C$DW$91, DW_AT_TI_call
     998              
     999 0000013d 7640!         LCR       #||XBAR_clearInputFlag|| ; [CPU_ALU] |983| 
         0000013e 0000 
    1000                      ; call occurs [#||XBAR_clearInputFlag||] ; [] |983| 
    1001                      .dwpsn  file "../clllc_hal.c",line 984,column 9,is_stmt,isa 0
    1002 0000013f 9A08          MOVB      AL,#8                 ; [CPU_ALU] |984| 
    1003              $C$DW$92        .dwtag  DW_TAG_TI_branch
    1004                      .dwattr $C$DW$92, DW_AT_low_pc(0x00)
    1005                      .dwattr $C$DW$92, DW_AT_name("XBAR_clearInputFlag")
    1006                      .dwattr $C$DW$92, DW_AT_TI_call
    1007              
    1008 00000140 7640!         LCR       #||XBAR_clearInputFlag|| ; [CPU_ALU] |984| 
         00000141 0000 
    1009                      ; call occurs [#||XBAR_clearInputFlag||] ; [] |984| 
    1010                      .dwpsn  file "C:/Users/ZXC/Documents/mcu project/ti-project/clllc_nonpowerSUITE_F28004x/device/driver
    1011 00000142 7622          EALLOW    ; [CPU_ALU] |5776| 
    1012                      .dwpsn  file "C:/Users/ZXC/Documents/mcu project/ti-project/clllc_nonpowerSUITE_F28004x/device/driver
    1013 00000143 F5A9          MOV       AL,*(0:0x40c7)        ; [CPU_ALU] |5777| 
         00000144 40C7 
    1014 00000145 CCA9          AND       AL,AL,#0xffef         ; [CPU_ALU] |5777| 
         00000146 FFEF 
    1015 00000147 5020          ORB       AL,#0x20              ; [CPU_ALU] |5777| 
    1016 00000148 F4A9          MOV       *(0:0x40c7),AL        ; [CPU_ALU] |5777| 
         00000149 40C7 
    1017                      .dwpsn  file "C:/Users/ZXC/Documents/mcu project/ti-project/clllc_nonpowerSUITE_F28004x/device/driver
    1018 0000014a 761A          EDIS      ; [CPU_ALU] |5780| 
    1019                      .dwpsn  file "C:/Users/ZXC/Documents/mcu project/ti-project/clllc_nonpowerSUITE_F28004x/device/driver
TMS320C2000 Assembler PC v22.6.0 Mon Sep  2 11:55:45 2024

Copyright (c) 1996-2018 Texas Instruments Incorporated
clllc_hal.asm                                                        PAGE   22

    1020 0000014b 9B00          MOVB      AH,#0                 ; [CPU_ALU] |6031| 
    1021                      .dwpsn  file "C:/Users/ZXC/Documents/mcu project/ti-project/clllc_nonpowerSUITE_F28004x/device/driver
    1022 0000014c 9A19          MOVB      AL,#25                ; [CPU_ALU] |6058| 
    1023                      .dwpsn  file "C:/Users/ZXC/Documents/mcu project/ti-project/clllc_nonpowerSUITE_F28004x/device/driver
    1024 0000014d F4A8          MOV       *(0:0x40c9),AH        ; [CPU_ALU] |6031| 
         0000014e 40C9 
    1025                      .dwpsn  file "C:/Users/ZXC/Documents/mcu project/ti-project/clllc_nonpowerSUITE_F28004x/device/driver
    1026 0000014f F4A9          MOV       *(0:0x40cb),AL        ; [CPU_ALU] |6058| 
         00000150 40CB 
    1027                      .dwpsn  file "C:/Users/ZXC/Documents/mcu project/ti-project/clllc_nonpowerSUITE_F28004x/device/driver
    1028 00000151 7622          EALLOW    ; [CPU_ALU] |5659| 
    1029                      .dwpsn  file "C:/Users/ZXC/Documents/mcu project/ti-project/clllc_nonpowerSUITE_F28004x/device/driver
    1030 00000152 F5A9          MOV       AL,*(0:0x40c7)        ; [CPU_ALU] |5660| 
         00000153 40C7 
    1031 00000154 5004          ORB       AL,#0x04              ; [CPU_ALU] |5660| 
    1032 00000155 F4A9          MOV       *(0:0x40c7),AL        ; [CPU_ALU] |5660| 
         00000156 40C7 
    1033                      .dwpsn  file "../clllc_hal.c",line 1054,column 9,is_stmt,isa 0
    1034 00000157 76C0          MOVL      XAR7,#65535           ; [CPU_ALU] |1054| 
         00000158 FFFF 
    1035                      .dwpsn  file "../clllc_hal.c",line 1055,column 9,is_stmt,isa 0
    1036 00000159 7680          MOVL      XAR6,#65535           ; [CPU_ALU] |1055| 
         0000015a FFFF 
    1037                      .dwpsn  file "../clllc_hal.c",line 1056,column 9,is_stmt,isa 0
    1038 0000015b 28A8          MOV       AH,#65535             ; [CPU_ALU] |1056| 
         0000015c FFFF 
    1039                      .dwpsn  file "C:/Users/ZXC/Documents/mcu project/ti-project/clllc_nonpowerSUITE_F28004x/device/driver
    1040 0000015d F5A9          MOV       AL,*(0:0x40c0)        ; [CPU_ALU] |5628| 
         0000015e 40C0 
    1041 0000015f CCA9          AND       AL,AL,#0xff0f         ; [CPU_ALU] |5628| 
         00000160 FF0F 
    1042 00000161 5040          ORB       AL,#0x40              ; [CPU_ALU] |5628| 
    1043 00000162 F4A9          MOV       *(0:0x40c0),AL        ; [CPU_ALU] |5628| 
         00000163 40C0 
    1044 00000164 F5A9          MOV       AL,*(0:0x40c0)        ; [CPU_ALU] |5628| 
         00000165 40C0 
    1045 00000166 18A9          AND       AL,#0x0fff            ; [CPU_ALU] |5628| 
         00000167 0FFF 
    1046 00000168 1AA9          OR        AL,#0x6000            ; [CPU_ALU] |5628| 
         00000169 6000 
    1047 0000016a F4A9          MOV       *(0:0x40c0),AL        ; [CPU_ALU] |5628| 
         0000016b 40C0 
    1048 0000016c F5A9          MOV       AL,*(0:0x41c0)        ; [CPU_ALU] |5628| 
         0000016d 41C0 
    1049 0000016e CCA9          AND       AL,AL,#0xff0f         ; [CPU_ALU] |5628| 
         0000016f FF0F 
    1050 00000170 5060          ORB       AL,#0x60              ; [CPU_ALU] |5628| 
    1051 00000171 F4A9          MOV       *(0:0x41c0),AL        ; [CPU_ALU] |5628| 
         00000172 41C0 
    1052 00000173 F5A9          MOV       AL,*(0:0x41c0)        ; [CPU_ALU] |5628| 
         00000174 41C0 
    1053 00000175 18A9          AND       AL,#0x0fff            ; [CPU_ALU] |5628| 
         00000176 0FFF 
    1054 00000177 1AA9          OR        AL,#0x4000            ; [CPU_ALU] |5628| 
         00000178 4000 
TMS320C2000 Assembler PC v22.6.0 Mon Sep  2 11:55:45 2024

Copyright (c) 1996-2018 Texas Instruments Incorporated
clllc_hal.asm                                                        PAGE   23

    1055 00000179 F4A9          MOV       *(0:0x41c0),AL        ; [CPU_ALU] |5628| 
         0000017a 41C0 
    1056                      .dwpsn  file "C:/Users/ZXC/Documents/mcu project/ti-project/clllc_nonpowerSUITE_F28004x/device/driver
    1057 0000017b F5A9          MOV       AL,*(0:0x4082)        ; [CPU_ALU] |3998| 
         0000017c 4082 
    1058 0000017d CCA9          AND       AL,AL,#0xffe7         ; [CPU_ALU] |3998| 
         0000017e FFE7 
    1059 0000017f 5020          ORB       AL,#0x20              ; [CPU_ALU] |3998| 
    1060 00000180 F4A9          MOV       *(0:0x4082),AL        ; [CPU_ALU] |3998| 
         00000181 4082 
    1061 00000182 F5A9          MOV       AL,*(0:0x4082)        ; [CPU_ALU] |3998| 
         00000183 4082 
    1062 00000184 18A9          AND       AL,#0xf9ff            ; [CPU_ALU] |3998| 
         00000185 F9FF 
    1063 00000186 1AA9          OR        AL,#0x0800            ; [CPU_ALU] |3998| 
         00000187 0800 
    1064 00000188 F4A9          MOV       *(0:0x4082),AL        ; [CPU_ALU] |3998| 
         00000189 4082 
    1065 0000018a F5A9          MOV       AL,*(0:0x4182)        ; [CPU_ALU] |3998| 
         0000018b 4182 
    1066 0000018c CCA9          AND       AL,AL,#0xffe7         ; [CPU_ALU] |3998| 
         0000018d FFE7 
    1067 0000018e 5020          ORB       AL,#0x20              ; [CPU_ALU] |3998| 
    1068 0000018f F4A9          MOV       *(0:0x4182),AL        ; [CPU_ALU] |3998| 
         00000190 4182 
    1069 00000191 F5A9          MOV       AL,*(0:0x4182)        ; [CPU_ALU] |3998| 
         00000192 4182 
    1070 00000193 18A9          AND       AL,#0xf9ff            ; [CPU_ALU] |3998| 
         00000194 F9FF 
    1071 00000195 1AA9          OR        AL,#0x0800            ; [CPU_ALU] |3998| 
         00000196 0800 
    1072 00000197 F4A9          MOV       *(0:0x4182),AL        ; [CPU_ALU] |3998| 
         00000198 4182 
    1073                      .dwpsn  file "C:/Users/ZXC/Documents/mcu project/ti-project/clllc_nonpowerSUITE_F28004x/device/driver
    1074 00000199 F5A9          MOV       AL,*(0:0x4085)        ; [CPU_ALU] |4029| 
         0000019a 4085 
    1075 0000019b 1AA9          OR        AL,#0x8000            ; [CPU_ALU] |4029| 
         0000019c 8000 
    1076 0000019d F4A9          MOV       *(0:0x4085),AL        ; [CPU_ALU] |4029| 
         0000019e 4085 
    1077 0000019f F5A9          MOV       AL,*(0:0x4185)        ; [CPU_ALU] |4029| 
         000001a0 4185 
    1078 000001a1 1AA9          OR        AL,#0x8000            ; [CPU_ALU] |4029| 
         000001a2 8000 
    1079 000001a3 F4A9          MOV       *(0:0x4185),AL        ; [CPU_ALU] |4029| 
         000001a4 4185 
    1080                      .dwpsn  file "../clllc_hal.c",line 1057,column 9,is_stmt,isa 0
    1081 000001a5 28A9          MOV       AL,#65535             ; [CPU_ALU] |1057| 
         000001a6 FFFF 
    1082                      .dwpsn  file "../clllc_hal.c",line 1054,column 9,is_stmt,isa 0
    1083 000001a7 F4A7          MOV       *(0:0x4086),AR7       ; [CPU_ALU] |1054| 
         000001a8 4086 
    1084                      .dwpsn  file "../clllc_hal.c",line 1055,column 9,is_stmt,isa 0
    1085 000001a9 F4A6          MOV       *(0:0x4087),AR6       ; [CPU_ALU] |1055| 
         000001aa 4087 
TMS320C2000 Assembler PC v22.6.0 Mon Sep  2 11:55:45 2024

Copyright (c) 1996-2018 Texas Instruments Incorporated
clllc_hal.asm                                                        PAGE   24

    1086                      .dwpsn  file "../clllc_hal.c",line 1056,column 9,is_stmt,isa 0
    1087 000001ab F4A8          MOV       *(0:0x4186),AH        ; [CPU_ALU] |1056| 
         000001ac 4186 
    1088                      .dwpsn  file "../clllc_hal.c",line 1057,column 9,is_stmt,isa 0
    1089 000001ad F4A9          MOV       *(0:0x4187),AL        ; [CPU_ALU] |1057| 
         000001ae 4187 
    1090                      .dwpsn  file "C:/Users/ZXC/Documents/mcu project/ti-project/clllc_nonpowerSUITE_F28004x/device/driver
    1091 000001af F5A9          MOV       AL,*(0:0x4086)        ; [CPU_ALU] |4219| 
         000001b0 4086 
    1092 000001b1 CCA9          AND       AL,AL,#0xfe3f         ; [CPU_ALU] |4219| 
         000001b2 FE3F 
    1093 000001b3 5080          ORB       AL,#0x80              ; [CPU_ALU] |4219| 
    1094 000001b4 F4A9          MOV       *(0:0x4086),AL        ; [CPU_ALU] |4219| 
         000001b5 4086 
    1095                      .dwpsn  file "C:/Users/ZXC/Documents/mcu project/ti-project/clllc_nonpowerSUITE_F28004x/device/driver
    1096 000001b6 F5A9          MOV       AL,*(0:0x4085)        ; [CPU_ALU] |4223| 
         000001b7 4085 
    1097 000001b8 1AA9          OR        AL,#0x8000            ; [CPU_ALU] |4223| 
         000001b9 8000 
    1098 000001ba F4A9          MOV       *(0:0x4085),AL        ; [CPU_ALU] |4223| 
         000001bb 4085 
    1099                      .dwpsn  file "C:/Users/ZXC/Documents/mcu project/ti-project/clllc_nonpowerSUITE_F28004x/device/driver
    1100 000001bc F5A9          MOV       AL,*(0:0x4087)        ; [CPU_ALU] |4275| 
         000001bd 4087 
    1101 000001be 18A9          AND       AL,#0xf1ff            ; [CPU_ALU] |4275| 
         000001bf F1FF 
    1102 000001c0 1AA9          OR        AL,#0x0400            ; [CPU_ALU] |4275| 
         000001c1 0400 
    1103 000001c2 F4A9          MOV       *(0:0x4087),AL        ; [CPU_ALU] |4275| 
         000001c3 4087 
    1104                      .dwpsn  file "C:/Users/ZXC/Documents/mcu project/ti-project/clllc_nonpowerSUITE_F28004x/device/driver
    1105 000001c4 F5A9          MOV       AL,*(0:0x4085)        ; [CPU_ALU] |4279| 
         000001c5 4085 
    1106 000001c6 1AA9          OR        AL,#0x8000            ; [CPU_ALU] |4279| 
         000001c7 8000 
    1107 000001c8 F4A9          MOV       *(0:0x4085),AL        ; [CPU_ALU] |4279| 
         000001c9 4085 
    1108                      .dwpsn  file "C:/Users/ZXC/Documents/mcu project/ti-project/clllc_nonpowerSUITE_F28004x/device/driver
    1109 000001ca F5A9          MOV       AL,*(0:0x4186)        ; [CPU_ALU] |4219| 
         000001cb 4186 
    1110 000001cc 18A9          AND       AL,#0xf1ff            ; [CPU_ALU] |4219| 
         000001cd F1FF 
    1111 000001ce 1AA9          OR        AL,#0x0400            ; [CPU_ALU] |4219| 
         000001cf 0400 
    1112 000001d0 F4A9          MOV       *(0:0x4186),AL        ; [CPU_ALU] |4219| 
         000001d1 4186 
    1113                      .dwpsn  file "C:/Users/ZXC/Documents/mcu project/ti-project/clllc_nonpowerSUITE_F28004x/device/driver
    1114 000001d2 F5A9          MOV       AL,*(0:0x4185)        ; [CPU_ALU] |4223| 
         000001d3 4185 
    1115 000001d4 1AA9          OR        AL,#0x8000            ; [CPU_ALU] |4223| 
         000001d5 8000 
    1116 000001d6 F4A9          MOV       *(0:0x4185),AL        ; [CPU_ALU] |4223| 
         000001d7 4185 
    1117                      .dwpsn  file "C:/Users/ZXC/Documents/mcu project/ti-project/clllc_nonpowerSUITE_F28004x/device/driver
    1118 000001d8 F5A9          MOV       AL,*(0:0x4187)        ; [CPU_ALU] |4275| 
TMS320C2000 Assembler PC v22.6.0 Mon Sep  2 11:55:45 2024

Copyright (c) 1996-2018 Texas Instruments Incorporated
clllc_hal.asm                                                        PAGE   25

         000001d9 4187 
    1119 000001da CCA9          AND       AL,AL,#0xfe3f         ; [CPU_ALU] |4275| 
         000001db FE3F 
    1120 000001dc 5080          ORB       AL,#0x80              ; [CPU_ALU] |4275| 
    1121 000001dd F4A9          MOV       *(0:0x4187),AL        ; [CPU_ALU] |4275| 
         000001de 4187 
    1122                      .dwpsn  file "C:/Users/ZXC/Documents/mcu project/ti-project/clllc_nonpowerSUITE_F28004x/device/driver
    1123 000001df F5A9          MOV       AL,*(0:0x4185)        ; [CPU_ALU] |4279| 
         000001e0 4185 
    1124 000001e1 1AA9          OR        AL,#0x8000            ; [CPU_ALU] |4279| 
         000001e2 8000 
    1125 000001e3 F4A9          MOV       *(0:0x4185),AL        ; [CPU_ALU] |4279| 
         000001e4 4185 
    1126                      .dwpsn  file "C:/Users/ZXC/Documents/mcu project/ti-project/clllc_nonpowerSUITE_F28004x/device/driver
    1127 000001e5 F5A9          MOV       AL,*(0:0x4097)        ; [CPU_ALU] |4499| 
         000001e6 4097 
    1128 000001e7 18A9          AND       AL,#0x3fff            ; [CPU_ALU] |4499| 
         000001e8 3FFF 
    1129 000001e9 1AA9          OR        AL,#0x8000            ; [CPU_ALU] |4499| 
         000001ea 8000 
    1130 000001eb F4A9          MOV       *(0:0x4097),AL        ; [CPU_ALU] |4499| 
         000001ec 4097 
    1131 000001ed F5A9          MOV       AL,*(0:0x4197)        ; [CPU_ALU] |4499| 
         000001ee 4197 
    1132 000001ef 18A9          AND       AL,#0x3fff            ; [CPU_ALU] |4499| 
         000001f0 3FFF 
    1133 000001f1 1AA9          OR        AL,#0x8000            ; [CPU_ALU] |4499| 
         000001f2 8000 
    1134 000001f3 F4A9          MOV       *(0:0x4197),AL        ; [CPU_ALU] |4499| 
         000001f4 4197 
    1135 000001f5 FFEF          B         ||$C$L5||,UNC         ; [CPU_ALU] 
         000001f6 015A 
    1136                      ; branch occurs ; [] 
    1137 000001f7       ||$C$L4||:    
    1138                      .dwpsn  file "C:/Users/ZXC/Documents/mcu project/ti-project/clllc_nonpowerSUITE_F28004x/device/driver
    1139 000001f7 7622          EALLOW    ; [CPU_ALU] |643| 
    1140                      .dwpsn  file "C:/Users/ZXC/Documents/mcu project/ti-project/clllc_nonpowerSUITE_F28004x/device/driver
    1141 000001f8 8F05          MOVL      XAR4,#382850          ; [CPU_ARAU] |648| 
         000001f9 D782 
    1142 000001fa 06C4          MOVL      ACC,*+XAR4[0]         ; [CPU_ALU] |648| 
    1143 000001fb 18A9          AND       AL,#62463             ; [CPU_ALU] |648| 
         000001fc F3FF 
    1144 000001fd 1AA9          OR        AL,#512               ; [CPU_ALU] |648| 
         000001fe 0200 
    1145 000001ff 1EC4          MOVL      *+XAR4[0],ACC         ; [CPU_ALU] |648| 
    1146                      .dwpsn  file "C:/Users/ZXC/Documents/mcu project/ti-project/clllc_nonpowerSUITE_F28004x/device/driver
    1147 00000200 8F05          MOVL      XAR4,#382852          ; [CPU_ARAU] |687| 
         00000201 D784 
    1148 00000202 06C4          MOVL      ACC,*+XAR4[0]         ; [CPU_ALU] |687| 
    1149 00000203 18A9          AND       AL,#62463             ; [CPU_ALU] |687| 
         00000204 F3FF 
    1150 00000205 1AA9          OR        AL,#512               ; [CPU_ALU] |687| 
         00000206 0200 
    1151 00000207 1EC4          MOVL      *+XAR4[0],ACC         ; [CPU_ALU] |687| 
    1152                      .dwpsn  file "C:/Users/ZXC/Documents/mcu project/ti-project/clllc_nonpowerSUITE_F28004x/device/driver
TMS320C2000 Assembler PC v22.6.0 Mon Sep  2 11:55:45 2024

Copyright (c) 1996-2018 Texas Instruments Incorporated
clllc_hal.asm                                                        PAGE   26

    1153 00000208 F5A9          MOV       AL,*(0:0x5ce0)        ; [CPU_ALU] |258| 
         00000209 5CE0 
    1154 0000020a 1AA9          OR        AL,#0x8000            ; [CPU_ALU] |258| 
         0000020b 8000 
    1155 0000020c F4A9          MOV       *(0:0x5ce0),AL        ; [CPU_ALU] |258| 
         0000020d 5CE0 
    1156                      .dwpsn  file "C:/Users/ZXC/Documents/mcu project/ti-project/clllc_nonpowerSUITE_F28004x/device/driver
    1157 0000020e F5A9          MOV       AL,*(0:0x5ce4)        ; [CPU_ALU] |560| 
         0000020f 5CE4 
    1158 00000210 18A9          AND       AL,#0xff5e            ; [CPU_ALU] |560| 
         00000211 FF5E 
    1159 00000212 F4A9          MOV       *(0:0x5ce4),AL        ; [CPU_ALU] |560| 
         00000213 5CE4 
    1160                      .dwpsn  file "C:/Users/ZXC/Documents/mcu project/ti-project/clllc_nonpowerSUITE_F28004x/device/driver
    1161 00000214 761A          EDIS      ; [CPU_ALU] |564| 
    1162                      .dwpsn  file "C:/Users/ZXC/Documents/mcu project/ti-project/clllc_nonpowerSUITE_F28004x/device/driver
    1163 00000215 28A8          MOV       AH,#2150              ; [CPU_ALU] |594| 
         00000216 0866 
    1164                      .dwpsn  file "C:/Users/ZXC/Documents/mcu project/ti-project/clllc_nonpowerSUITE_F28004x/device/driver
    1165 00000217 28A9          MOV       AL,#1950              ; [CPU_ALU] |624| 
         00000218 079E 
    1166                      .dwpsn  file "C:/Users/ZXC/Documents/mcu project/ti-project/clllc_nonpowerSUITE_F28004x/device/driver
    1167 00000219 F4A8          MOV       *(0:0x5ce6),AH        ; [CPU_ALU] |594| 
         0000021a 5CE6 
    1168                      .dwpsn  file "C:/Users/ZXC/Documents/mcu project/ti-project/clllc_nonpowerSUITE_F28004x/device/driver
    1169 0000021b F4A9          MOV       *(0:0x5cf2),AL        ; [CPU_ALU] |624| 
         0000021c 5CF2 
    1170                      .dwpsn  file "C:/Users/ZXC/Documents/mcu project/ti-project/clllc_nonpowerSUITE_F28004x/device/driver
    1171 0000021d 7622          EALLOW    ; [CPU_ALU] |330| 
    1172                      .dwpsn  file "C:/Users/ZXC/Documents/mcu project/ti-project/clllc_nonpowerSUITE_F28004x/device/driver
    1173 0000021e F5A9          MOV       AL,*(0:0x5ce0)        ; [CPU_ALU] |332| 
         0000021f 5CE0 
    1174 00000220 CCA9          AND       AL,AL,#0xffbe         ; [CPU_ALU] |332| 
         00000221 FFBE 
    1175 00000222 5002          ORB       AL,#0x02              ; [CPU_ALU] |332| 
    1176 00000223 F4A9          MOV       *(0:0x5ce0),AL        ; [CPU_ALU] |332| 
         00000224 5CE0 
    1177                      .dwpsn  file "C:/Users/ZXC/Documents/mcu project/ti-project/clllc_nonpowerSUITE_F28004x/device/driver
    1178 00000225 F5A9          MOV       AL,*(0:0x5ce0)        ; [CPU_ALU] |378| 
         00000226 5CE0 
    1179 00000227 18A9          AND       AL,#0xbcff            ; [CPU_ALU] |378| 
         00000228 BCFF 
    1180 00000229 F4A9          MOV       *(0:0x5ce0),AL        ; [CPU_ALU] |378| 
         0000022a 5CE0 
    1181                      .dwpsn  file "C:/Users/ZXC/Documents/mcu project/ti-project/clllc_nonpowerSUITE_F28004x/device/driver
    1182 0000022b F5A9          MOV       AL,*(0:0x5ce4)        ; [CPU_ALU] |1175| 
         0000022c 5CE4 
    1183 0000022d 18A9          AND       AL,#0xf0ff            ; [CPU_ALU] |1175| 
         0000022e F0FF 
    1184 0000022f 1AA9          OR        AL,#0x0200            ; [CPU_ALU] |1175| 
         00000230 0200 
    1185 00000231 F4A9          MOV       *(0:0x5ce4),AL        ; [CPU_ALU] |1175| 
         00000232 5CE4 
    1186                      .dwpsn  file "C:/Users/ZXC/Documents/mcu project/ti-project/clllc_nonpowerSUITE_F28004x/device/driver
    1187 00000233 F5A9          MOV       AL,*(0:0x5ce4)        ; [CPU_ALU] |1206| 
TMS320C2000 Assembler PC v22.6.0 Mon Sep  2 11:55:45 2024

Copyright (c) 1996-2018 Texas Instruments Incorporated
clllc_hal.asm                                                        PAGE   27

         00000234 5CE4 
    1188 00000235 1AA9          OR        AL,#0x1000            ; [CPU_ALU] |1206| 
         00000236 1000 
    1189 00000237 F4A9          MOV       *(0:0x5ce4),AL        ; [CPU_ALU] |1206| 
         00000238 5CE4 
    1190                      .dwpsn  file "C:/Users/ZXC/Documents/mcu project/ti-project/clllc_nonpowerSUITE_F28004x/device/driver
    1191 00000239 761A          EDIS      ; [CPU_ALU] |1207| 
    1192                      .dwpsn  file "../clllc_hal.c",line 737,column 9,is_stmt,isa 0
    1193 0000023a D501          MOVB      XAR5,#1               ; [CPU_ALU] |737| 
    1194 0000023b D401          MOVB      XAR4,#1               ; [CPU_ALU] |737| 
    1195 0000023c FF20          MOV       ACC,#23776            ; [CPU_ALU] |737| 
         0000023d 5CE0 
    1196              $C$DW$93        .dwtag  DW_TAG_TI_branch
    1197                      .dwattr $C$DW$93, DW_AT_low_pc(0x00)
    1198                      .dwattr $C$DW$93, DW_AT_name("CMPSS_configLatchOnPWMSYNC")
    1199                      .dwattr $C$DW$93, DW_AT_TI_call
    1200              
    1201 0000023e 7640!         LCR       #||CMPSS_configLatchOnPWMSYNC|| ; [CPU_ALU] |737| 
         0000023f 0000 
    1202                      ; call occurs [#||CMPSS_configLatchOnPWMSYNC||] ; [] |737| 
    1203                      .dwpsn  file "../clllc_hal.c",line 739,column 9,is_stmt,isa 0
    1204 00000240 7622          EALLOW    ; [CPU_ALU] |739| 
    1205                      .dwpsn  file "../clllc_hal.c",line 740,column 9,is_stmt,isa 0
    1206 00000241 F5A9          MOV       AL,*(0:0x5ce4)        ; [CPU_ALU] |740| 
         00000242 5CE4 
    1207 00000243 501E          ORB       AL,#0x1e              ; [CPU_ALU] |740| 
    1208 00000244 F4A9          MOV       *(0:0x5ce4),AL        ; [CPU_ALU] |740| 
         00000245 5CE4 
    1209                      .dwpsn  file "../clllc_hal.c",line 741,column 9,is_stmt,isa 0
    1210 00000246 761A          EDIS      ; [CPU_ALU] |741| 
    1211                      .dwpsn  file "../clllc_hal.c",line 746,column 9,is_stmt,isa 0
    1212 00000247 56BF          MOVB      *-SP[1],#1,UNC        ; [CPU_ALU] |746| 
         00000248 0141 
    1213 00000249 D400          MOVB      XAR4,#0               ; [CPU_ALU] |746| 
    1214 0000024a D501          MOVB      XAR5,#1               ; [CPU_ALU] |746| 
    1215 0000024b FF20          MOV       ACC,#23776            ; [CPU_ALU] |746| 
         0000024c 5CE0 
    1216              $C$DW$94        .dwtag  DW_TAG_TI_branch
    1217                      .dwattr $C$DW$94, DW_AT_low_pc(0x00)
    1218                      .dwattr $C$DW$94, DW_AT_name("CMPSS_configFilterHigh")
    1219                      .dwattr $C$DW$94, DW_AT_TI_call
    1220              
    1221 0000024d 7640!         LCR       #||CMPSS_configFilterHigh|| ; [CPU_ALU] |746| 
         0000024e 0000 
    1222                      ; call occurs [#||CMPSS_configFilterHigh||] ; [] |746| 
    1223                      .dwpsn  file "../clllc_hal.c",line 747,column 9,is_stmt,isa 0
    1224 0000024f 56BF          MOVB      *-SP[1],#1,UNC        ; [CPU_ALU] |747| 
         00000250 0141 
    1225 00000251 D400          MOVB      XAR4,#0               ; [CPU_ALU] |747| 
    1226 00000252 D501          MOVB      XAR5,#1               ; [CPU_ALU] |747| 
    1227 00000253 FF20          MOV       ACC,#23776            ; [CPU_ALU] |747| 
         00000254 5CE0 
    1228              $C$DW$95        .dwtag  DW_TAG_TI_branch
    1229                      .dwattr $C$DW$95, DW_AT_low_pc(0x00)
    1230                      .dwattr $C$DW$95, DW_AT_name("CMPSS_configFilterLow")
TMS320C2000 Assembler PC v22.6.0 Mon Sep  2 11:55:45 2024

Copyright (c) 1996-2018 Texas Instruments Incorporated
clllc_hal.asm                                                        PAGE   28

    1231                      .dwattr $C$DW$95, DW_AT_TI_call
    1232              
    1233 00000255 7640!         LCR       #||CMPSS_configFilterLow|| ; [CPU_ALU] |747| 
         00000256 0000 
    1234                      ; call occurs [#||CMPSS_configFilterLow||] ; [] |747| 
    1235                      .dwpsn  file "C:/Users/ZXC/Documents/mcu project/ti-project/clllc_nonpowerSUITE_F28004x/device/driver
    1236 00000257 7622          EALLOW    ; [CPU_ALU] |653| 
    1237                      .dwpsn  file "C:/Users/ZXC/Documents/mcu project/ti-project/clllc_nonpowerSUITE_F28004x/device/driver
    1238 00000258 F5A9          MOV       AL,*(0:0x5cf8)        ; [CPU_ALU] |655| 
         00000259 5CF8 
    1239 0000025a 1AA9          OR        AL,#0x8000            ; [CPU_ALU] |655| 
         0000025b 8000 
    1240 0000025c F4A9          MOV       *(0:0x5cf8),AL        ; [CPU_ALU] |655| 
         0000025d 5CF8 
    1241                      .dwpsn  file "C:/Users/ZXC/Documents/mcu project/ti-project/clllc_nonpowerSUITE_F28004x/device/driver
    1242 0000025e F5A9          MOV       AL,*(0:0x5cf6)        ; [CPU_ALU] |688| 
         0000025f 5CF6 
    1243 00000260 1AA9          OR        AL,#0x8000            ; [CPU_ALU] |688| 
         00000261 8000 
    1244 00000262 F4A9          MOV       *(0:0x5cf6),AL        ; [CPU_ALU] |688| 
         00000263 5CF6 
    1245                      .dwpsn  file "C:/Users/ZXC/Documents/mcu project/ti-project/clllc_nonpowerSUITE_F28004x/device/driver
    1246 00000264 F5A9          MOV       AL,*(0:0x5ce0)        ; [CPU_ALU] |425| 
         00000265 5CE0 
    1247 00000266 503C          ORB       AL,#0x3c              ; [CPU_ALU] |425| 
    1248 00000267 F4A9          MOV       *(0:0x5ce0),AL        ; [CPU_ALU] |425| 
         00000268 5CE0 
    1249                      .dwpsn  file "C:/Users/ZXC/Documents/mcu project/ti-project/clllc_nonpowerSUITE_F28004x/device/driver
    1250 00000269 F5A9          MOV       AL,*(0:0x5ce0)        ; [CPU_ALU] |474| 
         0000026a 5CE0 
    1251 0000026b 1AA9          OR        AL,#0x3c00            ; [CPU_ALU] |474| 
         0000026c 3C00 
    1252 0000026d F4A9          MOV       *(0:0x5ce0),AL        ; [CPU_ALU] |474| 
         0000026e 5CE0 
    1253                      .dwpsn  file "C:/Users/ZXC/Documents/mcu project/ti-project/clllc_nonpowerSUITE_F28004x/device/driver
    1254 0000026f 9A02          MOVB      AL,#2                 ; [CPU_ALU] |1031| 
    1255 00000270 F4A9          MOV       *(0:0x5ce1),AL        ; [CPU_ALU] |1031| 
         00000271 5CE1 
    1256                      .dwpsn  file "C:/Users/ZXC/Documents/mcu project/ti-project/clllc_nonpowerSUITE_F28004x/device/driver
    1257 00000272 F5A9          MOV       AL,*(0:0x5ce3)        ; [CPU_ALU] |772| 
         00000273 5CE3 
    1258 00000274 5002          ORB       AL,#0x02              ; [CPU_ALU] |772| 
    1259 00000275 F4A9          MOV       *(0:0x5ce3),AL        ; [CPU_ALU] |772| 
         00000276 5CE3 
    1260                      .dwpsn  file "C:/Users/ZXC/Documents/mcu project/ti-project/clllc_nonpowerSUITE_F28004x/device/driver
    1261 00000277 F5A9          MOV       AL,*(0:0x5ce3)        ; [CPU_ALU] |802| 
         00000278 5CE3 
    1262 00000279 1AA9          OR        AL,#0x0200            ; [CPU_ALU] |802| 
         0000027a 0200 
    1263 0000027b F4A9          MOV       *(0:0x5ce3),AL        ; [CPU_ALU] |802| 
         0000027c 5CE3 
    1264                      .dwpsn  file "C:/Users/ZXC/Documents/mcu project/ti-project/clllc_nonpowerSUITE_F28004x/device/driver
    1265 0000027d 761A          EDIS      ; [CPU_ALU] |804| 
    1266                      .dwpsn  file "../clllc_hal.c",line 772,column 9,is_stmt,isa 0
    1267 0000027e 28A8          MOV       AH,#3072              ; [CPU_ALU] |772| 
TMS320C2000 Assembler PC v22.6.0 Mon Sep  2 11:55:45 2024

Copyright (c) 1996-2018 Texas Instruments Incorporated
clllc_hal.asm                                                        PAGE   29

         0000027f 0C00 
    1268 00000280 9A02          MOVB      AL,#2                 ; [CPU_ALU] |772| 
    1269              $C$DW$96        .dwtag  DW_TAG_TI_branch
    1270                      .dwattr $C$DW$96, DW_AT_low_pc(0x00)
    1271                      .dwattr $C$DW$96, DW_AT_name("XBAR_setEPWMMuxConfig")
    1272                      .dwattr $C$DW$96, DW_AT_TI_call
    1273              
    1274 00000281 7640!         LCR       #||XBAR_setEPWMMuxConfig|| ; [CPU_ALU] |772| 
         00000282 0000 
    1275                      ; call occurs [#||XBAR_setEPWMMuxConfig||] ; [] |772| 
    1276                      .dwpsn  file "C:\Users\ZXC\Documents\mcu project\ti-project\clllc_nonpowerSUITE_F28004x\device\driver
    1277 00000283 7622          EALLOW    ; [CPU_ALU] |856| 
    1278                      .dwpsn  file "C:\Users\ZXC\Documents\mcu project\ti-project\clllc_nonpowerSUITE_F28004x\device\driver
    1279 00000284 BFA9          MOV32     ACC,*(0:0x7a22)       ; [CPU_FPU] |858| 
         00000285 7A22 
    1280 00000286 5040          ORB       AL,#0x40              ; [CPU_ALU] |858| 
    1281 00000287 BDA9          MOV32     *(0:0x7a22),ACC       ; [CPU_FPU] |858| 
         00000288 7A22 
    1282                      .dwpsn  file "C:\Users\ZXC\Documents\mcu project\ti-project\clllc_nonpowerSUITE_F28004x\device\driver
    1283 00000289 761A          EDIS      ; [CPU_ALU] |859| 
    1284                      .dwpsn  file "../clllc_hal.c",line 777,column 9,is_stmt,isa 0
    1285 0000028a 9A04          MOVB      AL,#4                 ; [CPU_ALU] |777| 
    1286 0000028b 28A8          MOV       AH,#3584              ; [CPU_ALU] |777| 
         0000028c 0E00 
    1287              $C$DW$97        .dwtag  DW_TAG_TI_branch
    1288                      .dwattr $C$DW$97, DW_AT_low_pc(0x00)
    1289                      .dwattr $C$DW$97, DW_AT_name("XBAR_setEPWMMuxConfig")
    1290                      .dwattr $C$DW$97, DW_AT_TI_call
    1291              
    1292 0000028d 7640!         LCR       #||XBAR_setEPWMMuxConfig|| ; [CPU_ALU] |777| 
         0000028e 0000 
    1293                      ; call occurs [#||XBAR_setEPWMMuxConfig||] ; [] |777| 
    1294                      .dwpsn  file "C:\Users\ZXC\Documents\mcu project\ti-project\clllc_nonpowerSUITE_F28004x\device\driver
    1295 0000028f 7622          EALLOW    ; [CPU_ALU] |856| 
    1296                      .dwpsn  file "C:\Users\ZXC\Documents\mcu project\ti-project\clllc_nonpowerSUITE_F28004x\device\driver
    1297 00000290 BFA9          MOV32     ACC,*(0:0x7a24)       ; [CPU_FPU] |858| 
         00000291 7A24 
    1298 00000292 5080          ORB       AL,#0x80              ; [CPU_ALU] |858| 
    1299 00000293 BDA9          MOV32     *(0:0x7a24),ACC       ; [CPU_FPU] |858| 
         00000294 7A24 
    1300                      .dwpsn  file "C:\Users\ZXC\Documents\mcu project\ti-project\clllc_nonpowerSUITE_F28004x\device\driver
    1301 00000295 761A          EDIS      ; [CPU_ALU] |859| 
    1302                      .dwpsn  file "../clllc_hal.c",line 782,column 9,is_stmt,isa 0
    1303 00000296 9A07          MOVB      AL,#7                 ; [CPU_ALU] |782| 
    1304              $C$DW$98        .dwtag  DW_TAG_TI_branch
    1305                      .dwattr $C$DW$98, DW_AT_low_pc(0x00)
    1306                      .dwattr $C$DW$98, DW_AT_name("XBAR_clearInputFlag")
    1307                      .dwattr $C$DW$98, DW_AT_TI_call
    1308              
    1309 00000297 7640!         LCR       #||XBAR_clearInputFlag|| ; [CPU_ALU] |782| 
         00000298 0000 
    1310                      ; call occurs [#||XBAR_clearInputFlag||] ; [] |782| 
    1311                      .dwpsn  file "../clllc_hal.c",line 783,column 9,is_stmt,isa 0
    1312 00000299 9A06          MOVB      AL,#6                 ; [CPU_ALU] |783| 
    1313              $C$DW$99        .dwtag  DW_TAG_TI_branch
TMS320C2000 Assembler PC v22.6.0 Mon Sep  2 11:55:45 2024

Copyright (c) 1996-2018 Texas Instruments Incorporated
clllc_hal.asm                                                        PAGE   30

    1314                      .dwattr $C$DW$99, DW_AT_low_pc(0x00)
    1315                      .dwattr $C$DW$99, DW_AT_name("XBAR_clearInputFlag")
    1316                      .dwattr $C$DW$99, DW_AT_TI_call
    1317              
    1318 0000029a 7640!         LCR       #||XBAR_clearInputFlag|| ; [CPU_ALU] |783| 
         0000029b 0000 
    1319                      ; call occurs [#||XBAR_clearInputFlag||] ; [] |783| 
    1320                      .dwpsn  file "C:/Users/ZXC/Documents/mcu project/ti-project/clllc_nonpowerSUITE_F28004x/device/driver
    1321 0000029c 7622          EALLOW    ; [CPU_ALU] |5776| 
    1322                      .dwpsn  file "C:/Users/ZXC/Documents/mcu project/ti-project/clllc_nonpowerSUITE_F28004x/device/driver
    1323 0000029d F5A9          MOV       AL,*(0:0x42c7)        ; [CPU_ALU] |5777| 
         0000029e 42C7 
    1324 0000029f CCA9          AND       AL,AL,#0xffef         ; [CPU_ALU] |5777| 
         000002a0 FFEF 
    1325 000002a1 5020          ORB       AL,#0x20              ; [CPU_ALU] |5777| 
    1326 000002a2 F4A9          MOV       *(0:0x42c7),AL        ; [CPU_ALU] |5777| 
         000002a3 42C7 
    1327                      .dwpsn  file "C:/Users/ZXC/Documents/mcu project/ti-project/clllc_nonpowerSUITE_F28004x/device/driver
    1328 000002a4 761A          EDIS      ; [CPU_ALU] |5780| 
    1329                      .dwpsn  file "C:/Users/ZXC/Documents/mcu project/ti-project/clllc_nonpowerSUITE_F28004x/device/driver
    1330 000002a5 9B00          MOVB      AH,#0                 ; [CPU_ALU] |6031| 
    1331                      .dwpsn  file "C:/Users/ZXC/Documents/mcu project/ti-project/clllc_nonpowerSUITE_F28004x/device/driver
    1332 000002a6 9A19          MOVB      AL,#25                ; [CPU_ALU] |6058| 
    1333                      .dwpsn  file "C:/Users/ZXC/Documents/mcu project/ti-project/clllc_nonpowerSUITE_F28004x/device/driver
    1334 000002a7 F4A8          MOV       *(0:0x42c9),AH        ; [CPU_ALU] |6031| 
         000002a8 42C9 
    1335                      .dwpsn  file "C:/Users/ZXC/Documents/mcu project/ti-project/clllc_nonpowerSUITE_F28004x/device/driver
    1336 000002a9 F4A9          MOV       *(0:0x42cb),AL        ; [CPU_ALU] |6058| 
         000002aa 42CB 
    1337                      .dwpsn  file "C:/Users/ZXC/Documents/mcu project/ti-project/clllc_nonpowerSUITE_F28004x/device/driver
    1338 000002ab 7622          EALLOW    ; [CPU_ALU] |5659| 
    1339                      .dwpsn  file "C:/Users/ZXC/Documents/mcu project/ti-project/clllc_nonpowerSUITE_F28004x/device/driver
    1340 000002ac F5A9          MOV       AL,*(0:0x42c7)        ; [CPU_ALU] |5660| 
         000002ad 42C7 
    1341 000002ae 5004          ORB       AL,#0x04              ; [CPU_ALU] |5660| 
    1342 000002af F4A9          MOV       *(0:0x42c7),AL        ; [CPU_ALU] |5660| 
         000002b0 42C7 
    1343                      .dwpsn  file "../clllc_hal.c",line 853,column 9,is_stmt,isa 0
    1344 000002b1 76C0          MOVL      XAR7,#65535           ; [CPU_ALU] |853| 
         000002b2 FFFF 
    1345                      .dwpsn  file "../clllc_hal.c",line 854,column 9,is_stmt,isa 0
    1346 000002b3 7680          MOVL      XAR6,#65535           ; [CPU_ALU] |854| 
         000002b4 FFFF 
    1347                      .dwpsn  file "../clllc_hal.c",line 855,column 9,is_stmt,isa 0
    1348 000002b5 28A8          MOV       AH,#65535             ; [CPU_ALU] |855| 
         000002b6 FFFF 
    1349                      .dwpsn  file "C:/Users/ZXC/Documents/mcu project/ti-project/clllc_nonpowerSUITE_F28004x/device/driver
    1350 000002b7 F5A9          MOV       AL,*(0:0x42c0)        ; [CPU_ALU] |5628| 
         000002b8 42C0 
    1351 000002b9 CCA9          AND       AL,AL,#0xff0f         ; [CPU_ALU] |5628| 
         000002ba FF0F 
    1352 000002bb 5040          ORB       AL,#0x40              ; [CPU_ALU] |5628| 
    1353 000002bc F4A9          MOV       *(0:0x42c0),AL        ; [CPU_ALU] |5628| 
         000002bd 42C0 
    1354 000002be F5A9          MOV       AL,*(0:0x42c0)        ; [CPU_ALU] |5628| 
TMS320C2000 Assembler PC v22.6.0 Mon Sep  2 11:55:45 2024

Copyright (c) 1996-2018 Texas Instruments Incorporated
clllc_hal.asm                                                        PAGE   31

         000002bf 42C0 
    1355 000002c0 18A9          AND       AL,#0x0fff            ; [CPU_ALU] |5628| 
         000002c1 0FFF 
    1356 000002c2 1AA9          OR        AL,#0x6000            ; [CPU_ALU] |5628| 
         000002c3 6000 
    1357 000002c4 F4A9          MOV       *(0:0x42c0),AL        ; [CPU_ALU] |5628| 
         000002c5 42C0 
    1358 000002c6 F5A9          MOV       AL,*(0:0x43c0)        ; [CPU_ALU] |5628| 
         000002c7 43C0 
    1359 000002c8 CCA9          AND       AL,AL,#0xff0f         ; [CPU_ALU] |5628| 
         000002c9 FF0F 
    1360 000002ca 5060          ORB       AL,#0x60              ; [CPU_ALU] |5628| 
    1361 000002cb F4A9          MOV       *(0:0x43c0),AL        ; [CPU_ALU] |5628| 
         000002cc 43C0 
    1362 000002cd F5A9          MOV       AL,*(0:0x43c0)        ; [CPU_ALU] |5628| 
         000002ce 43C0 
    1363 000002cf 18A9          AND       AL,#0x0fff            ; [CPU_ALU] |5628| 
         000002d0 0FFF 
    1364 000002d1 1AA9          OR        AL,#0x4000            ; [CPU_ALU] |5628| 
         000002d2 4000 
    1365 000002d3 F4A9          MOV       *(0:0x43c0),AL        ; [CPU_ALU] |5628| 
         000002d4 43C0 
    1366                      .dwpsn  file "C:/Users/ZXC/Documents/mcu project/ti-project/clllc_nonpowerSUITE_F28004x/device/driver
    1367 000002d5 F5A9          MOV       AL,*(0:0x4282)        ; [CPU_ALU] |3998| 
         000002d6 4282 
    1368 000002d7 CCA9          AND       AL,AL,#0xffe7         ; [CPU_ALU] |3998| 
         000002d8 FFE7 
    1369 000002d9 5020          ORB       AL,#0x20              ; [CPU_ALU] |3998| 
    1370 000002da F4A9          MOV       *(0:0x4282),AL        ; [CPU_ALU] |3998| 
         000002db 4282 
    1371 000002dc F5A9          MOV       AL,*(0:0x4282)        ; [CPU_ALU] |3998| 
         000002dd 4282 
    1372 000002de 18A9          AND       AL,#0xf9ff            ; [CPU_ALU] |3998| 
         000002df F9FF 
    1373 000002e0 1AA9          OR        AL,#0x0800            ; [CPU_ALU] |3998| 
         000002e1 0800 
    1374 000002e2 F4A9          MOV       *(0:0x4282),AL        ; [CPU_ALU] |3998| 
         000002e3 4282 
    1375 000002e4 F5A9          MOV       AL,*(0:0x4382)        ; [CPU_ALU] |3998| 
         000002e5 4382 
    1376 000002e6 CCA9          AND       AL,AL,#0xffe7         ; [CPU_ALU] |3998| 
         000002e7 FFE7 
    1377 000002e8 5020          ORB       AL,#0x20              ; [CPU_ALU] |3998| 
    1378 000002e9 F4A9          MOV       *(0:0x4382),AL        ; [CPU_ALU] |3998| 
         000002ea 4382 
    1379 000002eb F5A9          MOV       AL,*(0:0x4382)        ; [CPU_ALU] |3998| 
         000002ec 4382 
    1380 000002ed 18A9          AND       AL,#0xf9ff            ; [CPU_ALU] |3998| 
         000002ee F9FF 
    1381 000002ef 1AA9          OR        AL,#0x0800            ; [CPU_ALU] |3998| 
         000002f0 0800 
    1382 000002f1 F4A9          MOV       *(0:0x4382),AL        ; [CPU_ALU] |3998| 
         000002f2 4382 
    1383                      .dwpsn  file "C:/Users/ZXC/Documents/mcu project/ti-project/clllc_nonpowerSUITE_F28004x/device/driver
    1384 000002f3 F5A9          MOV       AL,*(0:0x4285)        ; [CPU_ALU] |4029| 
TMS320C2000 Assembler PC v22.6.0 Mon Sep  2 11:55:45 2024

Copyright (c) 1996-2018 Texas Instruments Incorporated
clllc_hal.asm                                                        PAGE   32

         000002f4 4285 
    1385 000002f5 1AA9          OR        AL,#0x8000            ; [CPU_ALU] |4029| 
         000002f6 8000 
    1386 000002f7 F4A9          MOV       *(0:0x4285),AL        ; [CPU_ALU] |4029| 
         000002f8 4285 
    1387 000002f9 F5A9          MOV       AL,*(0:0x4385)        ; [CPU_ALU] |4029| 
         000002fa 4385 
    1388 000002fb 1AA9          OR        AL,#0x8000            ; [CPU_ALU] |4029| 
         000002fc 8000 
    1389 000002fd F4A9          MOV       *(0:0x4385),AL        ; [CPU_ALU] |4029| 
         000002fe 4385 
    1390                      .dwpsn  file "../clllc_hal.c",line 856,column 9,is_stmt,isa 0
    1391 000002ff 28A9          MOV       AL,#65535             ; [CPU_ALU] |856| 
         00000300 FFFF 
    1392                      .dwpsn  file "../clllc_hal.c",line 853,column 9,is_stmt,isa 0
    1393 00000301 F4A7          MOV       *(0:0x4286),AR7       ; [CPU_ALU] |853| 
         00000302 4286 
    1394                      .dwpsn  file "../clllc_hal.c",line 854,column 9,is_stmt,isa 0
    1395 00000303 F4A6          MOV       *(0:0x4287),AR6       ; [CPU_ALU] |854| 
         00000304 4287 
    1396                      .dwpsn  file "../clllc_hal.c",line 855,column 9,is_stmt,isa 0
    1397 00000305 F4A8          MOV       *(0:0x4386),AH        ; [CPU_ALU] |855| 
         00000306 4386 
    1398                      .dwpsn  file "../clllc_hal.c",line 856,column 9,is_stmt,isa 0
    1399 00000307 F4A9          MOV       *(0:0x4387),AL        ; [CPU_ALU] |856| 
         00000308 4387 
    1400                      .dwpsn  file "C:/Users/ZXC/Documents/mcu project/ti-project/clllc_nonpowerSUITE_F28004x/device/driver
    1401 00000309 F5A9          MOV       AL,*(0:0x4286)        ; [CPU_ALU] |4219| 
         0000030a 4286 
    1402 0000030b 18A9          AND       AL,#0xf1ff            ; [CPU_ALU] |4219| 
         0000030c F1FF 
    1403 0000030d 1AA9          OR        AL,#0x0400            ; [CPU_ALU] |4219| 
         0000030e 0400 
    1404 0000030f F4A9          MOV       *(0:0x4286),AL        ; [CPU_ALU] |4219| 
         00000310 4286 
    1405                      .dwpsn  file "C:/Users/ZXC/Documents/mcu project/ti-project/clllc_nonpowerSUITE_F28004x/device/driver
    1406 00000311 F5A9          MOV       AL,*(0:0x4285)        ; [CPU_ALU] |4223| 
         00000312 4285 
    1407 00000313 1AA9          OR        AL,#0x8000            ; [CPU_ALU] |4223| 
         00000314 8000 
    1408 00000315 F4A9          MOV       *(0:0x4285),AL        ; [CPU_ALU] |4223| 
         00000316 4285 
    1409                      .dwpsn  file "C:/Users/ZXC/Documents/mcu project/ti-project/clllc_nonpowerSUITE_F28004x/device/driver
    1410 00000317 F5A9          MOV       AL,*(0:0x4287)        ; [CPU_ALU] |4275| 
         00000318 4287 
    1411 00000319 CCA9          AND       AL,AL,#0xfe3f         ; [CPU_ALU] |4275| 
         0000031a FE3F 
    1412 0000031b 5080          ORB       AL,#0x80              ; [CPU_ALU] |4275| 
    1413 0000031c F4A9          MOV       *(0:0x4287),AL        ; [CPU_ALU] |4275| 
         0000031d 4287 
    1414                      .dwpsn  file "C:/Users/ZXC/Documents/mcu project/ti-project/clllc_nonpowerSUITE_F28004x/device/driver
    1415 0000031e F5A9          MOV       AL,*(0:0x4285)        ; [CPU_ALU] |4279| 
         0000031f 4285 
    1416 00000320 1AA9          OR        AL,#0x8000            ; [CPU_ALU] |4279| 
         00000321 8000 
TMS320C2000 Assembler PC v22.6.0 Mon Sep  2 11:55:45 2024

Copyright (c) 1996-2018 Texas Instruments Incorporated
clllc_hal.asm                                                        PAGE   33

    1417 00000322 F4A9          MOV       *(0:0x4285),AL        ; [CPU_ALU] |4279| 
         00000323 4285 
    1418                      .dwpsn  file "C:/Users/ZXC/Documents/mcu project/ti-project/clllc_nonpowerSUITE_F28004x/device/driver
    1419 00000324 F5A9          MOV       AL,*(0:0x4386)        ; [CPU_ALU] |4219| 
         00000325 4386 
    1420 00000326 CCA9          AND       AL,AL,#0xfe3f         ; [CPU_ALU] |4219| 
         00000327 FE3F 
    1421 00000328 5080          ORB       AL,#0x80              ; [CPU_ALU] |4219| 
    1422 00000329 F4A9          MOV       *(0:0x4386),AL        ; [CPU_ALU] |4219| 
         0000032a 4386 
    1423                      .dwpsn  file "C:/Users/ZXC/Documents/mcu project/ti-project/clllc_nonpowerSUITE_F28004x/device/driver
    1424 0000032b F5A9          MOV       AL,*(0:0x4385)        ; [CPU_ALU] |4223| 
         0000032c 4385 
    1425 0000032d 1AA9          OR        AL,#0x8000            ; [CPU_ALU] |4223| 
         0000032e 8000 
    1426 0000032f F4A9          MOV       *(0:0x4385),AL        ; [CPU_ALU] |4223| 
         00000330 4385 
    1427                      .dwpsn  file "C:/Users/ZXC/Documents/mcu project/ti-project/clllc_nonpowerSUITE_F28004x/device/driver
    1428 00000331 F5A9          MOV       AL,*(0:0x4387)        ; [CPU_ALU] |4275| 
         00000332 4387 
    1429 00000333 18A9          AND       AL,#0xf1ff            ; [CPU_ALU] |4275| 
         00000334 F1FF 
    1430 00000335 1AA9          OR        AL,#0x0400            ; [CPU_ALU] |4275| 
         00000336 0400 
    1431 00000337 F4A9          MOV       *(0:0x4387),AL        ; [CPU_ALU] |4275| 
         00000338 4387 
    1432                      .dwpsn  file "C:/Users/ZXC/Documents/mcu project/ti-project/clllc_nonpowerSUITE_F28004x/device/driver
    1433 00000339 F5A9          MOV       AL,*(0:0x4385)        ; [CPU_ALU] |4279| 
         0000033a 4385 
    1434 0000033b 1AA9          OR        AL,#0x8000            ; [CPU_ALU] |4279| 
         0000033c 8000 
    1435 0000033d F4A9          MOV       *(0:0x4385),AL        ; [CPU_ALU] |4279| 
         0000033e 4385 
    1436                      .dwpsn  file "C:/Users/ZXC/Documents/mcu project/ti-project/clllc_nonpowerSUITE_F28004x/device/driver
    1437 0000033f F5A9          MOV       AL,*(0:0x4297)        ; [CPU_ALU] |4499| 
         00000340 4297 
    1438 00000341 18A9          AND       AL,#0x3fff            ; [CPU_ALU] |4499| 
         00000342 3FFF 
    1439 00000343 1AA9          OR        AL,#0x8000            ; [CPU_ALU] |4499| 
         00000344 8000 
    1440 00000345 F4A9          MOV       *(0:0x4297),AL        ; [CPU_ALU] |4499| 
         00000346 4297 
    1441 00000347 F5A9          MOV       AL,*(0:0x4397)        ; [CPU_ALU] |4499| 
         00000348 4397 
    1442 00000349 18A9          AND       AL,#0x3fff            ; [CPU_ALU] |4499| 
         0000034a 3FFF 
    1443 0000034b 1AA9          OR        AL,#0x8000            ; [CPU_ALU] |4499| 
         0000034c 8000 
    1444 0000034d F4A9          MOV       *(0:0x4397),AL        ; [CPU_ALU] |4499| 
         0000034e 4397 
    1445 0000034f       ||$C$L5||:    
    1446                      .dwpsn  file "C:/Users/ZXC/Documents/mcu project/ti-project/clllc_nonpowerSUITE_F28004x/device/driver
    1447 0000034f 761A          EDIS      ; [CPU_ALU] |4502| 
    1448 00000350       ||$C$L6||:    
    1449 00000350 FE82          SUBB      SP,#2                 ; [CPU_ARAU] 
TMS320C2000 Assembler PC v22.6.0 Mon Sep  2 11:55:45 2024

Copyright (c) 1996-2018 Texas Instruments Incorporated
clllc_hal.asm                                                        PAGE   34

    1450                      .dwcfi  cfa_offset, -2
    1451              $C$DW$100       .dwtag  DW_TAG_TI_branch
    1452                      .dwattr $C$DW$100, DW_AT_low_pc(0x00)
    1453                      .dwattr $C$DW$100, DW_AT_TI_return
    1454              
    1455 00000351 0006          LRETR     ; [CPU_ALU] 
    1456                      ; return occurs ; [] 
    1457                      .dwattr $C$DW$83, DW_AT_TI_end_file("../clllc_hal.c")
    1458                      .dwattr $C$DW$83, DW_AT_TI_end_line(0x449)
    1459                      .dwattr $C$DW$83, DW_AT_TI_end_column(0x01)
    1460                      .dwendentry
    1461                      .dwendtag $C$DW$83
    1462              
    1463 00000352               .sect   ".text"
    1464                      .clink
    1465                      .global ||CLLLC_HAL_setupSCI||
    1466              
    1467              $C$DW$101       .dwtag  DW_TAG_subprogram
    1468                      .dwattr $C$DW$101, DW_AT_name("CLLLC_HAL_setupSCI")
    1469                      .dwattr $C$DW$101, DW_AT_low_pc(||CLLLC_HAL_setupSCI||)
    1470                      .dwattr $C$DW$101, DW_AT_high_pc(0x00)
    1471                      .dwattr $C$DW$101, DW_AT_linkage_name("CLLLC_HAL_setupSCI")
    1472                      .dwattr $C$DW$101, DW_AT_external
    1473                      .dwattr $C$DW$101, DW_AT_decl_file("../clllc_hal.c")
    1474                      .dwattr $C$DW$101, DW_AT_decl_line(0x4d5)
    1475                      .dwattr $C$DW$101, DW_AT_decl_column(0x06)
    1476                      .dwattr $C$DW$101, DW_AT_TI_max_frame_size(-8)
    1477                      .dwpsn  file "../clllc_hal.c",line 1238,column 1,is_stmt,address ||CLLLC_HAL_setupSCI||,isa 0
    1478              
    1479                      .dwfde $C$DW$CIE, ||CLLLC_HAL_setupSCI||
    1480              
    1481              ;***************************************************************
    1482              ;* FNAME: CLLLC_HAL_setupSCI            FR SIZE:   6           *
    1483              ;*                                                             *
    1484              ;* FUNCTION ENVIRONMENT                                        *
    1485              ;*                                                             *
    1486              ;* FUNCTION PROPERTIES                                         *
    1487              ;*                            6 Parameter,  0 Auto,  0 SOE     *
    1488              ;***************************************************************
    1489              
    1490 00000352       ||CLLLC_HAL_setupSCI||:
    1491                      .dwcfi  cfa_offset, -2
    1492                      .dwcfi  save_reg_to_mem, 26, 0
    1493 00000352 FE06          ADDB      SP,#6                 ; [CPU_ARAU] 
    1494                      .dwcfi  cfa_offset, -8
    1495                      .dwpsn  file "../clllc_hal.c",line 1242,column 5,is_stmt,isa 0
    1496 00000353 8F08          MOVL      XAR4,#530433          ; [CPU_ARAU] |1242| 
         00000354 1801 
    1497 00000355 A8A9          MOVL      ACC,XAR4              ; [CPU_ALU] |1242| 
    1498              $C$DW$102       .dwtag  DW_TAG_TI_branch
    1499                      .dwattr $C$DW$102, DW_AT_low_pc(0x00)
    1500                      .dwattr $C$DW$102, DW_AT_name("GPIO_setPinConfig")
    1501                      .dwattr $C$DW$102, DW_AT_TI_call
    1502              
    1503 00000356 7640!         LCR       #||GPIO_setPinConfig|| ; [CPU_ALU] |1242| 
TMS320C2000 Assembler PC v22.6.0 Mon Sep  2 11:55:45 2024

Copyright (c) 1996-2018 Texas Instruments Incorporated
clllc_hal.asm                                                        PAGE   35

         00000357 0000 
    1504                      ; call occurs [#||GPIO_setPinConfig||] ; [] |1242| 
    1505                      .dwpsn  file "../clllc_hal.c",line 1243,column 5,is_stmt,isa 0
    1506 00000358 8F08          MOVL      XAR4,#530945          ; [CPU_ARAU] |1243| 
         00000359 1A01 
    1507 0000035a A8A9          MOVL      ACC,XAR4              ; [CPU_ALU] |1243| 
    1508              $C$DW$103       .dwtag  DW_TAG_TI_branch
    1509                      .dwattr $C$DW$103, DW_AT_low_pc(0x00)
    1510                      .dwattr $C$DW$103, DW_AT_name("GPIO_setPinConfig")
    1511                      .dwattr $C$DW$103, DW_AT_TI_call
    1512              
    1513 0000035b 7640!         LCR       #||GPIO_setPinConfig|| ; [CPU_ALU] |1243| 
         0000035c 0000 
    1514                      ; call occurs [#||GPIO_setPinConfig||] ; [] |1243| 
    1515                      .dwpsn  file "../clllc_hal.c",line 1244,column 5,is_stmt,isa 0
    1516 0000035d D403          MOVB      XAR4,#3               ; [CPU_ALU] |1244| 
    1517 0000035e 021C          MOVB      ACC,#28               ; [CPU_ALU] |1244| 
    1518              $C$DW$104       .dwtag  DW_TAG_TI_branch
    1519                      .dwattr $C$DW$104, DW_AT_low_pc(0x00)
    1520                      .dwattr $C$DW$104, DW_AT_name("GPIO_setQualificationMode")
    1521                      .dwattr $C$DW$104, DW_AT_TI_call
    1522              
    1523 0000035f 7640!         LCR       #||GPIO_setQualificationMode|| ; [CPU_ALU] |1244| 
         00000360 0000 
    1524                      ; call occurs [#||GPIO_setQualificationMode||] ; [] |1244| 
    1525                      .dwpsn  file "../clllc_hal.c",line 1245,column 5,is_stmt,isa 0
    1526 00000361 D403          MOVB      XAR4,#3               ; [CPU_ALU] |1245| 
    1527 00000362 021D          MOVB      ACC,#29               ; [CPU_ALU] |1245| 
    1528              $C$DW$105       .dwtag  DW_TAG_TI_branch
    1529                      .dwattr $C$DW$105, DW_AT_low_pc(0x00)
    1530                      .dwattr $C$DW$105, DW_AT_name("GPIO_setQualificationMode")
    1531                      .dwattr $C$DW$105, DW_AT_TI_call
    1532              
    1533 00000363 7640!         LCR       #||GPIO_setQualificationMode|| ; [CPU_ALU] |1245| 
         00000364 0000 
    1534                      ; call occurs [#||GPIO_setQualificationMode||] ; [] |1245| 
    1535                      .dwpsn  file "../clllc_hal.c",line 1246,column 5,is_stmt,isa 0
    1536 00000365 761A          EDIS      ; [CPU_ALU] |1246| 
    1537                      .dwpsn  file "C:/Users/ZXC/Documents/mcu project/ti-project/clllc_nonpowerSUITE_F28004x/device/driver
    1538 00000366 F5A9          MOV       AL,*(0:0x7201)        ; [CPU_ALU] |1317| 
         00000367 7201 
    1539                      .dwpsn  file "../clllc_hal.c",line 1258,column 5,is_stmt,isa 0
    1540 00000368 28A8          MOV       AH,#762               ; [CPU_ALU] |1258| 
         00000369 02FA 
    1541                      .dwpsn  file "C:/Users/ZXC/Documents/mcu project/ti-project/clllc_nonpowerSUITE_F28004x/device/driver
    1542 0000036a 18A9          AND       AL,#0xffdf            ; [CPU_ALU] |1317| 
         0000036b FFDF 
    1543                      .dwpsn  file "../clllc_hal.c",line 1258,column 5,is_stmt,isa 0
    1544 0000036c 8F00          MOVL      XAR4,#57600           ; [CPU_ARAU] |1258| 
         0000036d E100 
    1545 0000036e BE07          MOVB      XAR6,#7               ; [CPU_ALU] |1258| 
    1546                      .dwpsn  file "C:/Users/ZXC/Documents/mcu project/ti-project/clllc_nonpowerSUITE_F28004x/device/driver
    1547 0000036f F4A9          MOV       *(0:0x7201),AL        ; [CPU_ALU] |1317| 
         00000370 7201 
    1548                      .dwpsn  file "C:/Users/ZXC/Documents/mcu project/ti-project/clllc_nonpowerSUITE_F28004x/device/driver
TMS320C2000 Assembler PC v22.6.0 Mon Sep  2 11:55:45 2024

Copyright (c) 1996-2018 Texas Instruments Incorporated
clllc_hal.asm                                                        PAGE   36

    1549 00000371 F5A9          MOV       AL,*(0:0x7201)        ; [CPU_ALU] |1318| 
         00000372 7201 
    1550 00000373 5020          ORB       AL,#0x20              ; [CPU_ALU] |1318| 
    1551 00000374 F4A9          MOV       *(0:0x7201),AL        ; [CPU_ALU] |1318| 
         00000375 7201 
    1552                      .dwpsn  file "../clllc_hal.c",line 1258,column 5,is_stmt,isa 0
    1553 00000376 28A9          MOV       AL,#61568             ; [CPU_ALU] |1258| 
         00000377 F080 
    1554 00000378 1E42          MOVL      *-SP[2],ACC           ; [CPU_ALU] |1258| 
    1555 00000379 A844          MOVL      *-SP[4],XAR4          ; [CPU_ALU] |1258| 
    1556 0000037a FF20          MOV       ACC,#29184            ; [CPU_ALU] |1258| 
         0000037b 7200 
    1557 0000037c C246          MOVL      *-SP[6],XAR6          ; [CPU_ALU] |1258| 
    1558              $C$DW$106       .dwtag  DW_TAG_TI_branch
    1559                      .dwattr $C$DW$106, DW_AT_low_pc(0x00)
    1560                      .dwattr $C$DW$106, DW_AT_name("SCI_setConfig")
    1561                      .dwattr $C$DW$106, DW_AT_TI_call
    1562              
    1563 0000037d 7640!         LCR       #||SCI_setConfig||    ; [CPU_ALU] |1258| 
         0000037e 0000 
    1564                      ; call occurs [#||SCI_setConfig||] ; [] |1258| 
    1565                      .dwpsn  file "C:/Users/ZXC/Documents/mcu project/ti-project/clllc_nonpowerSUITE_F28004x/device/driver
    1566 0000037f F5A9          MOV       AL,*(0:0x7200)        ; [CPU_ALU] |1370| 
         00000380 7200 
    1567 00000381 18A9          AND       AL,#0xffef            ; [CPU_ALU] |1370| 
         00000382 FFEF 
    1568 00000383 F4A9          MOV       *(0:0x7200),AL        ; [CPU_ALU] |1370| 
         00000384 7200 
    1569                      .dwpsn  file "C:/Users/ZXC/Documents/mcu project/ti-project/clllc_nonpowerSUITE_F28004x/device/driver
    1570 00000385 F5A9          MOV       AL,*(0:0x720a)        ; [CPU_ALU] |866| 
         00000386 720A 
    1571 00000387 18A9          AND       AL,#0x7fff            ; [CPU_ALU] |866| 
         00000388 7FFF 
    1572 00000389 F4A9          MOV       *(0:0x720a),AL        ; [CPU_ALU] |866| 
         0000038a 720A 
    1573                      .dwpsn  file "C:/Users/ZXC/Documents/mcu project/ti-project/clllc_nonpowerSUITE_F28004x/device/driver
    1574 0000038b F5A9          MOV       AL,*(0:0x720a)        ; [CPU_ALU] |867| 
         0000038c 720A 
    1575 0000038d 1AA9          OR        AL,#0x8000            ; [CPU_ALU] |867| 
         0000038e 8000 
    1576 0000038f F4A9          MOV       *(0:0x720a),AL        ; [CPU_ALU] |867| 
         00000390 720A 
    1577                      .dwpsn  file "C:/Users/ZXC/Documents/mcu project/ti-project/clllc_nonpowerSUITE_F28004x/device/driver
    1578 00000391 F5A9          MOV       AL,*(0:0x720b)        ; [CPU_ALU] |814| 
         00000392 720B 
    1579 00000393 18A9          AND       AL,#0xdfff            ; [CPU_ALU] |814| 
         00000394 DFFF 
    1580 00000395 F4A9          MOV       *(0:0x720b),AL        ; [CPU_ALU] |814| 
         00000396 720B 
    1581                      .dwpsn  file "C:/Users/ZXC/Documents/mcu project/ti-project/clllc_nonpowerSUITE_F28004x/device/driver
    1582 00000397 F5A9          MOV       AL,*(0:0x720b)        ; [CPU_ALU] |815| 
         00000398 720B 
    1583 00000399 1AA9          OR        AL,#0x2000            ; [CPU_ALU] |815| 
         0000039a 2000 
    1584 0000039b F4A9          MOV       *(0:0x720b),AL        ; [CPU_ALU] |815| 
TMS320C2000 Assembler PC v22.6.0 Mon Sep  2 11:55:45 2024

Copyright (c) 1996-2018 Texas Instruments Incorporated
clllc_hal.asm                                                        PAGE   37

         0000039c 720B 
    1585                      .dwpsn  file "C:/Users/ZXC/Documents/mcu project/ti-project/clllc_nonpowerSUITE_F28004x/device/driver
    1586 0000039d F5A9          MOV       AL,*(0:0x720a)        ; [CPU_ALU] |840| 
         0000039e 720A 
    1587 0000039f 18A9          AND       AL,#0xdfff            ; [CPU_ALU] |840| 
         000003a0 DFFF 
    1588 000003a1 F4A9          MOV       *(0:0x720a),AL        ; [CPU_ALU] |840| 
         000003a2 720A 
    1589                      .dwpsn  file "C:/Users/ZXC/Documents/mcu project/ti-project/clllc_nonpowerSUITE_F28004x/device/driver
    1590 000003a3 F5A6          MOV       AR6,*(0:0x720a)       ; [CPU_ALU] |841| 
         000003a4 720A 
    1591 000003a5 1AA6          OR        AR6,#0x2000           ; [CPU_ALU] |841| 
         000003a6 2000 
    1592                      .dwpsn  file "../clllc_hal.c",line 1271,column 5,is_stmt,isa 0
    1593 000003a7 0218          MOVB      ACC,#24               ; [CPU_ALU] |1271| 
    1594 000003a8 1E42          MOVL      *-SP[2],ACC           ; [CPU_ALU] |1271| 
    1595 000003a9 FF20          MOV       ACC,#29184            ; [CPU_ALU] |1271| 
         000003aa 7200 
    1596                      .dwpsn  file "C:/Users/ZXC/Documents/mcu project/ti-project/clllc_nonpowerSUITE_F28004x/device/driver
    1597 000003ab F4A6          MOV       *(0:0x720a),AR6       ; [CPU_ALU] |841| 
         000003ac 720A 
    1598                      .dwpsn  file "../clllc_hal.c",line 1271,column 5,is_stmt,isa 0
    1599              $C$DW$107       .dwtag  DW_TAG_TI_branch
    1600                      .dwattr $C$DW$107, DW_AT_low_pc(0x00)
    1601                      .dwattr $C$DW$107, DW_AT_name("SCI_clearInterruptStatus")
    1602                      .dwattr $C$DW$107, DW_AT_TI_call
    1603              
    1604 000003ad 7640!         LCR       #||SCI_clearInterruptStatus|| ; [CPU_ALU] |1271| 
         000003ae 0000 
    1605                      ; call occurs [#||SCI_clearInterruptStatus||] ; [] |1271| 
    1606                      .dwpsn  file "C:/Users/ZXC/Documents/mcu project/ti-project/clllc_nonpowerSUITE_F28004x/device/driver
    1607 000003af F5A9          MOV       AL,*(0:0x720a)        ; [CPU_ALU] |734| 
         000003b0 720A 
    1608                      .dwpsn  file "../clllc_hal.c",line 1276,column 5,is_stmt,isa 0
    1609 000003b1 BE06          MOVB      XAR6,#6               ; [CPU_ALU] |1276| 
    1610                      .dwpsn  file "C:/Users/ZXC/Documents/mcu project/ti-project/clllc_nonpowerSUITE_F28004x/device/driver
    1611 000003b2 1AA9          OR        AL,#0x8000            ; [CPU_ALU] |734| 
         000003b3 8000 
    1612 000003b4 F4A9          MOV       *(0:0x720a),AL        ; [CPU_ALU] |734| 
         000003b5 720A 
    1613                      .dwpsn  file "C:/Users/ZXC/Documents/mcu project/ti-project/clllc_nonpowerSUITE_F28004x/device/driver
    1614 000003b6 F5A9          MOV       AL,*(0:0x720a)        ; [CPU_ALU] |735| 
         000003b7 720A 
    1615 000003b8 1AA9          OR        AL,#0x6000            ; [CPU_ALU] |735| 
         000003b9 6000 
    1616                      .dwpsn  file "../clllc_hal.c",line 1276,column 5,is_stmt,isa 0
    1617 000003ba C242          MOVL      *-SP[2],XAR6          ; [CPU_FPU] |1276| 
    1618                      .dwpsn  file "C:/Users/ZXC/Documents/mcu project/ti-project/clllc_nonpowerSUITE_F28004x/device/driver
    1619 000003bb F4A9          MOV       *(0:0x720a),AL        ; [CPU_ALU] |735| 
         000003bc 720A 
    1620                      .dwpsn  file "C:/Users/ZXC/Documents/mcu project/ti-project/clllc_nonpowerSUITE_F28004x/device/driver
    1621 000003bd F5A9          MOV       AL,*(0:0x720b)        ; [CPU_ALU] |736| 
         000003be 720B 
    1622 000003bf 1AA9          OR        AL,#0x2000            ; [CPU_ALU] |736| 
         000003c0 2000 
TMS320C2000 Assembler PC v22.6.0 Mon Sep  2 11:55:45 2024

Copyright (c) 1996-2018 Texas Instruments Incorporated
clllc_hal.asm                                                        PAGE   38

    1623 000003c1 F4A9          MOV       *(0:0x720b),AL        ; [CPU_ALU] |736| 
         000003c2 720B 
    1624                      .dwpsn  file "C:/Users/ZXC/Documents/mcu project/ti-project/clllc_nonpowerSUITE_F28004x/device/driver
    1625 000003c3 F5A9          MOV       AL,*(0:0x7201)        ; [CPU_ALU] |523| 
         000003c4 7201 
    1626 000003c5 5023          ORB       AL,#0x23              ; [CPU_ALU] |523| 
    1627 000003c6 F4A9          MOV       *(0:0x7201),AL        ; [CPU_ALU] |523| 
         000003c7 7201 
    1628                      .dwpsn  file "C:/Users/ZXC/Documents/mcu project/ti-project/clllc_nonpowerSUITE_F28004x/device/driver
    1629 000003c8 F5A9          MOV       AL,*(0:0x7201)        ; [CPU_ALU] |1317| 
         000003c9 7201 
    1630 000003ca 18A9          AND       AL,#0xffdf            ; [CPU_ALU] |1317| 
         000003cb FFDF 
    1631 000003cc F4A9          MOV       *(0:0x7201),AL        ; [CPU_ALU] |1317| 
         000003cd 7201 
    1632                      .dwpsn  file "C:/Users/ZXC/Documents/mcu project/ti-project/clllc_nonpowerSUITE_F28004x/device/driver
    1633 000003ce F5A9          MOV       AL,*(0:0x7201)        ; [CPU_ALU] |1318| 
         000003cf 7201 
    1634 000003d0 5020          ORB       AL,#0x20              ; [CPU_ALU] |1318| 
    1635 000003d1 F4A9          MOV       *(0:0x7201),AL        ; [CPU_ALU] |1318| 
         000003d2 7201 
    1636                      .dwpsn  file "../clllc_hal.c",line 1276,column 5,is_stmt,isa 0
    1637 000003d3 FF20          MOV       ACC,#29184            ; [CPU_ALU] |1276| 
         000003d4 7200 
    1638              $C$DW$108       .dwtag  DW_TAG_TI_branch
    1639                      .dwattr $C$DW$108, DW_AT_low_pc(0x00)
    1640                      .dwattr $C$DW$108, DW_AT_name("SCI_enableInterrupt")
    1641                      .dwattr $C$DW$108, DW_AT_TI_call
    1642              
    1643 000003d5 7640!         LCR       #||SCI_enableInterrupt|| ; [CPU_ALU] |1276| 
         000003d6 0000 
    1644                      ; call occurs [#||SCI_enableInterrupt||] ; [] |1276| 
    1645                      .dwpsn  file "../clllc_hal.c",line 1281,column 5,is_stmt,isa 0
    1646 000003d7 0206          MOVB      ACC,#6                ; [CPU_ALU] |1281| 
    1647 000003d8 1E42          MOVL      *-SP[2],ACC           ; [CPU_ALU] |1281| 
    1648 000003d9 FF20          MOV       ACC,#29184            ; [CPU_ALU] |1281| 
         000003da 7200 
    1649              $C$DW$109       .dwtag  DW_TAG_TI_branch
    1650                      .dwattr $C$DW$109, DW_AT_low_pc(0x00)
    1651                      .dwattr $C$DW$109, DW_AT_name("SCI_clearInterruptStatus")
    1652                      .dwattr $C$DW$109, DW_AT_TI_call
    1653              
    1654 000003db 7640!         LCR       #||SCI_clearInterruptStatus|| ; [CPU_ALU] |1281| 
         000003dc 0000 
    1655                      ; call occurs [#||SCI_clearInterruptStatus||] ; [] |1281| 
    1656 000003dd FE86          SUBB      SP,#6                 ; [CPU_ARAU] 
    1657                      .dwcfi  cfa_offset, -2
    1658              $C$DW$110       .dwtag  DW_TAG_TI_branch
    1659                      .dwattr $C$DW$110, DW_AT_low_pc(0x00)
    1660                      .dwattr $C$DW$110, DW_AT_TI_return
    1661              
    1662 000003de 0006          LRETR     ; [CPU_ALU] 
    1663                      ; return occurs ; [] 
    1664                      .dwattr $C$DW$101, DW_AT_TI_end_file("../clllc_hal.c")
    1665                      .dwattr $C$DW$101, DW_AT_TI_end_line(0x503)
TMS320C2000 Assembler PC v22.6.0 Mon Sep  2 11:55:45 2024

Copyright (c) 1996-2018 Texas Instruments Incorporated
clllc_hal.asm                                                        PAGE   39

    1666                      .dwattr $C$DW$101, DW_AT_TI_end_column(0x01)
    1667                      .dwendentry
    1668                      .dwendtag $C$DW$101
    1669              
    1670 000003df               .sect   ".text"
    1671                      .clink
    1672                      .global ||CLLLC_HAL_setupProfilingGPIO||
    1673              
    1674              $C$DW$111       .dwtag  DW_TAG_subprogram
    1675                      .dwattr $C$DW$111, DW_AT_name("CLLLC_HAL_setupProfilingGPIO")
    1676                      .dwattr $C$DW$111, DW_AT_low_pc(||CLLLC_HAL_setupProfilingGPIO||)
    1677                      .dwattr $C$DW$111, DW_AT_high_pc(0x00)
    1678                      .dwattr $C$DW$111, DW_AT_linkage_name("CLLLC_HAL_setupProfilingGPIO")
    1679                      .dwattr $C$DW$111, DW_AT_external
    1680                      .dwattr $C$DW$111, DW_AT_decl_file("../clllc_hal.c")
    1681                      .dwattr $C$DW$111, DW_AT_decl_line(0x4be)
    1682                      .dwattr $C$DW$111, DW_AT_decl_column(0x06)
    1683                      .dwattr $C$DW$111, DW_AT_TI_max_frame_size(-2)
    1684                      .dwpsn  file "../clllc_hal.c",line 1215,column 1,is_stmt,address ||CLLLC_HAL_setupProfilingGPIO||,isa
    1685              
    1686                      .dwfde $C$DW$CIE, ||CLLLC_HAL_setupProfilingGPIO||
    1687              
    1688              ;***************************************************************
    1689              ;* FNAME: CLLLC_HAL_setupProfilingGPIO  FR SIZE:   0           *
    1690              ;*                                                             *
    1691              ;* FUNCTION ENVIRONMENT                                        *
    1692              ;*                                                             *
    1693              ;* FUNCTION PROPERTIES                                         *
    1694              ;*                            0 Parameter,  0 Auto,  0 SOE     *
    1695              ;***************************************************************
    1696              
    1697 000003df       ||CLLLC_HAL_setupProfilingGPIO||:
    1698                      .dwcfi  cfa_offset, -2
    1699                      .dwcfi  save_reg_to_mem, 26, 0
    1700                      .dwpsn  file "../clllc_hal.c",line 1216,column 5,is_stmt,isa 0
    1701 000003df 0228          MOVB      ACC,#40               ; [CPU_ALU] |1216| 
    1702 000003e0 D401          MOVB      XAR4,#1               ; [CPU_ALU] |1216| 
    1703              $C$DW$112       .dwtag  DW_TAG_TI_branch
    1704                      .dwattr $C$DW$112, DW_AT_low_pc(0x00)
    1705                      .dwattr $C$DW$112, DW_AT_name("GPIO_setDirectionMode")
    1706                      .dwattr $C$DW$112, DW_AT_TI_call
    1707              
    1708 000003e1 7640!         LCR       #||GPIO_setDirectionMode|| ; [CPU_ALU] |1216| 
         000003e2 0000 
    1709                      ; call occurs [#||GPIO_setDirectionMode||] ; [] |1216| 
    1710                      .dwpsn  file "../clllc_hal.c",line 1217,column 5,is_stmt,isa 0
    1711 000003e3 D401          MOVB      XAR4,#1               ; [CPU_ALU] |1217| 
    1712 000003e4 0239          MOVB      ACC,#57               ; [CPU_ALU] |1217| 
    1713              $C$DW$113       .dwtag  DW_TAG_TI_branch
    1714                      .dwattr $C$DW$113, DW_AT_low_pc(0x00)
    1715                      .dwattr $C$DW$113, DW_AT_name("GPIO_setDirectionMode")
    1716                      .dwattr $C$DW$113, DW_AT_TI_call
    1717              
    1718 000003e5 7640!         LCR       #||GPIO_setDirectionMode|| ; [CPU_ALU] |1217| 
         000003e6 0000 
TMS320C2000 Assembler PC v22.6.0 Mon Sep  2 11:55:45 2024

Copyright (c) 1996-2018 Texas Instruments Incorporated
clllc_hal.asm                                                        PAGE   40

    1719                      ; call occurs [#||GPIO_setDirectionMode||] ; [] |1217| 
    1720                      .dwpsn  file "../clllc_hal.c",line 1218,column 5,is_stmt,isa 0
    1721 000003e7 D401          MOVB      XAR4,#1               ; [CPU_ALU] |1218| 
    1722 000003e8 0210          MOVB      ACC,#16               ; [CPU_ALU] |1218| 
    1723              $C$DW$114       .dwtag  DW_TAG_TI_branch
    1724                      .dwattr $C$DW$114, DW_AT_low_pc(0x00)
    1725                      .dwattr $C$DW$114, DW_AT_name("GPIO_setDirectionMode")
    1726                      .dwattr $C$DW$114, DW_AT_TI_call
    1727              
    1728 000003e9 7640!         LCR       #||GPIO_setDirectionMode|| ; [CPU_ALU] |1218| 
         000003ea 0000 
    1729                      ; call occurs [#||GPIO_setDirectionMode||] ; [] |1218| 
    1730                      .dwpsn  file "../clllc_hal.c",line 1220,column 5,is_stmt,isa 0
    1731 000003eb D400          MOVB      XAR4,#0               ; [CPU_ALU] |1220| 
    1732 000003ec 0228          MOVB      ACC,#40               ; [CPU_ALU] |1220| 
    1733              $C$DW$115       .dwtag  DW_TAG_TI_branch
    1734                      .dwattr $C$DW$115, DW_AT_low_pc(0x00)
    1735                      .dwattr $C$DW$115, DW_AT_name("GPIO_setQualificationMode")
    1736                      .dwattr $C$DW$115, DW_AT_TI_call
    1737              
    1738 000003ed 7640!         LCR       #||GPIO_setQualificationMode|| ; [CPU_ALU] |1220| 
         000003ee 0000 
    1739                      ; call occurs [#||GPIO_setQualificationMode||] ; [] |1220| 
    1740                      .dwpsn  file "../clllc_hal.c",line 1221,column 5,is_stmt,isa 0
    1741 000003ef D400          MOVB      XAR4,#0               ; [CPU_ALU] |1221| 
    1742 000003f0 0239          MOVB      ACC,#57               ; [CPU_ALU] |1221| 
    1743              $C$DW$116       .dwtag  DW_TAG_TI_branch
    1744                      .dwattr $C$DW$116, DW_AT_low_pc(0x00)
    1745                      .dwattr $C$DW$116, DW_AT_name("GPIO_setQualificationMode")
    1746                      .dwattr $C$DW$116, DW_AT_TI_call
    1747              
    1748 000003f1 7640!         LCR       #||GPIO_setQualificationMode|| ; [CPU_ALU] |1221| 
         000003f2 0000 
    1749                      ; call occurs [#||GPIO_setQualificationMode||] ; [] |1221| 
    1750                      .dwpsn  file "../clllc_hal.c",line 1222,column 5,is_stmt,isa 0
    1751 000003f3 D400          MOVB      XAR4,#0               ; [CPU_ALU] |1222| 
    1752 000003f4 0210          MOVB      ACC,#16               ; [CPU_ALU] |1222| 
    1753              $C$DW$117       .dwtag  DW_TAG_TI_branch
    1754                      .dwattr $C$DW$117, DW_AT_low_pc(0x00)
    1755                      .dwattr $C$DW$117, DW_AT_name("GPIO_setQualificationMode")
    1756                      .dwattr $C$DW$117, DW_AT_TI_call
    1757              
    1758 000003f5 7640!         LCR       #||GPIO_setQualificationMode|| ; [CPU_ALU] |1222| 
         000003f6 0000 
    1759                      ; call occurs [#||GPIO_setQualificationMode||] ; [] |1222| 
    1760                      .dwpsn  file "../clllc_hal.c",line 1224,column 5,is_stmt,isa 0
    1761 000003f7 FF2C          MOV       ACC,#1121 << 12       ; [CPU_ALU] |1224| 
         000003f8 0461 
    1762              $C$DW$118       .dwtag  DW_TAG_TI_branch
    1763                      .dwattr $C$DW$118, DW_AT_low_pc(0x00)
    1764                      .dwattr $C$DW$118, DW_AT_name("GPIO_setPinConfig")
    1765                      .dwattr $C$DW$118, DW_AT_TI_call
    1766              
    1767 000003f9 7640!         LCR       #||GPIO_setPinConfig|| ; [CPU_ALU] |1224| 
         000003fa 0000 
TMS320C2000 Assembler PC v22.6.0 Mon Sep  2 11:55:45 2024

Copyright (c) 1996-2018 Texas Instruments Incorporated
clllc_hal.asm                                                        PAGE   41

    1768                      ; call occurs [#||GPIO_setPinConfig||] ; [] |1224| 
    1769                      .dwpsn  file "../clllc_hal.c",line 1225,column 5,is_stmt,isa 0
    1770 000003fb FF29          MOV       ACC,#9225 << 9        ; [CPU_ALU] |1225| 
         000003fc 2409 
    1771              $C$DW$119       .dwtag  DW_TAG_TI_branch
    1772                      .dwattr $C$DW$119, DW_AT_low_pc(0x00)
    1773                      .dwattr $C$DW$119, DW_AT_name("GPIO_setPinConfig")
    1774                      .dwattr $C$DW$119, DW_AT_TI_call
    1775              
    1776 000003fd 7640!         LCR       #||GPIO_setPinConfig|| ; [CPU_ALU] |1225| 
         000003fe 0000 
    1777                      ; call occurs [#||GPIO_setPinConfig||] ; [] |1225| 
    1778                      .dwpsn  file "../clllc_hal.c",line 1226,column 5,is_stmt,isa 0
    1779 000003ff 8F08          MOVL      XAR4,#524288          ; [CPU_ARAU] |1226| 
         00000400 0000 
    1780 00000401 A8A9          MOVL      ACC,XAR4              ; [CPU_ALU] |1226| 
    1781              $C$DW$120       .dwtag  DW_TAG_TI_branch
    1782                      .dwattr $C$DW$120, DW_AT_low_pc(0x00)
    1783                      .dwattr $C$DW$120, DW_AT_name("GPIO_setPinConfig")
    1784                      .dwattr $C$DW$120, DW_AT_TI_call
    1785              
    1786 00000402 7640!         LCR       #||GPIO_setPinConfig|| ; [CPU_ALU] |1226| 
         00000403 0000 
    1787                      ; call occurs [#||GPIO_setPinConfig||] ; [] |1226| 
    1788              $C$DW$121       .dwtag  DW_TAG_TI_branch
    1789                      .dwattr $C$DW$121, DW_AT_low_pc(0x00)
    1790                      .dwattr $C$DW$121, DW_AT_TI_return
    1791              
    1792 00000404 0006          LRETR     ; [CPU_ALU] 
    1793                      ; return occurs ; [] 
    1794                      .dwattr $C$DW$111, DW_AT_TI_end_file("../clllc_hal.c")
    1795                      .dwattr $C$DW$111, DW_AT_TI_end_line(0x4d2)
    1796                      .dwattr $C$DW$111, DW_AT_TI_end_column(0x01)
    1797                      .dwendentry
    1798                      .dwendtag $C$DW$111
    1799              
    1800 00000405               .sect   ".text"
    1801                      .clink
    1802                      .global ||CLLLC_HAL_setupPWMpins||
    1803              
    1804              $C$DW$122       .dwtag  DW_TAG_subprogram
    1805                      .dwattr $C$DW$122, DW_AT_name("CLLLC_HAL_setupPWMpins")
    1806                      .dwattr $C$DW$122, DW_AT_low_pc(||CLLLC_HAL_setupPWMpins||)
    1807                      .dwattr $C$DW$122, DW_AT_high_pc(0x00)
    1808                      .dwattr $C$DW$122, DW_AT_linkage_name("CLLLC_HAL_setupPWMpins")
    1809                      .dwattr $C$DW$122, DW_AT_external
    1810                      .dwattr $C$DW$122, DW_AT_decl_file("../clllc_hal.c")
    1811                      .dwattr $C$DW$122, DW_AT_decl_line(0x53e)
    1812                      .dwattr $C$DW$122, DW_AT_decl_column(0x06)
    1813                      .dwattr $C$DW$122, DW_AT_TI_max_frame_size(-6)
    1814                      .dwpsn  file "../clllc_hal.c",line 1343,column 1,is_stmt,address ||CLLLC_HAL_setupPWMpins||,isa 0
    1815              
    1816                      .dwfde $C$DW$CIE, ||CLLLC_HAL_setupPWMpins||
    1817              $C$DW$123       .dwtag  DW_TAG_formal_parameter
    1818                      .dwattr $C$DW$123, DW_AT_name("mode")
TMS320C2000 Assembler PC v22.6.0 Mon Sep  2 11:55:45 2024

Copyright (c) 1996-2018 Texas Instruments Incorporated
clllc_hal.asm                                                        PAGE   42

    1819                      .dwattr $C$DW$123, DW_AT_type(*$C$DW$T$163)
    1820                      .dwattr $C$DW$123, DW_AT_location[DW_OP_reg0]
    1821              
    1822              
    1823              ;***************************************************************
    1824              ;* FNAME: CLLLC_HAL_setupPWMpins        FR SIZE:   4           *
    1825              ;*                                                             *
    1826              ;* FUNCTION ENVIRONMENT                                        *
    1827              ;*                                                             *
    1828              ;* FUNCTION PROPERTIES                                         *
    1829              ;*                            2 Parameter,  0 Auto,  2 SOE     *
    1830              ;***************************************************************
    1831              
    1832              ||CLLLC_HAL_setupPWMpins||:
    1833              ;* AR1   assigned to mode
    1834              $C$DW$124       .dwtag  DW_TAG_variable
    1835                      .dwattr $C$DW$124, DW_AT_name("mode")
    1836                      .dwattr $C$DW$124, DW_AT_type(*$C$DW$T$237)
    1837                      .dwattr $C$DW$124, DW_AT_location[DW_OP_reg6]
    1838              
    1839                      .dwcfi  cfa_offset, -2
    1840                      .dwcfi  save_reg_to_mem, 26, 0
    1841 00000405 B2BD          MOVL      *SP++,XAR1            ; [CPU_ALU] 
    1842                      .dwcfi  save_reg_to_mem, 7, 2
    1843                      .dwcfi  cfa_offset, -4
    1844 00000406 FE02          ADDB      SP,#2                 ; [CPU_ARAU] 
    1845                      .dwcfi  cfa_offset, -6
    1846                      .dwpsn  file "../clllc_hal.c",line 1347,column 5,is_stmt,isa 0
    1847 00000407 5200          CMPB      AL,#0                 ; [CPU_ALU] |1347| 
    1848                      .dwpsn  file "../clllc_hal.c",line 1343,column 1,is_stmt,isa 0
    1849 00000408 59A9          MOVZ      AR1,AL                ; [CPU_FPU] |1343| 
    1850                      .dwpsn  file "../clllc_hal.c",line 1347,column 5,is_stmt,isa 0
    1851 00000409 6021          B         ||$C$L7||,NEQ         ; [CPU_ALU] |1347| 
    1852                      ; branchcc occurs ; [] |1347| 
    1853                      .dwpsn  file "C:/Users/ZXC/Documents/mcu project/ti-project/clllc_nonpowerSUITE_F28004x/device/driver
    1854 0000040a BE01          MOVB      XAR6,#1               ; [CPU_ALU] |462| 
    1855 0000040b 0202          MOVB      ACC,#2                ; [CPU_ALU] |462| 
    1856                      .dwpsn  file "../clllc_hal.c",line 1351,column 9,is_stmt,isa 0
    1857 0000040c 8F06          MOVL      XAR4,#393216          ; [CPU_ARAU] |1351| 
         0000040d 0000 
    1858                      .dwpsn  file "C:/Users/ZXC/Documents/mcu project/ti-project/clllc_nonpowerSUITE_F28004x/device/driver
    1859 0000040e BDA6          MOV32     *(0:0x7f04),XAR6      ; [CPU_FPU] |462| 
         0000040f 7F04 
    1860 00000410 BDA9          MOV32     *(0:0x7f04),ACC       ; [CPU_FPU] |462| 
         00000411 7F04 
    1861                      .dwpsn  file "../clllc_hal.c",line 1351,column 9,is_stmt,isa 0
    1862 00000412 A8A9          MOVL      ACC,XAR4              ; [CPU_ALU] |1351| 
    1863              $C$DW$125       .dwtag  DW_TAG_TI_branch
    1864                      .dwattr $C$DW$125, DW_AT_low_pc(0x00)
    1865                      .dwattr $C$DW$125, DW_AT_name("GPIO_setPinConfig")
    1866                      .dwattr $C$DW$125, DW_AT_TI_call
    1867              
    1868 00000413 7640!         LCR       #||GPIO_setPinConfig|| ; [CPU_ALU] |1351| 
         00000414 0000 
    1869                      ; call occurs [#||GPIO_setPinConfig||] ; [] |1351| 
TMS320C2000 Assembler PC v22.6.0 Mon Sep  2 11:55:45 2024

Copyright (c) 1996-2018 Texas Instruments Incorporated
clllc_hal.asm                                                        PAGE   43

    1870                      .dwpsn  file "../clllc_hal.c",line 1352,column 9,is_stmt,isa 0
    1871 00000415 8F06          MOVL      XAR4,#393728          ; [CPU_ARAU] |1352| 
         00000416 0200 
    1872 00000417 A8A9          MOVL      ACC,XAR4              ; [CPU_ALU] |1352| 
    1873              $C$DW$126       .dwtag  DW_TAG_TI_branch
    1874                      .dwattr $C$DW$126, DW_AT_low_pc(0x00)
    1875                      .dwattr $C$DW$126, DW_AT_name("GPIO_setPinConfig")
    1876                      .dwattr $C$DW$126, DW_AT_TI_call
    1877              
    1878 00000418 7640!         LCR       #||GPIO_setPinConfig|| ; [CPU_ALU] |1352| 
         00000419 0000 
    1879                      ; call occurs [#||GPIO_setPinConfig||] ; [] |1352| 
    1880                      .dwpsn  file "C:/Users/ZXC/Documents/mcu project/ti-project/clllc_nonpowerSUITE_F28004x/device/driver
    1881 0000041a BE04          MOVB      XAR6,#4               ; [CPU_ALU] |462| 
    1882 0000041b 0208          MOVB      ACC,#8                ; [CPU_ALU] |462| 
    1883                      .dwpsn  file "../clllc_hal.c",line 1356,column 9,is_stmt,isa 0
    1884 0000041c 8F06          MOVL      XAR4,#394240          ; [CPU_ARAU] |1356| 
         0000041d 0400 
    1885                      .dwpsn  file "C:/Users/ZXC/Documents/mcu project/ti-project/clllc_nonpowerSUITE_F28004x/device/driver
    1886 0000041e BDA6          MOV32     *(0:0x7f04),XAR6      ; [CPU_FPU] |462| 
         0000041f 7F04 
    1887 00000420 BDA9          MOV32     *(0:0x7f04),ACC       ; [CPU_FPU] |462| 
         00000421 7F04 
    1888                      .dwpsn  file "../clllc_hal.c",line 1356,column 9,is_stmt,isa 0
    1889 00000422 A8A9          MOVL      ACC,XAR4              ; [CPU_ALU] |1356| 
    1890              $C$DW$127       .dwtag  DW_TAG_TI_branch
    1891                      .dwattr $C$DW$127, DW_AT_low_pc(0x00)
    1892                      .dwattr $C$DW$127, DW_AT_name("GPIO_setPinConfig")
    1893                      .dwattr $C$DW$127, DW_AT_TI_call
    1894              
    1895 00000423 7640!         LCR       #||GPIO_setPinConfig|| ; [CPU_ALU] |1356| 
         00000424 0000 
    1896                      ; call occurs [#||GPIO_setPinConfig||] ; [] |1356| 
    1897                      .dwpsn  file "../clllc_hal.c",line 1357,column 9,is_stmt,isa 0
    1898 00000425 8F06          MOVL      XAR4,#394752          ; [CPU_ARAU] |1357| 
         00000426 0600 
    1899 00000427 A8A9          MOVL      ACC,XAR4              ; [CPU_ALU] |1357| 
    1900              $C$DW$128       .dwtag  DW_TAG_TI_branch
    1901                      .dwattr $C$DW$128, DW_AT_low_pc(0x00)
    1902                      .dwattr $C$DW$128, DW_AT_name("GPIO_setPinConfig")
    1903                      .dwattr $C$DW$128, DW_AT_TI_call
    1904              
    1905 00000428 7640!         LCR       #||GPIO_setPinConfig|| ; [CPU_ALU] |1357| 
         00000429 0000 
    1906                      ; call occurs [#||GPIO_setPinConfig||] ; [] |1357| 
    1907 0000042a       ||$C$L7||:    
    1908 0000042a 92A1          MOV       AL,AR1                ; [CPU_ALU] 
    1909                      .dwpsn  file "../clllc_hal.c",line 1363,column 5,is_stmt,isa 0
    1910 0000042b CCA9          AND       AL,AL,#0xfffe         ; [CPU_ALU] |1363| 
         0000042c FFFE 
    1911 0000042d 6021          B         ||$C$L8||,NEQ         ; [CPU_ALU] |1363| 
    1912                      ; branchcc occurs ; [] |1363| 
    1913                      .dwpsn  file "C:/Users/ZXC/Documents/mcu project/ti-project/clllc_nonpowerSUITE_F28004x/device/driver
    1914 0000042e BE10          MOVB      XAR6,#16              ; [CPU_ALU] |462| 
    1915 0000042f 0220          MOVB      ACC,#32               ; [CPU_ALU] |462| 
TMS320C2000 Assembler PC v22.6.0 Mon Sep  2 11:55:45 2024

Copyright (c) 1996-2018 Texas Instruments Incorporated
clllc_hal.asm                                                        PAGE   44

    1916                      .dwpsn  file "../clllc_hal.c",line 1367,column 9,is_stmt,isa 0
    1917 00000430 8F06          MOVL      XAR4,#395264          ; [CPU_ARAU] |1367| 
         00000431 0800 
    1918                      .dwpsn  file "C:/Users/ZXC/Documents/mcu project/ti-project/clllc_nonpowerSUITE_F28004x/device/driver
    1919 00000432 BDA6          MOV32     *(0:0x7f04),XAR6      ; [CPU_FPU] |462| 
         00000433 7F04 
    1920 00000434 BDA9          MOV32     *(0:0x7f04),ACC       ; [CPU_FPU] |462| 
         00000435 7F04 
    1921                      .dwpsn  file "../clllc_hal.c",line 1367,column 9,is_stmt,isa 0
    1922 00000436 A8A9          MOVL      ACC,XAR4              ; [CPU_ALU] |1367| 
    1923              $C$DW$129       .dwtag  DW_TAG_TI_branch
    1924                      .dwattr $C$DW$129, DW_AT_low_pc(0x00)
    1925                      .dwattr $C$DW$129, DW_AT_name("GPIO_setPinConfig")
    1926                      .dwattr $C$DW$129, DW_AT_TI_call
    1927              
    1928 00000437 7640!         LCR       #||GPIO_setPinConfig|| ; [CPU_ALU] |1367| 
         00000438 0000 
    1929                      ; call occurs [#||GPIO_setPinConfig||] ; [] |1367| 
    1930                      .dwpsn  file "../clllc_hal.c",line 1368,column 9,is_stmt,isa 0
    1931 00000439 8F06          MOVL      XAR4,#395776          ; [CPU_ARAU] |1368| 
         0000043a 0A00 
    1932 0000043b A8A9          MOVL      ACC,XAR4              ; [CPU_ALU] |1368| 
    1933              $C$DW$130       .dwtag  DW_TAG_TI_branch
    1934                      .dwattr $C$DW$130, DW_AT_low_pc(0x00)
    1935                      .dwattr $C$DW$130, DW_AT_name("GPIO_setPinConfig")
    1936                      .dwattr $C$DW$130, DW_AT_TI_call
    1937              
    1938 0000043c 7640!         LCR       #||GPIO_setPinConfig|| ; [CPU_ALU] |1368| 
         0000043d 0000 
    1939                      ; call occurs [#||GPIO_setPinConfig||] ; [] |1368| 
    1940                      .dwpsn  file "C:/Users/ZXC/Documents/mcu project/ti-project/clllc_nonpowerSUITE_F28004x/device/driver
    1941 0000043e BE40          MOVB      XAR6,#64              ; [CPU_ALU] |462| 
    1942 0000043f 0280          MOVB      ACC,#128              ; [CPU_ALU] |462| 
    1943                      .dwpsn  file "../clllc_hal.c",line 1372,column 9,is_stmt,isa 0
    1944 00000440 8F06          MOVL      XAR4,#396288          ; [CPU_ARAU] |1372| 
         00000441 0C00 
    1945                      .dwpsn  file "C:/Users/ZXC/Documents/mcu project/ti-project/clllc_nonpowerSUITE_F28004x/device/driver
    1946 00000442 BDA6          MOV32     *(0:0x7f04),XAR6      ; [CPU_FPU] |462| 
         00000443 7F04 
    1947 00000444 BDA9          MOV32     *(0:0x7f04),ACC       ; [CPU_FPU] |462| 
         00000445 7F04 
    1948                      .dwpsn  file "../clllc_hal.c",line 1372,column 9,is_stmt,isa 0
    1949 00000446 A8A9          MOVL      ACC,XAR4              ; [CPU_ALU] |1372| 
    1950              $C$DW$131       .dwtag  DW_TAG_TI_branch
    1951                      .dwattr $C$DW$131, DW_AT_low_pc(0x00)
    1952                      .dwattr $C$DW$131, DW_AT_name("GPIO_setPinConfig")
    1953                      .dwattr $C$DW$131, DW_AT_TI_call
    1954              
    1955 00000447 7640!         LCR       #||GPIO_setPinConfig|| ; [CPU_ALU] |1372| 
         00000448 0000 
    1956                      ; call occurs [#||GPIO_setPinConfig||] ; [] |1372| 
    1957                      .dwpsn  file "../clllc_hal.c",line 1373,column 9,is_stmt,isa 0
    1958 00000449 8F06          MOVL      XAR4,#396800          ; [CPU_ARAU] |1373| 
         0000044a 0E00 
    1959 0000044b A8A9          MOVL      ACC,XAR4              ; [CPU_ALU] |1373| 
TMS320C2000 Assembler PC v22.6.0 Mon Sep  2 11:55:45 2024

Copyright (c) 1996-2018 Texas Instruments Incorporated
clllc_hal.asm                                                        PAGE   45

    1960              $C$DW$132       .dwtag  DW_TAG_TI_branch
    1961                      .dwattr $C$DW$132, DW_AT_low_pc(0x00)
    1962                      .dwattr $C$DW$132, DW_AT_name("GPIO_setPinConfig")
    1963                      .dwattr $C$DW$132, DW_AT_TI_call
    1964              
    1965 0000044c 7640!         LCR       #||GPIO_setPinConfig|| ; [CPU_ALU] |1373| 
         0000044d 0000 
    1966                      ; call occurs [#||GPIO_setPinConfig||] ; [] |1373| 
    1967 0000044e       ||$C$L8||:    
    1968 0000044e 92A1          MOV       AL,AR1                ; [CPU_ALU] 
    1969                      .dwpsn  file "../clllc_hal.c",line 1378,column 5,is_stmt,isa 0
    1970 0000044f 5201          CMPB      AL,#1                 ; [CPU_ALU] |1378| 
    1971 00000450 6105          B         ||$C$L9||,EQ          ; [CPU_ALU] |1378| 
    1972                      ; branchcc occurs ; [] |1378| 
    1973 00000451 5202          CMPB      AL,#2                 ; [CPU_ALU] |1378| 
    1974 00000452 6103          B         ||$C$L9||,EQ          ; [CPU_ALU] |1378| 
    1975                      ; branchcc occurs ; [] |1378| 
    1976 00000453 5203          CMPB      AL,#3                 ; [CPU_ALU] |1378| 
    1977 00000454 6038          B         ||$C$L10||,NEQ        ; [CPU_ALU] |1378| 
    1978                      ; branchcc occurs ; [] |1378| 
    1979 00000455       ||$C$L9||:    
    1980                      .dwpsn  file "../clllc_hal.c",line 1380,column 9,is_stmt,isa 0
    1981 00000455 0200          MOVB      ACC,#0                ; [CPU_ALU] |1380| 
    1982 00000456 D401          MOVB      XAR4,#1               ; [CPU_ALU] |1380| 
    1983              $C$DW$133       .dwtag  DW_TAG_TI_branch
    1984                      .dwattr $C$DW$133, DW_AT_low_pc(0x00)
    1985                      .dwattr $C$DW$133, DW_AT_name("GPIO_setDirectionMode")
    1986                      .dwattr $C$DW$133, DW_AT_TI_call
    1987              
    1988 00000457 7640!         LCR       #||GPIO_setDirectionMode|| ; [CPU_ALU] |1380| 
         00000458 0000 
    1989                      ; call occurs [#||GPIO_setDirectionMode||] ; [] |1380| 
    1990                      .dwpsn  file "../clllc_hal.c",line 1381,column 9,is_stmt,isa 0
    1991 00000459 0200          MOVB      ACC,#0                ; [CPU_ALU] |1381| 
    1992 0000045a 1E42          MOVL      *-SP[2],ACC           ; [CPU_ALU] |1381| 
    1993              $C$DW$134       .dwtag  DW_TAG_TI_branch
    1994                      .dwattr $C$DW$134, DW_AT_low_pc(0x00)
    1995                      .dwattr $C$DW$134, DW_AT_name("GPIO_setPadConfig")
    1996                      .dwattr $C$DW$134, DW_AT_TI_call
    1997              
    1998 0000045b 7640!         LCR       #||GPIO_setPadConfig|| ; [CPU_ALU] |1381| 
         0000045c 0000 
    1999                      ; call occurs [#||GPIO_setPadConfig||] ; [] |1381| 
    2000                      .dwpsn  file "../clllc_hal.c",line 1382,column 9,is_stmt,isa 0
    2001 0000045d 8F06          MOVL      XAR4,#393217          ; [CPU_ARAU] |1382| 
         0000045e 0001 
    2002 0000045f A8A9          MOVL      ACC,XAR4              ; [CPU_ALU] |1382| 
    2003              $C$DW$135       .dwtag  DW_TAG_TI_branch
    2004                      .dwattr $C$DW$135, DW_AT_low_pc(0x00)
    2005                      .dwattr $C$DW$135, DW_AT_name("GPIO_setPinConfig")
    2006                      .dwattr $C$DW$135, DW_AT_TI_call
    2007              
    2008 00000460 7640!         LCR       #||GPIO_setPinConfig|| ; [CPU_ALU] |1382| 
         00000461 0000 
    2009                      ; call occurs [#||GPIO_setPinConfig||] ; [] |1382| 
TMS320C2000 Assembler PC v22.6.0 Mon Sep  2 11:55:45 2024

Copyright (c) 1996-2018 Texas Instruments Incorporated
clllc_hal.asm                                                        PAGE   46

    2010                      .dwpsn  file "../clllc_hal.c",line 1384,column 9,is_stmt,isa 0
    2011 00000462 D401          MOVB      XAR4,#1               ; [CPU_ALU] |1384| 
    2012 00000463 0201          MOVB      ACC,#1                ; [CPU_ALU] |1384| 
    2013              $C$DW$136       .dwtag  DW_TAG_TI_branch
    2014                      .dwattr $C$DW$136, DW_AT_low_pc(0x00)
    2015                      .dwattr $C$DW$136, DW_AT_name("GPIO_setDirectionMode")
    2016                      .dwattr $C$DW$136, DW_AT_TI_call
    2017              
    2018 00000464 7640!         LCR       #||GPIO_setDirectionMode|| ; [CPU_ALU] |1384| 
         00000465 0000 
    2019                      ; call occurs [#||GPIO_setDirectionMode||] ; [] |1384| 
    2020                      .dwpsn  file "../clllc_hal.c",line 1385,column 9,is_stmt,isa 0
    2021 00000466 0200          MOVB      ACC,#0                ; [CPU_ALU] |1385| 
    2022 00000467 1E42          MOVL      *-SP[2],ACC           ; [CPU_ALU] |1385| 
    2023 00000468 0201          MOVB      ACC,#1                ; [CPU_ALU] |1385| 
    2024              $C$DW$137       .dwtag  DW_TAG_TI_branch
    2025                      .dwattr $C$DW$137, DW_AT_low_pc(0x00)
    2026                      .dwattr $C$DW$137, DW_AT_name("GPIO_setPadConfig")
    2027                      .dwattr $C$DW$137, DW_AT_TI_call
    2028              
    2029 00000469 7640!         LCR       #||GPIO_setPadConfig|| ; [CPU_ALU] |1385| 
         0000046a 0000 
    2030                      ; call occurs [#||GPIO_setPadConfig||] ; [] |1385| 
    2031                      .dwpsn  file "../clllc_hal.c",line 1386,column 9,is_stmt,isa 0
    2032 0000046b 8F06          MOVL      XAR4,#393729          ; [CPU_ARAU] |1386| 
         0000046c 0201 
    2033 0000046d A8A9          MOVL      ACC,XAR4              ; [CPU_ALU] |1386| 
    2034              $C$DW$138       .dwtag  DW_TAG_TI_branch
    2035                      .dwattr $C$DW$138, DW_AT_low_pc(0x00)
    2036                      .dwattr $C$DW$138, DW_AT_name("GPIO_setPinConfig")
    2037                      .dwattr $C$DW$138, DW_AT_TI_call
    2038              
    2039 0000046e 7640!         LCR       #||GPIO_setPinConfig|| ; [CPU_ALU] |1386| 
         0000046f 0000 
    2040                      ; call occurs [#||GPIO_setPinConfig||] ; [] |1386| 
    2041                      .dwpsn  file "../clllc_hal.c",line 1388,column 9,is_stmt,isa 0
    2042 00000470 0202          MOVB      ACC,#2                ; [CPU_ALU] |1388| 
    2043 00000471 D401          MOVB      XAR4,#1               ; [CPU_ALU] |1388| 
    2044              $C$DW$139       .dwtag  DW_TAG_TI_branch
    2045                      .dwattr $C$DW$139, DW_AT_low_pc(0x00)
    2046                      .dwattr $C$DW$139, DW_AT_name("GPIO_setDirectionMode")
    2047                      .dwattr $C$DW$139, DW_AT_TI_call
    2048              
    2049 00000472 7640!         LCR       #||GPIO_setDirectionMode|| ; [CPU_ALU] |1388| 
         00000473 0000 
    2050                      ; call occurs [#||GPIO_setDirectionMode||] ; [] |1388| 
    2051                      .dwpsn  file "../clllc_hal.c",line 1389,column 9,is_stmt,isa 0
    2052 00000474 0200          MOVB      ACC,#0                ; [CPU_ALU] |1389| 
    2053 00000475 1E42          MOVL      *-SP[2],ACC           ; [CPU_ALU] |1389| 
    2054 00000476 0202          MOVB      ACC,#2                ; [CPU_ALU] |1389| 
    2055              $C$DW$140       .dwtag  DW_TAG_TI_branch
    2056                      .dwattr $C$DW$140, DW_AT_low_pc(0x00)
    2057                      .dwattr $C$DW$140, DW_AT_name("GPIO_setPadConfig")
    2058                      .dwattr $C$DW$140, DW_AT_TI_call
    2059              
TMS320C2000 Assembler PC v22.6.0 Mon Sep  2 11:55:45 2024

Copyright (c) 1996-2018 Texas Instruments Incorporated
clllc_hal.asm                                                        PAGE   47

    2060 00000477 7640!         LCR       #||GPIO_setPadConfig|| ; [CPU_ALU] |1389| 
         00000478 0000 
    2061                      ; call occurs [#||GPIO_setPadConfig||] ; [] |1389| 
    2062                      .dwpsn  file "../clllc_hal.c",line 1390,column 9,is_stmt,isa 0
    2063 00000479 8F06          MOVL      XAR4,#394241          ; [CPU_ARAU] |1390| 
         0000047a 0401 
    2064 0000047b A8A9          MOVL      ACC,XAR4              ; [CPU_ALU] |1390| 
    2065              $C$DW$141       .dwtag  DW_TAG_TI_branch
    2066                      .dwattr $C$DW$141, DW_AT_low_pc(0x00)
    2067                      .dwattr $C$DW$141, DW_AT_name("GPIO_setPinConfig")
    2068                      .dwattr $C$DW$141, DW_AT_TI_call
    2069              
    2070 0000047c 7640!         LCR       #||GPIO_setPinConfig|| ; [CPU_ALU] |1390| 
         0000047d 0000 
    2071                      ; call occurs [#||GPIO_setPinConfig||] ; [] |1390| 
    2072                      .dwpsn  file "../clllc_hal.c",line 1392,column 9,is_stmt,isa 0
    2073 0000047e D401          MOVB      XAR4,#1               ; [CPU_ALU] |1392| 
    2074 0000047f 0203          MOVB      ACC,#3                ; [CPU_ALU] |1392| 
    2075              $C$DW$142       .dwtag  DW_TAG_TI_branch
    2076                      .dwattr $C$DW$142, DW_AT_low_pc(0x00)
    2077                      .dwattr $C$DW$142, DW_AT_name("GPIO_setDirectionMode")
    2078                      .dwattr $C$DW$142, DW_AT_TI_call
    2079              
    2080 00000480 7640!         LCR       #||GPIO_setDirectionMode|| ; [CPU_ALU] |1392| 
         00000481 0000 
    2081                      ; call occurs [#||GPIO_setDirectionMode||] ; [] |1392| 
    2082                      .dwpsn  file "../clllc_hal.c",line 1393,column 9,is_stmt,isa 0
    2083 00000482 0200          MOVB      ACC,#0                ; [CPU_ALU] |1393| 
    2084 00000483 1E42          MOVL      *-SP[2],ACC           ; [CPU_ALU] |1393| 
    2085 00000484 0203          MOVB      ACC,#3                ; [CPU_ALU] |1393| 
    2086              $C$DW$143       .dwtag  DW_TAG_TI_branch
    2087                      .dwattr $C$DW$143, DW_AT_low_pc(0x00)
    2088                      .dwattr $C$DW$143, DW_AT_name("GPIO_setPadConfig")
    2089                      .dwattr $C$DW$143, DW_AT_TI_call
    2090              
    2091 00000485 7640!         LCR       #||GPIO_setPadConfig|| ; [CPU_ALU] |1393| 
         00000486 0000 
    2092                      ; call occurs [#||GPIO_setPadConfig||] ; [] |1393| 
    2093                      .dwpsn  file "../clllc_hal.c",line 1394,column 9,is_stmt,isa 0
    2094 00000487 8F06          MOVL      XAR4,#394753          ; [CPU_ARAU] |1394| 
         00000488 0601 
    2095 00000489 A8A9          MOVL      ACC,XAR4              ; [CPU_ALU] |1394| 
    2096              $C$DW$144       .dwtag  DW_TAG_TI_branch
    2097                      .dwattr $C$DW$144, DW_AT_low_pc(0x00)
    2098                      .dwattr $C$DW$144, DW_AT_name("GPIO_setPinConfig")
    2099                      .dwattr $C$DW$144, DW_AT_TI_call
    2100              
    2101 0000048a 7640!         LCR       #||GPIO_setPinConfig|| ; [CPU_ALU] |1394| 
         0000048b 0000 
    2102                      ; call occurs [#||GPIO_setPinConfig||] ; [] |1394| 
    2103 0000048c       ||$C$L10||:    
    2104 0000048c 92A1          MOV       AL,AR1                ; [CPU_ALU] 
    2105                      .dwpsn  file "../clllc_hal.c",line 1399,column 5,is_stmt,isa 0
    2106 0000048d 5202          CMPB      AL,#2                 ; [CPU_ALU] |1399| 
    2107 0000048e 6103          B         ||$C$L11||,EQ         ; [CPU_ALU] |1399| 
TMS320C2000 Assembler PC v22.6.0 Mon Sep  2 11:55:45 2024

Copyright (c) 1996-2018 Texas Instruments Incorporated
clllc_hal.asm                                                        PAGE   48

    2108                      ; branchcc occurs ; [] |1399| 
    2109 0000048f 5203          CMPB      AL,#3                 ; [CPU_ALU] |1399| 
    2110 00000490 6039          B         ||$C$L12||,NEQ        ; [CPU_ALU] |1399| 
    2111                      ; branchcc occurs ; [] |1399| 
    2112 00000491       ||$C$L11||:    
    2113                      .dwpsn  file "../clllc_hal.c",line 1402,column 9,is_stmt,isa 0
    2114 00000491 0205          MOVB      ACC,#5                ; [CPU_ALU] |1402| 
    2115 00000492 D401          MOVB      XAR4,#1               ; [CPU_ALU] |1402| 
    2116              $C$DW$145       .dwtag  DW_TAG_TI_branch
    2117                      .dwattr $C$DW$145, DW_AT_low_pc(0x00)
    2118                      .dwattr $C$DW$145, DW_AT_name("GPIO_setDirectionMode")
    2119                      .dwattr $C$DW$145, DW_AT_TI_call
    2120              
    2121 00000493 7640!         LCR       #||GPIO_setDirectionMode|| ; [CPU_ALU] |1402| 
         00000494 0000 
    2122                      ; call occurs [#||GPIO_setDirectionMode||] ; [] |1402| 
    2123                      .dwpsn  file "../clllc_hal.c",line 1403,column 9,is_stmt,isa 0
    2124 00000495 0200          MOVB      ACC,#0                ; [CPU_ALU] |1403| 
    2125 00000496 1E42          MOVL      *-SP[2],ACC           ; [CPU_ALU] |1403| 
    2126 00000497 0205          MOVB      ACC,#5                ; [CPU_ALU] |1403| 
    2127              $C$DW$146       .dwtag  DW_TAG_TI_branch
    2128                      .dwattr $C$DW$146, DW_AT_low_pc(0x00)
    2129                      .dwattr $C$DW$146, DW_AT_name("GPIO_setPadConfig")
    2130                      .dwattr $C$DW$146, DW_AT_TI_call
    2131              
    2132 00000498 7640!         LCR       #||GPIO_setPadConfig|| ; [CPU_ALU] |1403| 
         00000499 0000 
    2133                      ; call occurs [#||GPIO_setPadConfig||] ; [] |1403| 
    2134                      .dwpsn  file "../clllc_hal.c",line 1404,column 9,is_stmt,isa 0
    2135 0000049a 8F06          MOVL      XAR4,#395777          ; [CPU_ARAU] |1404| 
         0000049b 0A01 
    2136 0000049c A8A9          MOVL      ACC,XAR4              ; [CPU_ALU] |1404| 
    2137              $C$DW$147       .dwtag  DW_TAG_TI_branch
    2138                      .dwattr $C$DW$147, DW_AT_low_pc(0x00)
    2139                      .dwattr $C$DW$147, DW_AT_name("GPIO_setPinConfig")
    2140                      .dwattr $C$DW$147, DW_AT_TI_call
    2141              
    2142 0000049d 7640!         LCR       #||GPIO_setPinConfig|| ; [CPU_ALU] |1404| 
         0000049e 0000 
    2143                      ; call occurs [#||GPIO_setPinConfig||] ; [] |1404| 
    2144                      .dwpsn  file "../clllc_hal.c",line 1406,column 9,is_stmt,isa 0
    2145 0000049f D401          MOVB      XAR4,#1               ; [CPU_ALU] |1406| 
    2146 000004a0 0207          MOVB      ACC,#7                ; [CPU_ALU] |1406| 
    2147              $C$DW$148       .dwtag  DW_TAG_TI_branch
    2148                      .dwattr $C$DW$148, DW_AT_low_pc(0x00)
    2149                      .dwattr $C$DW$148, DW_AT_name("GPIO_setDirectionMode")
    2150                      .dwattr $C$DW$148, DW_AT_TI_call
    2151              
    2152 000004a1 7640!         LCR       #||GPIO_setDirectionMode|| ; [CPU_ALU] |1406| 
         000004a2 0000 
    2153                      ; call occurs [#||GPIO_setDirectionMode||] ; [] |1406| 
    2154                      .dwpsn  file "../clllc_hal.c",line 1407,column 9,is_stmt,isa 0
    2155 000004a3 0200          MOVB      ACC,#0                ; [CPU_ALU] |1407| 
    2156 000004a4 1E42          MOVL      *-SP[2],ACC           ; [CPU_ALU] |1407| 
    2157 000004a5 0207          MOVB      ACC,#7                ; [CPU_ALU] |1407| 
TMS320C2000 Assembler PC v22.6.0 Mon Sep  2 11:55:45 2024

Copyright (c) 1996-2018 Texas Instruments Incorporated
clllc_hal.asm                                                        PAGE   49

    2158              $C$DW$149       .dwtag  DW_TAG_TI_branch
    2159                      .dwattr $C$DW$149, DW_AT_low_pc(0x00)
    2160                      .dwattr $C$DW$149, DW_AT_name("GPIO_setPadConfig")
    2161                      .dwattr $C$DW$149, DW_AT_TI_call
    2162              
    2163 000004a6 7640!         LCR       #||GPIO_setPadConfig|| ; [CPU_ALU] |1407| 
         000004a7 0000 
    2164                      ; call occurs [#||GPIO_setPadConfig||] ; [] |1407| 
    2165                      .dwpsn  file "../clllc_hal.c",line 1408,column 9,is_stmt,isa 0
    2166 000004a8 8F06          MOVL      XAR4,#396801          ; [CPU_ARAU] |1408| 
         000004a9 0E01 
    2167 000004aa A8A9          MOVL      ACC,XAR4              ; [CPU_ALU] |1408| 
    2168              $C$DW$150       .dwtag  DW_TAG_TI_branch
    2169                      .dwattr $C$DW$150, DW_AT_low_pc(0x00)
    2170                      .dwattr $C$DW$150, DW_AT_name("GPIO_setPinConfig")
    2171                      .dwattr $C$DW$150, DW_AT_TI_call
    2172              
    2173 000004ab 7640!         LCR       #||GPIO_setPinConfig|| ; [CPU_ALU] |1408| 
         000004ac 0000 
    2174                      ; call occurs [#||GPIO_setPinConfig||] ; [] |1408| 
    2175                      .dwpsn  file "../clllc_hal.c",line 1410,column 9,is_stmt,isa 0
    2176 000004ad 0204          MOVB      ACC,#4                ; [CPU_ALU] |1410| 
    2177 000004ae D401          MOVB      XAR4,#1               ; [CPU_ALU] |1410| 
    2178              $C$DW$151       .dwtag  DW_TAG_TI_branch
    2179                      .dwattr $C$DW$151, DW_AT_low_pc(0x00)
    2180                      .dwattr $C$DW$151, DW_AT_name("GPIO_setDirectionMode")
    2181                      .dwattr $C$DW$151, DW_AT_TI_call
    2182              
    2183 000004af 7640!         LCR       #||GPIO_setDirectionMode|| ; [CPU_ALU] |1410| 
         000004b0 0000 
    2184                      ; call occurs [#||GPIO_setDirectionMode||] ; [] |1410| 
    2185                      .dwpsn  file "../clllc_hal.c",line 1411,column 9,is_stmt,isa 0
    2186 000004b1 0200          MOVB      ACC,#0                ; [CPU_ALU] |1411| 
    2187 000004b2 1E42          MOVL      *-SP[2],ACC           ; [CPU_ALU] |1411| 
    2188 000004b3 0204          MOVB      ACC,#4                ; [CPU_ALU] |1411| 
    2189              $C$DW$152       .dwtag  DW_TAG_TI_branch
    2190                      .dwattr $C$DW$152, DW_AT_low_pc(0x00)
    2191                      .dwattr $C$DW$152, DW_AT_name("GPIO_setPadConfig")
    2192                      .dwattr $C$DW$152, DW_AT_TI_call
    2193              
    2194 000004b4 7640!         LCR       #||GPIO_setPadConfig|| ; [CPU_ALU] |1411| 
         000004b5 0000 
    2195                      ; call occurs [#||GPIO_setPadConfig||] ; [] |1411| 
    2196                      .dwpsn  file "../clllc_hal.c",line 1412,column 9,is_stmt,isa 0
    2197 000004b6 8F06          MOVL      XAR4,#395265          ; [CPU_ARAU] |1412| 
         000004b7 0801 
    2198 000004b8 A8A9          MOVL      ACC,XAR4              ; [CPU_ALU] |1412| 
    2199              $C$DW$153       .dwtag  DW_TAG_TI_branch
    2200                      .dwattr $C$DW$153, DW_AT_low_pc(0x00)
    2201                      .dwattr $C$DW$153, DW_AT_name("GPIO_setPinConfig")
    2202                      .dwattr $C$DW$153, DW_AT_TI_call
    2203              
    2204 000004b9 7640!         LCR       #||GPIO_setPinConfig|| ; [CPU_ALU] |1412| 
         000004ba 0000 
    2205                      ; call occurs [#||GPIO_setPinConfig||] ; [] |1412| 
TMS320C2000 Assembler PC v22.6.0 Mon Sep  2 11:55:45 2024

Copyright (c) 1996-2018 Texas Instruments Incorporated
clllc_hal.asm                                                        PAGE   50

    2206                      .dwpsn  file "../clllc_hal.c",line 1414,column 9,is_stmt,isa 0
    2207 000004bb D401          MOVB      XAR4,#1               ; [CPU_ALU] |1414| 
    2208 000004bc 0206          MOVB      ACC,#6                ; [CPU_ALU] |1414| 
    2209              $C$DW$154       .dwtag  DW_TAG_TI_branch
    2210                      .dwattr $C$DW$154, DW_AT_low_pc(0x00)
    2211                      .dwattr $C$DW$154, DW_AT_name("GPIO_setDirectionMode")
    2212                      .dwattr $C$DW$154, DW_AT_TI_call
    2213              
    2214 000004bd 7640!         LCR       #||GPIO_setDirectionMode|| ; [CPU_ALU] |1414| 
         000004be 0000 
    2215                      ; call occurs [#||GPIO_setDirectionMode||] ; [] |1414| 
    2216                      .dwpsn  file "../clllc_hal.c",line 1415,column 9,is_stmt,isa 0
    2217 000004bf 0200          MOVB      ACC,#0                ; [CPU_ALU] |1415| 
    2218 000004c0 1E42          MOVL      *-SP[2],ACC           ; [CPU_ALU] |1415| 
    2219 000004c1 0206          MOVB      ACC,#6                ; [CPU_ALU] |1415| 
    2220              $C$DW$155       .dwtag  DW_TAG_TI_branch
    2221                      .dwattr $C$DW$155, DW_AT_low_pc(0x00)
    2222                      .dwattr $C$DW$155, DW_AT_name("GPIO_setPadConfig")
    2223                      .dwattr $C$DW$155, DW_AT_TI_call
    2224              
    2225 000004c2 7640!         LCR       #||GPIO_setPadConfig|| ; [CPU_ALU] |1415| 
         000004c3 0000 
    2226                      ; call occurs [#||GPIO_setPadConfig||] ; [] |1415| 
    2227                      .dwpsn  file "../clllc_hal.c",line 1416,column 9,is_stmt,isa 0
    2228 000004c4 8F06          MOVL      XAR4,#396289          ; [CPU_ARAU] |1416| 
         000004c5 0C01 
    2229 000004c6 A8A9          MOVL      ACC,XAR4              ; [CPU_ALU] |1416| 
    2230              $C$DW$156       .dwtag  DW_TAG_TI_branch
    2231                      .dwattr $C$DW$156, DW_AT_low_pc(0x00)
    2232                      .dwattr $C$DW$156, DW_AT_name("GPIO_setPinConfig")
    2233                      .dwattr $C$DW$156, DW_AT_TI_call
    2234              
    2235 000004c7 7640!         LCR       #||GPIO_setPinConfig|| ; [CPU_ALU] |1416| 
         000004c8 0000 
    2236                      ; call occurs [#||GPIO_setPinConfig||] ; [] |1416| 
    2237 000004c9       ||$C$L12||:    
    2238 000004c9 FE82          SUBB      SP,#2                 ; [CPU_ARAU] 
    2239                      .dwcfi  cfa_offset, -4
    2240 000004ca 8BBE          MOVL      XAR1,*--SP            ; [CPU_ALU] 
    2241                      .dwcfi  cfa_offset, -2
    2242                      .dwcfi  restore_reg, 7
    2243              $C$DW$157       .dwtag  DW_TAG_TI_branch
    2244                      .dwattr $C$DW$157, DW_AT_low_pc(0x00)
    2245                      .dwattr $C$DW$157, DW_AT_TI_return
    2246              
    2247 000004cb 0006          LRETR     ; [CPU_ALU] 
    2248                      ; return occurs ; [] 
    2249                      .dwattr $C$DW$122, DW_AT_TI_end_file("../clllc_hal.c")
    2250                      .dwattr $C$DW$122, DW_AT_TI_end_line(0x58a)
    2251                      .dwattr $C$DW$122, DW_AT_TI_end_column(0x01)
    2252                      .dwendentry
    2253                      .dwendtag $C$DW$122
    2254              
    2255 000004cc               .sect   ".text"
    2256                      .clink
TMS320C2000 Assembler PC v22.6.0 Mon Sep  2 11:55:45 2024

Copyright (c) 1996-2018 Texas Instruments Incorporated
clllc_hal.asm                                                        PAGE   51

    2257                      .global ||CLLLC_HAL_setupPWMinUpDownCountMode||
    2258              
    2259              $C$DW$158       .dwtag  DW_TAG_subprogram
    2260                      .dwattr $C$DW$158, DW_AT_name("CLLLC_HAL_setupPWMinUpDownCountMode")
    2261                      .dwattr $C$DW$158, DW_AT_low_pc(||CLLLC_HAL_setupPWMinUpDownCountMode||)
    2262                      .dwattr $C$DW$158, DW_AT_high_pc(0x00)
    2263                      .dwattr $C$DW$158, DW_AT_linkage_name("CLLLC_HAL_setupPWMinUpDownCountMode")
    2264                      .dwattr $C$DW$158, DW_AT_external
    2265                      .dwattr $C$DW$158, DW_AT_decl_file("../clllc_hal.c")
    2266                      .dwattr $C$DW$158, DW_AT_decl_line(0x71a)
    2267                      .dwattr $C$DW$158, DW_AT_decl_column(0x06)
    2268                      .dwattr $C$DW$158, DW_AT_TI_max_frame_size(-4)
    2269                      .dwpsn  file "../clllc_hal.c",line 1821,column 1,is_stmt,address ||CLLLC_HAL_setupPWMinUpDownCountMod
    2270              
    2271                      .dwfde $C$DW$CIE, ||CLLLC_HAL_setupPWMinUpDownCountMode||
    2272              $C$DW$159       .dwtag  DW_TAG_formal_parameter
    2273                      .dwattr $C$DW$159, DW_AT_name("base1")
    2274                      .dwattr $C$DW$159, DW_AT_type(*$C$DW$T$142)
    2275                      .dwattr $C$DW$159, DW_AT_location[DW_OP_reg0]
    2276              
    2277              $C$DW$160       .dwtag  DW_TAG_formal_parameter
    2278                      .dwattr $C$DW$160, DW_AT_name("pwmFreq_Hz")
    2279                      .dwattr $C$DW$160, DW_AT_type(*$C$DW$T$222)
    2280                      .dwattr $C$DW$160, DW_AT_location[DW_OP_regx 0x2b]
    2281              
    2282              $C$DW$161       .dwtag  DW_TAG_formal_parameter
    2283                      .dwattr $C$DW$161, DW_AT_name("pwmSysClkFreq_Hz")
    2284                      .dwattr $C$DW$161, DW_AT_type(*$C$DW$T$222)
    2285                      .dwattr $C$DW$161, DW_AT_location[DW_OP_regx 0x2f]
    2286              
    2287              
    2288              ;***************************************************************
    2289              ;* FNAME: CLLLC_HAL_setupPWMinUpDownCountMode FR SIZE:   2           *
    2290              ;*                                                             *
    2291              ;* FUNCTION ENVIRONMENT                                        *
    2292              ;*                                                             *
    2293              ;* FUNCTION PROPERTIES                                         *
    2294              ;*                            0 Parameter,  0 Auto,  2 SOE     *
    2295              ;***************************************************************
    2296              
    2297              ||CLLLC_HAL_setupPWMinUpDownCountMode||:
    2298              ;* AR5   assigned to $O$C1
    2299              ;* AR4   assigned to base1
    2300              $C$DW$162       .dwtag  DW_TAG_variable
    2301                      .dwattr $C$DW$162, DW_AT_name("base1")
    2302                      .dwattr $C$DW$162, DW_AT_type(*$C$DW$T$246)
    2303                      .dwattr $C$DW$162, DW_AT_location[DW_OP_reg12]
    2304              
    2305              ;* R0    assigned to pwmFreq_Hz
    2306              $C$DW$163       .dwtag  DW_TAG_variable
    2307                      .dwattr $C$DW$163, DW_AT_name("pwmFreq_Hz")
    2308                      .dwattr $C$DW$163, DW_AT_type(*$C$DW$T$248)
    2309                      .dwattr $C$DW$163, DW_AT_location[DW_OP_regx 0x2b]
    2310              
    2311              ;* R1    assigned to pwmSysClkFreq_Hz
TMS320C2000 Assembler PC v22.6.0 Mon Sep  2 11:55:45 2024

Copyright (c) 1996-2018 Texas Instruments Incorporated
clllc_hal.asm                                                        PAGE   52

    2312              $C$DW$164       .dwtag  DW_TAG_variable
    2313                      .dwattr $C$DW$164, DW_AT_name("pwmSysClkFreq_Hz")
    2314                      .dwattr $C$DW$164, DW_AT_type(*$C$DW$T$248)
    2315                      .dwattr $C$DW$164, DW_AT_location[DW_OP_regx 0x2f]
    2316              
    2317                      .dwcfi  cfa_offset, -2
    2318                      .dwcfi  save_reg_to_mem, 26, 0
    2319 000004cc B2BD          MOVL      *SP++,XAR1            ; [CPU_ALU] 
    2320                      .dwcfi  save_reg_to_mem, 7, 2
    2321                      .dwcfi  cfa_offset, -4
    2322                      .dwpsn  file "C:/Users/ZXC/Documents/mcu project/ti-project/clllc_nonpowerSUITE_F28004x/device/driver
    2323 000004cd E274          DIVF32    R0H,R1H,R0H           ; [CPU_FPU] |2185| 
         000004ce 0008 
    2324                      .dwpsn  file "../clllc_hal.c",line 1821,column 1,is_stmt,isa 0
    2325 000004cf 8AA9          MOVL      XAR4,ACC              ; [CPU_ALU] |1821| 
    2326 000004d0 83A9          MOVL      XAR5,ACC              ; [CPU_ALU] |1821| 
    2327 000004d1 2901          CLRC      SXM                   ; [CPU_ALU] 
    2328                      .dwpsn  file "C:/Users/ZXC/Documents/mcu project/ti-project/clllc_nonpowerSUITE_F28004x/device/driver
    2329 000004d2 D163          MOVB      XAR1,#99              ; [CPU_ALU] |2185| 
    2330 000004d3 E68A          F32TOUI32 R0H,R0H               ; [CPU_FPU] |2185| 
         000004d4 0000 
    2331                      .dwpsn  file "C:/Users/ZXC/Documents/mcu project/ti-project/clllc_nonpowerSUITE_F28004x/device/driver
    2332 000004d5 D060          MOVB      XAR0,#96              ; [CPU_ALU] |2151| 
    2333                      .dwpsn  file "C:/Users/ZXC/Documents/mcu project/ti-project/clllc_nonpowerSUITE_F28004x/device/driver
    2334 000004d6 1AC4          OR        *+XAR4[0],#0x0008     ; [CPU_ALU] |1769| 
         000004d7 0008 
    2335                      .dwpsn  file "C:/Users/ZXC/Documents/mcu project/ti-project/clllc_nonpowerSUITE_F28004x/device/driver
    2336 000004d8 BFA9          MOV32     ACC,R0H               ; [CPU_FPU] |2185| 
         000004d9 0F12 
    2337                      .dwpsn  file "C:/Users/ZXC/Documents/mcu project/ti-project/clllc_nonpowerSUITE_F28004x/device/driver
    2338 000004da DD08          ADDB      XAR5,#8               ; [CPU_ALU] |2340| 
    2339                      .dwpsn  file "C:/Users/ZXC/Documents/mcu project/ti-project/clllc_nonpowerSUITE_F28004x/device/driver
    2340 000004db FF40          SFR       ACC,1                 ; [CPU_ALU] |2185| 
    2341 000004dc 969C          MOV       *+XAR4[AR1],AL        ; [CPU_ALU] |2185| 
    2342                      .dwpsn  file "C:/Users/ZXC/Documents/mcu project/ti-project/clllc_nonpowerSUITE_F28004x/device/driver
    2343 000004dd 2BE4          MOV       *+XAR4[4],#0          ; [CPU_ALU] |1552| 
    2344                      .dwpsn  file "../clllc_hal.c",line 1855,column 5,is_stmt,isa 0
    2345 000004de D140          MOVB      XAR1,#64              ; [CPU_ALU] |1855| 
    2346                      .dwpsn  file "C:/Users/ZXC/Documents/mcu project/ti-project/clllc_nonpowerSUITE_F28004x/device/driver
    2347 000004df 0694          MOVL      ACC,*+XAR4[AR0]       ; [CPU_FPU] |2151| 
    2348 000004e0 D060          MOVB      XAR0,#96              ; [CPU_FPU] |2151| 
    2349 000004e1 9100          ANDB      AH,#0                 ; [CPU_ALU] |2151| 
    2350 000004e2 1E94          MOVL      *+XAR4[AR0],ACC       ; [CPU_FPU] |2151| 
    2351                      .dwpsn  file "C:/Users/ZXC/Documents/mcu project/ti-project/clllc_nonpowerSUITE_F28004x/device/driver
    2352 000004e3 D06B          MOVB      XAR0,#107             ; [CPU_FPU] |2445| 
    2353                      .dwpsn  file "C:/Users/ZXC/Documents/mcu project/ti-project/clllc_nonpowerSUITE_F28004x/device/driver
    2354 000004e4 CCC4          AND       AL,*+XAR4[0],#0xfffe  ; [CPU_FPU] |1852| 
         000004e5 FFFE 
    2355 000004e6 5002          ORB       AL,#0x02              ; [CPU_ALU] |1852| 
    2356 000004e7 96C4          MOV       *+XAR4[0],AL          ; [CPU_FPU] |1852| 
    2357                      .dwpsn  file "C:/Users/ZXC/Documents/mcu project/ti-project/clllc_nonpowerSUITE_F28004x/device/driver
    2358 000004e8 18C4          AND       *+XAR4[0],#0xe07f     ; [CPU_FPU] |1630| 
         000004e9 E07F 
    2359                      .dwpsn  file "C:/Users/ZXC/Documents/mcu project/ti-project/clllc_nonpowerSUITE_F28004x/device/driver
    2360 000004ea 18C4          AND       *+XAR4[0],#0xfffb     ; [CPU_FPU] |1821| 
TMS320C2000 Assembler PC v22.6.0 Mon Sep  2 11:55:45 2024

Copyright (c) 1996-2018 Texas Instruments Incorporated
clllc_hal.asm                                                        PAGE   53

         000004eb FFFB 
    2361                      .dwpsn  file "C:/Users/ZXC/Documents/mcu project/ti-project/clllc_nonpowerSUITE_F28004x/device/driver
    2362 000004ec CCC4          AND       AL,*+XAR4[0],#0xffdf  ; [CPU_FPU] |1709| 
         000004ed FFDF 
    2363 000004ee 5010          ORB       AL,#0x10              ; [CPU_ALU] |1709| 
    2364 000004ef 96C4          MOV       *+XAR4[0],AL          ; [CPU_FPU] |1709| 
    2365                      .dwpsn  file "C:/Users/ZXC/Documents/mcu project/ti-project/clllc_nonpowerSUITE_F28004x/device/driver
    2366 000004f0 2B94          MOV       *+XAR4[AR0],#0        ; [CPU_FPU] |2445| 
    2367                      .dwpsn  file "C:/Users/ZXC/Documents/mcu project/ti-project/clllc_nonpowerSUITE_F28004x/device/driver
    2368 000004f1 D040          MOVB      XAR0,#64              ; [CPU_FPU] |2806| 
    2369                      .dwpsn  file "C:/Users/ZXC/Documents/mcu project/ti-project/clllc_nonpowerSUITE_F28004x/device/driver
    2370 000004f2 18C5          AND       *+XAR5[0],#0xf3ec     ; [CPU_ALU] |2340| 
         000004f3 F3EC 
    2371                      .dwpsn  file "../clllc_hal.c",line 1855,column 5,is_stmt,isa 0
    2372 000004f4 2B9C          MOV       *+XAR4[AR1],#0        ; [CPU_ALU] |1855| 
    2373                      .dwpsn  file "C:/Users/ZXC/Documents/mcu project/ti-project/clllc_nonpowerSUITE_F28004x/device/driver
    2374 000004f5 D140          MOVB      XAR1,#64              ; [CPU_ALU] |2806| 
    2375 000004f6 CC94          AND       AL,*+XAR4[AR0],#0xffdf ; [CPU_ALU] |2806| 
         000004f7 FFDF 
    2376 000004f8 5010          ORB       AL,#0x10              ; [CPU_ALU] |2806| 
    2377 000004f9 D040          MOVB      XAR0,#64              ; [CPU_ALU] |2806| 
    2378 000004fa 969C          MOV       *+XAR4[AR1],AL        ; [CPU_ALU] |2806| 
    2379 000004fb CC94          AND       AL,*+XAR4[AR0],#0xfffe ; [CPU_ALU] |2806| 
         000004fc FFFE 
    2380 000004fd D040          MOVB      XAR0,#64              ; [CPU_ALU] |2806| 
    2381 000004fe 5002          ORB       AL,#0x02              ; [CPU_ALU] |2806| 
    2382 000004ff 9694          MOV       *+XAR4[AR0],AL        ; [CPU_ALU] |2806| 
    2383 00000500 8BBE          MOVL      XAR1,*--SP            ; [CPU_ALU] 
    2384                      .dwcfi  cfa_offset, -2
    2385                      .dwcfi  restore_reg, 7
    2386              $C$DW$165       .dwtag  DW_TAG_TI_branch
    2387                      .dwattr $C$DW$165, DW_AT_low_pc(0x00)
    2388                      .dwattr $C$DW$165, DW_AT_TI_return
    2389              
    2390 00000501 0006          LRETR     ; [CPU_ALU] 
    2391                      ; return occurs ; [] 
    2392                      .dwattr $C$DW$158, DW_AT_TI_end_file("../clllc_hal.c")
    2393                      .dwattr $C$DW$158, DW_AT_TI_end_line(0x747)
    2394                      .dwattr $C$DW$158, DW_AT_TI_end_column(0x01)
    2395                      .dwendentry
    2396                      .dwendtag $C$DW$158
    2397              
    2398 00000502               .sect   ".text"
    2399                      .clink
    2400                      .global ||CLLLC_HAL_setupHRPWMinUpDownCount2ChAsymmetricMode||
    2401              
    2402              $C$DW$166       .dwtag  DW_TAG_subprogram
    2403                      .dwattr $C$DW$166, DW_AT_name("CLLLC_HAL_setupHRPWMinUpDownCount2ChAsymmetricMode")
    2404                      .dwattr $C$DW$166, DW_AT_low_pc(||CLLLC_HAL_setupHRPWMinUpDownCount2ChAsymmetricMode||)
    2405                      .dwattr $C$DW$166, DW_AT_high_pc(0x00)
    2406                      .dwattr $C$DW$166, DW_AT_linkage_name("CLLLC_HAL_setupHRPWMinUpDownCount2ChAsymmetricMode")
    2407                      .dwattr $C$DW$166, DW_AT_external
    2408                      .dwattr $C$DW$166, DW_AT_decl_file("../clllc_hal.c")
    2409                      .dwattr $C$DW$166, DW_AT_decl_line(0x7e4)
    2410                      .dwattr $C$DW$166, DW_AT_decl_column(0x06)
TMS320C2000 Assembler PC v22.6.0 Mon Sep  2 11:55:45 2024

Copyright (c) 1996-2018 Texas Instruments Incorporated
clllc_hal.asm                                                        PAGE   54

    2411                      .dwattr $C$DW$166, DW_AT_TI_max_frame_size(-4)
    2412                      .dwpsn  file "../clllc_hal.c",line 2023,column 1,is_stmt,address ||CLLLC_HAL_setupHRPWMinUpDownCount2
    2413              
    2414                      .dwfde $C$DW$CIE, ||CLLLC_HAL_setupHRPWMinUpDownCount2ChAsymmetricMode||
    2415              $C$DW$167       .dwtag  DW_TAG_formal_parameter
    2416                      .dwattr $C$DW$167, DW_AT_name("base1")
    2417                      .dwattr $C$DW$167, DW_AT_type(*$C$DW$T$142)
    2418                      .dwattr $C$DW$167, DW_AT_location[DW_OP_reg0]
    2419              
    2420              $C$DW$168       .dwtag  DW_TAG_formal_parameter
    2421                      .dwattr $C$DW$168, DW_AT_name("pwmFreq_Hz")
    2422                      .dwattr $C$DW$168, DW_AT_type(*$C$DW$T$222)
    2423                      .dwattr $C$DW$168, DW_AT_location[DW_OP_regx 0x2b]
    2424              
    2425              $C$DW$169       .dwtag  DW_TAG_formal_parameter
    2426                      .dwattr $C$DW$169, DW_AT_name("pwmSysClkFreq_Hz")
    2427                      .dwattr $C$DW$169, DW_AT_type(*$C$DW$T$222)
    2428                      .dwattr $C$DW$169, DW_AT_location[DW_OP_regx 0x2f]
    2429              
    2430              
    2431              ;***************************************************************
    2432              ;* FNAME: CLLLC_HAL_setupHRPWMinUpDownCount2ChAsymmetricMode FR SIZE:   2           *
    2433              ;*                                                             *
    2434              ;* FUNCTION ENVIRONMENT                                        *
    2435              ;*                                                             *
    2436              ;* FUNCTION PROPERTIES                                         *
    2437              ;*                            0 Parameter,  0 Auto,  2 SOE     *
    2438              ;***************************************************************
    2439              
    2440              ||CLLLC_HAL_setupHRPWMinUpDownCount2ChAsymmetricMode||:
    2441              ;* AL    assigned to $O$C1
    2442              ;* AR5   assigned to $O$C2
    2443              ;* AR6   assigned to $O$C3
    2444              ;* AR4   assigned to base1
    2445              $C$DW$170       .dwtag  DW_TAG_variable
    2446                      .dwattr $C$DW$170, DW_AT_name("base1")
    2447                      .dwattr $C$DW$170, DW_AT_type(*$C$DW$T$246)
    2448                      .dwattr $C$DW$170, DW_AT_location[DW_OP_reg12]
    2449              
    2450              ;* R0    assigned to pwmFreq_Hz
    2451              $C$DW$171       .dwtag  DW_TAG_variable
    2452                      .dwattr $C$DW$171, DW_AT_name("pwmFreq_Hz")
    2453                      .dwattr $C$DW$171, DW_AT_type(*$C$DW$T$248)
    2454                      .dwattr $C$DW$171, DW_AT_location[DW_OP_regx 0x2b]
    2455              
    2456              ;* R1    assigned to pwmSysClkFreq_Hz
    2457              $C$DW$172       .dwtag  DW_TAG_variable
    2458                      .dwattr $C$DW$172, DW_AT_name("pwmSysClkFreq_Hz")
    2459                      .dwattr $C$DW$172, DW_AT_type(*$C$DW$T$248)
    2460                      .dwattr $C$DW$172, DW_AT_location[DW_OP_regx 0x2f]
    2461              
    2462                      .dwcfi  cfa_offset, -2
    2463                      .dwcfi  save_reg_to_mem, 26, 0
    2464                      .dwpsn  file "C:/Users/ZXC/Documents/mcu project/ti-project/clllc_nonpowerSUITE_F28004x/device/driver
    2465 00000502 E274          DIVF32    R0H,R1H,R0H           ; [CPU_FPU] |2185| 
TMS320C2000 Assembler PC v22.6.0 Mon Sep  2 11:55:45 2024

Copyright (c) 1996-2018 Texas Instruments Incorporated
clllc_hal.asm                                                        PAGE   55

         00000503 0008 
    2466 00000504 7700          NOP       ; [CPU_ALU] 
    2467 00000505 B2BD          MOVL      *SP++,XAR1            ; [CPU_ALU] 
    2468                      .dwcfi  save_reg_to_mem, 7, 2
    2469                      .dwcfi  cfa_offset, -4
    2470                      .dwpsn  file "../clllc_hal.c",line 2023,column 1,is_stmt,isa 0
    2471 00000506 8AA9          MOVL      XAR4,ACC              ; [CPU_ALU] |2023| 
    2472 00000507 83A9          MOVL      XAR5,ACC              ; [CPU_ALU] |2023| 
    2473                      .dwpsn  file "C:/Users/ZXC/Documents/mcu project/ti-project/clllc_nonpowerSUITE_F28004x/device/driver
    2474 00000508 E68A          F32TOUI32 R0H,R0H               ; [CPU_FPU] |2185| 
         00000509 0000 
    2475 0000050a 2901          CLRC      SXM                   ; [CPU_ALU] 
    2476 0000050b D163          MOVB      XAR1,#99              ; [CPU_ALU] |2185| 
    2477 0000050c BFA6          MOV32     XAR6,R0H              ; [CPU_FPU] |2185| 
         0000050d 0F12 
    2478                      .dwpsn  file "C:/Users/ZXC/Documents/mcu project/ti-project/clllc_nonpowerSUITE_F28004x/device/driver
    2479 0000050e 18C4          AND       *+XAR4[0],#0xfff7     ; [CPU_ALU] |1762| 
         0000050f FFF7 
    2480                      .dwpsn  file "C:/Users/ZXC/Documents/mcu project/ti-project/clllc_nonpowerSUITE_F28004x/device/driver
    2481 00000510 D060          MOVB      XAR0,#96              ; [CPU_ALU] |2151| 
    2482                      .dwpsn  file "C:/Users/ZXC/Documents/mcu project/ti-project/clllc_nonpowerSUITE_F28004x/device/driver
    2483 00000511 DD08          ADDB      XAR5,#8               ; [CPU_ALU] |2340| 
    2484                      .dwpsn  file "C:/Users/ZXC/Documents/mcu project/ti-project/clllc_nonpowerSUITE_F28004x/device/driver
    2485 00000512 06A6          MOVL      ACC,XAR6              ; [CPU_ALU] |2185| 
    2486 00000513 FF40          SFR       ACC,1                 ; [CPU_ALU] |2185| 
    2487 00000514 969C          MOV       *+XAR4[AR1],AL        ; [CPU_ALU] |2185| 
    2488                      .dwpsn  file "C:/Users/ZXC/Documents/mcu project/ti-project/clllc_nonpowerSUITE_F28004x/device/driver
    2489 00000515 2BE4          MOV       *+XAR4[4],#0          ; [CPU_ALU] |1552| 
    2490                      .dwpsn  file "C:/Users/ZXC/Documents/mcu project/ti-project/clllc_nonpowerSUITE_F28004x/device/driver
    2491 00000516 A394          MOVL      P,*+XAR4[AR0]         ; [CPU_FPU] |2151| 
    2492 00000517 D060          MOVB      XAR0,#96              ; [CPU_FPU] |2151| 
    2493 00000518 18AA          AND       PH,#0                 ; [CPU_ALU] |2151| 
         00000519 0000 
    2494 0000051a A994          MOVL      *+XAR4[AR0],P         ; [CPU_FPU] |2151| 
    2495                      .dwpsn  file "C:/Users/ZXC/Documents/mcu project/ti-project/clllc_nonpowerSUITE_F28004x/device/driver
    2496 0000051b D06B          MOVB      XAR0,#107             ; [CPU_FPU] |2445| 
    2497                      .dwpsn  file "C:/Users/ZXC/Documents/mcu project/ti-project/clllc_nonpowerSUITE_F28004x/device/driver
    2498 0000051c CCC4          AND       AL,*+XAR4[0],#0xfffe  ; [CPU_FPU] |1852| 
         0000051d FFFE 
    2499 0000051e 5002          ORB       AL,#0x02              ; [CPU_ALU] |1852| 
    2500 0000051f 96C4          MOV       *+XAR4[0],AL          ; [CPU_FPU] |1852| 
    2501                      .dwpsn  file "C:/Users/ZXC/Documents/mcu project/ti-project/clllc_nonpowerSUITE_F28004x/device/driver
    2502 00000520 06A6          MOVL      ACC,XAR6              ; [CPU_FPU] |2445| 
    2503 00000521 FF41          SFR       ACC,2                 ; [CPU_ALU] |2445| 
    2504                      .dwpsn  file "C:/Users/ZXC/Documents/mcu project/ti-project/clllc_nonpowerSUITE_F28004x/device/driver
    2505 00000522 18C4          AND       *+XAR4[0],#0xe07f     ; [CPU_FPU] |1630| 
         00000523 E07F 
    2506                      .dwpsn  file "C:/Users/ZXC/Documents/mcu project/ti-project/clllc_nonpowerSUITE_F28004x/device/driver
    2507 00000524 9694          MOV       *+XAR4[AR0],AL        ; [CPU_FPU] |2445| 
    2508 00000525 D06D          MOVB      XAR0,#109             ; [CPU_FPU] |2445| 
    2509                      .dwpsn  file "C:/Users/ZXC/Documents/mcu project/ti-project/clllc_nonpowerSUITE_F28004x/device/driver
    2510 00000526 CDC5          AND       AH,*+XAR5[0],#0xf3ee  ; [CPU_ALU] |2340| 
         00000527 F3EE 
    2511 00000528 5102          ORB       AH,#0x02              ; [CPU_ALU] |2340| 
    2512 00000529 97C5          MOV       *+XAR5[0],AH          ; [CPU_ALU] |2340| 
TMS320C2000 Assembler PC v22.6.0 Mon Sep  2 11:55:45 2024

Copyright (c) 1996-2018 Texas Instruments Incorporated
clllc_hal.asm                                                        PAGE   56

    2513                      .dwpsn  file "C:/Users/ZXC/Documents/mcu project/ti-project/clllc_nonpowerSUITE_F28004x/device/driver
    2514 0000052a 9694          MOV       *+XAR4[AR0],AL        ; [CPU_ALU] |2445| 
    2515                      .dwpsn  file "../clllc_hal.c",line 2054,column 5,is_stmt,isa 0
    2516 0000052b 7622          EALLOW    ; [CPU_ALU] |2054| 
    2517                      .dwpsn  file "../clllc_hal.c",line 2058,column 5,is_stmt,isa 0
    2518 0000052c D040          MOVB      XAR0,#64              ; [CPU_ALU] |2058| 
    2519                      .dwpsn  file "../clllc_hal.c",line 2059,column 5,is_stmt,isa 0
    2520 0000052d D142          MOVB      XAR1,#66              ; [CPU_ALU] |2059| 
    2521                      .dwpsn  file "../clllc_hal.c",line 2058,column 5,is_stmt,isa 0
    2522 0000052e 2B94          MOV       *+XAR4[AR0],#0        ; [CPU_ALU] |2058| 
    2523                      .dwpsn  file "../clllc_hal.c",line 2061,column 5,is_stmt,isa 0
    2524 0000052f D0C4          MOVB      XAR0,#196             ; [CPU_ALU] |2061| 
    2525                      .dwpsn  file "../clllc_hal.c",line 2059,column 5,is_stmt,isa 0
    2526 00000530 2B9C          MOV       *+XAR4[AR1],#0        ; [CPU_ALU] |2059| 
    2527                      .dwpsn  file "../clllc_hal.c",line 2061,column 5,is_stmt,isa 0
    2528 00000531 2B94          MOV       *+XAR4[AR0],#0        ; [CPU_ALU] |2061| 
    2529                      .dwpsn  file "../clllc_hal.c",line 2062,column 5,is_stmt,isa 0
    2530 00000532 761A          EDIS      ; [CPU_ALU] |2062| 
    2531                      .dwpsn  file "C:/Users/ZXC/Documents/mcu project/ti-project/clllc_nonpowerSUITE_F28004x/device/driver
    2532 00000533 D040          MOVB      XAR0,#64              ; [CPU_ALU] |2806| 
    2533 00000534 D140          MOVB      XAR1,#64              ; [CPU_ALU] |2806| 
    2534 00000535 CC94          AND       AL,*+XAR4[AR0],#0xfffe ; [CPU_ALU] |2806| 
         00000536 FFFE 
    2535 00000537 5002          ORB       AL,#0x02              ; [CPU_ALU] |2806| 
    2536 00000538 D040          MOVB      XAR0,#64              ; [CPU_ALU] |2806| 
    2537 00000539 969C          MOV       *+XAR4[AR1],AL        ; [CPU_ALU] |2806| 
    2538 0000053a D140          MOVB      XAR1,#64              ; [CPU_ALU] |2806| 
    2539 0000053b CC94          AND       AL,*+XAR4[AR0],#0xffdf ; [CPU_ALU] |2806| 
         0000053c FFDF 
    2540 0000053d 5010          ORB       AL,#0x10              ; [CPU_ALU] |2806| 
    2541 0000053e D042          MOVB      XAR0,#66              ; [CPU_ALU] |2806| 
    2542 0000053f 969C          MOV       *+XAR4[AR1],AL        ; [CPU_ALU] |2806| 
    2543 00000540 D142          MOVB      XAR1,#66              ; [CPU_ALU] |2806| 
    2544 00000541 CC94          AND       AL,*+XAR4[AR0],#0xfffb ; [CPU_ALU] |2806| 
         00000542 FFFB 
    2545 00000543 5008          ORB       AL,#0x08              ; [CPU_ALU] |2806| 
    2546 00000544 D042          MOVB      XAR0,#66              ; [CPU_ALU] |2806| 
    2547 00000545 969C          MOV       *+XAR4[AR1],AL        ; [CPU_ALU] |2806| 
    2548 00000546 CC94          AND       AL,*+XAR4[AR0],#0xf7ff ; [CPU_ALU] |2806| 
         00000547 F7FF 
    2549 00000548 D042          MOVB      XAR0,#66              ; [CPU_ALU] |2806| 
    2550 00000549 1AA9          OR        AL,#0x0400            ; [CPU_ALU] |2806| 
         0000054a 0400 
    2551 0000054b 9694          MOV       *+XAR4[AR0],AL        ; [CPU_ALU] |2806| 
    2552                      .dwpsn  file "C:/Users/ZXC/Documents/mcu project/ti-project/clllc_nonpowerSUITE_F28004x/device/driver
    2553 0000054c 7622          EALLOW    ; [CPU_ALU] |756| 
    2554                      .dwpsn  file "C:/Users/ZXC/Documents/mcu project/ti-project/clllc_nonpowerSUITE_F28004x/device/driver
    2555 0000054d 83A4          MOVL      XAR5,XAR4             ; [CPU_ALU] |948| 
    2556                      .dwpsn  file "C:/Users/ZXC/Documents/mcu project/ti-project/clllc_nonpowerSUITE_F28004x/device/driver
    2557 0000054e D020          MOVB      XAR0,#32              ; [CPU_ALU] |757| 
    2558                      .dwpsn  file "C:/Users/ZXC/Documents/mcu project/ti-project/clllc_nonpowerSUITE_F28004x/device/driver
    2559 0000054f D120          MOVB      XAR1,#32              ; [CPU_ALU] |800| 
    2560                      .dwpsn  file "C:/Users/ZXC/Documents/mcu project/ti-project/clllc_nonpowerSUITE_F28004x/device/driver
    2561 00000550 DD20          ADDB      XAR5,#32              ; [CPU_ALU] |948| 
    2562                      .dwpsn  file "C:/Users/ZXC/Documents/mcu project/ti-project/clllc_nonpowerSUITE_F28004x/device/driver
TMS320C2000 Assembler PC v22.6.0 Mon Sep  2 11:55:45 2024

Copyright (c) 1996-2018 Texas Instruments Incorporated
clllc_hal.asm                                                        PAGE   57

    2563 00000551 9294          MOV       AL,*+XAR4[AR0]        ; [CPU_ALU] |757| 
    2564 00000552 D020          MOVB      XAR0,#32              ; [CPU_ALU] |757| 
    2565 00000553 5003          ORB       AL,#0x03              ; [CPU_ALU] |757| 
    2566 00000554 9694          MOV       *+XAR4[AR0],AL        ; [CPU_ALU] |757| 
    2567                      .dwpsn  file "C:/Users/ZXC/Documents/mcu project/ti-project/clllc_nonpowerSUITE_F28004x/device/driver
    2568 00000555 D020          MOVB      XAR0,#32              ; [CPU_ALU] |843| 
    2569 00000556 CC94          AND       AL,*+XAR4[AR0],#0xfff7 ; [CPU_ALU] |843| 
         00000557 FFF7 
    2570 00000558 D020          MOVB      XAR0,#32              ; [CPU_ALU] |843| 
    2571 00000559 5010          ORB       AL,#0x10              ; [CPU_ALU] |843| 
    2572 0000055a 9694          MOV       *+XAR4[AR0],AL        ; [CPU_ALU] |843| 
    2573                      .dwpsn  file "C:/Users/ZXC/Documents/mcu project/ti-project/clllc_nonpowerSUITE_F28004x/device/driver
    2574 0000055b D020          MOVB      XAR0,#32              ; [CPU_ALU] |757| 
    2575 0000055c 9294          MOV       AL,*+XAR4[AR0]        ; [CPU_ALU] |757| 
    2576 0000055d D020          MOVB      XAR0,#32              ; [CPU_ALU] |757| 
    2577 0000055e 1AA9          OR        AL,#0x0300            ; [CPU_ALU] |757| 
         0000055f 0300 
    2578 00000560 9694          MOV       *+XAR4[AR0],AL        ; [CPU_ALU] |757| 
    2579                      .dwpsn  file "C:/Users/ZXC/Documents/mcu project/ti-project/clllc_nonpowerSUITE_F28004x/device/driver
    2580 00000561 D020          MOVB      XAR0,#32              ; [CPU_ALU] |843| 
    2581 00000562 CC94          AND       AL,*+XAR4[AR0],#0xf7ff ; [CPU_ALU] |843| 
         00000563 F7FF 
    2582 00000564 D020          MOVB      XAR0,#32              ; [CPU_ALU] |843| 
    2583 00000565 1AA9          OR        AL,#0x1000            ; [CPU_ALU] |843| 
         00000566 1000 
    2584 00000567 9694          MOV       *+XAR4[AR0],AL        ; [CPU_ALU] |843| 
    2585                      .dwpsn  file "C:/Users/ZXC/Documents/mcu project/ti-project/clllc_nonpowerSUITE_F28004x/device/driver
    2586 00000568 D020          MOVB      XAR0,#32              ; [CPU_ALU] |800| 
    2587 00000569 CC94          AND       AL,*+XAR4[AR0],#0xfffb ; [CPU_ALU] |800| 
         0000056a FFFB 
    2588 0000056b D020          MOVB      XAR0,#32              ; [CPU_ALU] |800| 
    2589 0000056c 969C          MOV       *+XAR4[AR1],AL        ; [CPU_FPU] |800| 
    2590 0000056d D120          MOVB      XAR1,#32              ; [CPU_FPU] |800| 
    2591 0000056e CC94          AND       AL,*+XAR4[AR0],#0xfbff ; [CPU_FPU] |800| 
         0000056f FBFF 
    2592 00000570 969C          MOV       *+XAR4[AR1],AL        ; [CPU_FPU] |800| 
    2593                      .dwpsn  file "C:/Users/ZXC/Documents/mcu project/ti-project/clllc_nonpowerSUITE_F28004x/device/driver
    2594 00000571 1AC5          OR        *+XAR5[0],#0x0040     ; [CPU_ALU] |948| 
         00000572 0040 
    2595                      .dwpsn  file "C:/Users/ZXC/Documents/mcu project/ti-project/clllc_nonpowerSUITE_F28004x/device/driver
    2596 00000573 83A4          MOVL      XAR5,XAR4             ; [CPU_ALU] |1058| 
    2597 00000574 DD2D          ADDB      XAR5,#45              ; [CPU_ALU] |1058| 
    2598                      .dwpsn  file "C:/Users/ZXC/Documents/mcu project/ti-project/clllc_nonpowerSUITE_F28004x/device/driver
    2599 00000575 DC2D          ADDB      XAR4,#45              ; [CPU_ALU] |1003| 
    2600                      .dwpsn  file "C:/Users/ZXC/Documents/mcu project/ti-project/clllc_nonpowerSUITE_F28004x/device/driver
    2601 00000576 1AC5          OR        *+XAR5[0],#0x0004     ; [CPU_FPU] |1058| 
         00000577 0004 
    2602                      .dwpsn  file "C:/Users/ZXC/Documents/mcu project/ti-project/clllc_nonpowerSUITE_F28004x/device/driver
    2603 00000578 1AC4          OR        *+XAR4[0],#0x0001     ; [CPU_ALU] |1003| 
         00000579 0001 
    2604                      .dwpsn  file "C:/Users/ZXC/Documents/mcu project/ti-project/clllc_nonpowerSUITE_F28004x/device/driver
    2605 0000057a 761A          EDIS      ; [CPU_ALU] |1004| 
    2606 0000057b 8BBE          MOVL      XAR1,*--SP            ; [CPU_ALU] 
    2607                      .dwcfi  cfa_offset, -2
    2608                      .dwcfi  restore_reg, 7
TMS320C2000 Assembler PC v22.6.0 Mon Sep  2 11:55:45 2024

Copyright (c) 1996-2018 Texas Instruments Incorporated
clllc_hal.asm                                                        PAGE   58

    2609              $C$DW$173       .dwtag  DW_TAG_TI_branch
    2610                      .dwattr $C$DW$173, DW_AT_low_pc(0x00)
    2611                      .dwattr $C$DW$173, DW_AT_TI_return
    2612              
    2613 0000057c 0006          LRETR     ; [CPU_ALU] 
    2614                      ; return occurs ; [] 
    2615                      .dwattr $C$DW$166, DW_AT_TI_end_file("../clllc_hal.c")
    2616                      .dwattr $C$DW$166, DW_AT_TI_end_line(0x848)
    2617                      .dwattr $C$DW$166, DW_AT_TI_end_column(0x01)
    2618                      .dwendentry
    2619                      .dwendtag $C$DW$166
    2620              
    2621 0000057d               .sect   ".text"
    2622                      .clink
    2623                      .global ||CLLLC_HAL_setupHRPWMinUpDownCountModeWithDeadBand||
    2624              
    2625              $C$DW$174       .dwtag  DW_TAG_subprogram
    2626                      .dwattr $C$DW$174, DW_AT_name("CLLLC_HAL_setupHRPWMinUpDownCountModeWithDeadBand")
    2627                      .dwattr $C$DW$174, DW_AT_low_pc(||CLLLC_HAL_setupHRPWMinUpDownCountModeWithDeadBand||)
    2628                      .dwattr $C$DW$174, DW_AT_high_pc(0x00)
    2629                      .dwattr $C$DW$174, DW_AT_linkage_name("CLLLC_HAL_setupHRPWMinUpDownCountModeWithDeadBand")
    2630                      .dwattr $C$DW$174, DW_AT_external
    2631                      .dwattr $C$DW$174, DW_AT_decl_file("../clllc_hal.c")
    2632                      .dwattr $C$DW$174, DW_AT_decl_line(0x75f)
    2633                      .dwattr $C$DW$174, DW_AT_decl_column(0x06)
    2634                      .dwattr $C$DW$174, DW_AT_TI_max_frame_size(-4)
    2635                      .dwpsn  file "../clllc_hal.c",line 1892,column 1,is_stmt,address ||CLLLC_HAL_setupHRPWMinUpDownCountM
    2636              
    2637                      .dwfde $C$DW$CIE, ||CLLLC_HAL_setupHRPWMinUpDownCountModeWithDeadBand||
    2638              $C$DW$175       .dwtag  DW_TAG_formal_parameter
    2639                      .dwattr $C$DW$175, DW_AT_name("base1")
    2640                      .dwattr $C$DW$175, DW_AT_type(*$C$DW$T$142)
    2641                      .dwattr $C$DW$175, DW_AT_location[DW_OP_reg0]
    2642              
    2643              $C$DW$176       .dwtag  DW_TAG_formal_parameter
    2644                      .dwattr $C$DW$176, DW_AT_name("pwmFreq_Hz")
    2645                      .dwattr $C$DW$176, DW_AT_type(*$C$DW$T$222)
    2646                      .dwattr $C$DW$176, DW_AT_location[DW_OP_regx 0x2b]
    2647              
    2648              $C$DW$177       .dwtag  DW_TAG_formal_parameter
    2649                      .dwattr $C$DW$177, DW_AT_name("pwmSysClkFreq_Hz")
    2650                      .dwattr $C$DW$177, DW_AT_type(*$C$DW$T$222)
    2651                      .dwattr $C$DW$177, DW_AT_location[DW_OP_regx 0x2f]
    2652              
    2653              $C$DW$178       .dwtag  DW_TAG_formal_parameter
    2654                      .dwattr $C$DW$178, DW_AT_name("red_ns")
    2655                      .dwattr $C$DW$178, DW_AT_type(*$C$DW$T$222)
    2656                      .dwattr $C$DW$178, DW_AT_location[DW_OP_regx 0x33]
    2657              
    2658              $C$DW$179       .dwtag  DW_TAG_formal_parameter
    2659                      .dwattr $C$DW$179, DW_AT_name("fed_ns")
    2660                      .dwattr $C$DW$179, DW_AT_type(*$C$DW$T$222)
    2661                      .dwattr $C$DW$179, DW_AT_location[DW_OP_regx 0x37]
    2662              
    2663              
TMS320C2000 Assembler PC v22.6.0 Mon Sep  2 11:55:45 2024

Copyright (c) 1996-2018 Texas Instruments Incorporated
clllc_hal.asm                                                        PAGE   59

    2664              ;***************************************************************
    2665              ;* FNAME: CLLLC_HAL_setupHRPWMinUpDownCountModeWithDeadBand FR SIZE:   2           *
    2666              ;*                                                             *
    2667              ;* FUNCTION ENVIRONMENT                                        *
    2668              ;*                                                             *
    2669              ;* FUNCTION PROPERTIES                                         *
    2670              ;*                            0 Parameter,  0 Auto,  2 SOE     *
    2671              ;***************************************************************
    2672              
    2673              ||CLLLC_HAL_setupHRPWMinUpDownCountModeWithDeadBand||:
    2674              ;* AL    assigned to $O$C1
    2675              ;* R0    assigned to $O$C2
    2676              ;* AR6   assigned to $O$C3
    2677              ;* AR7   assigned to $O$C4
    2678              ;* AR5   assigned to $O$C5
    2679              ;* AR6   assigned to $O$C6
    2680              ;* AR4   assigned to base1
    2681              $C$DW$180       .dwtag  DW_TAG_variable
    2682                      .dwattr $C$DW$180, DW_AT_name("base1")
    2683                      .dwattr $C$DW$180, DW_AT_type(*$C$DW$T$246)
    2684                      .dwattr $C$DW$180, DW_AT_location[DW_OP_reg12]
    2685              
    2686              ;* R0    assigned to pwmFreq_Hz
    2687              $C$DW$181       .dwtag  DW_TAG_variable
    2688                      .dwattr $C$DW$181, DW_AT_name("pwmFreq_Hz")
    2689                      .dwattr $C$DW$181, DW_AT_type(*$C$DW$T$248)
    2690                      .dwattr $C$DW$181, DW_AT_location[DW_OP_regx 0x2b]
    2691              
    2692              ;* R1    assigned to pwmSysClkFreq_Hz
    2693              $C$DW$182       .dwtag  DW_TAG_variable
    2694                      .dwattr $C$DW$182, DW_AT_name("pwmSysClkFreq_Hz")
    2695                      .dwattr $C$DW$182, DW_AT_type(*$C$DW$T$248)
    2696                      .dwattr $C$DW$182, DW_AT_location[DW_OP_regx 0x2f]
    2697              
    2698              ;* R2    assigned to red_ns
    2699              $C$DW$183       .dwtag  DW_TAG_variable
    2700                      .dwattr $C$DW$183, DW_AT_name("red_ns")
    2701                      .dwattr $C$DW$183, DW_AT_type(*$C$DW$T$248)
    2702                      .dwattr $C$DW$183, DW_AT_location[DW_OP_regx 0x33]
    2703              
    2704                      .dwcfi  cfa_offset, -2
    2705                      .dwcfi  save_reg_to_mem, 26, 0
    2706                      .dwpsn  file "../clllc_hal.c",line 1915,column 5,is_stmt,isa 0
    2707 0000057d E851          MPYF32    R3H,R1H,#18304        ; [CPU_FPU] |1915| 
         0000057e E00B 
    2708 0000057f B2BD          MOVL      *SP++,XAR1            ; [CPU_ALU] 
    2709                      .dwcfi  save_reg_to_mem, 7, 2
    2710                      .dwcfi  cfa_offset, -4
    2711                      .dwpsn  file "../clllc_hal.c",line 1892,column 1,is_stmt,isa 0
    2712 00000580 8AA9          MOVL      XAR4,ACC              ; [CPU_ALU] |1892| 
    2713                      .dwpsn  file "../clllc_hal.c",line 1915,column 5,is_stmt,isa 0
    2714 00000581 E274          DIVF32    R0H,R3H,R0H           ; [CPU_FPU] |1915| 
         00000582 0018 
    2715                      .dwpsn  file "../clllc_hal.c",line 1892,column 1,is_stmt,isa 0
    2716 00000583 83A9          MOVL      XAR5,ACC              ; [CPU_ALU] |1892| 
TMS320C2000 Assembler PC v22.6.0 Mon Sep  2 11:55:45 2024

Copyright (c) 1996-2018 Texas Instruments Incorporated
clllc_hal.asm                                                        PAGE   60

    2717 00000584 2901          CLRC      SXM                   ; [CPU_ALU] 
    2718                      .dwpsn  file "../clllc_hal.c",line 1915,column 5,is_stmt,isa 0
    2719 00000585 D162          MOVB      XAR1,#98              ; [CPU_ALU] |1915| 
    2720                      .dwpsn  file "C:/Users/ZXC/Documents/mcu project/ti-project/clllc_nonpowerSUITE_F28004x/device/driver
    2721 00000586 D060          MOVB      XAR0,#96              ; [CPU_ALU] |2151| 
    2722                      .dwpsn  file "../clllc_hal.c",line 1915,column 5,is_stmt,isa 0
    2723 00000587 E68A          F32TOUI32 R0H,R0H               ; [CPU_FPU] |1915| 
         00000588 0000 
    2724                      .dwpsn  file "C:/Users/ZXC/Documents/mcu project/ti-project/clllc_nonpowerSUITE_F28004x/device/driver
    2725 00000589 18C4          AND       *+XAR4[0],#0xfff7     ; [CPU_ALU] |1762| 
         0000058a FFF7 
    2726                      .dwpsn  file "C:/Users/ZXC/Documents/mcu project/ti-project/clllc_nonpowerSUITE_F28004x/device/driver
    2727 0000058b DD08          ADDB      XAR5,#8               ; [CPU_ALU] |2340| 
    2728                      .dwpsn  file "../clllc_hal.c",line 1915,column 5,is_stmt,isa 0
    2729 0000058c BFA9          MOV32     ACC,R0H               ; [CPU_FPU] |1915| 
         0000058d 0F12 
    2730 0000058e FF40          SFR       ACC,1                 ; [CPU_ALU] |1915| 
    2731 0000058f 18A9          AND       AL,#65280             ; [CPU_ALU] |1915| 
         00000590 FF00 
    2732 00000591 1EA6          MOVL      XAR6,ACC              ; [CPU_ALU] |1915| 
    2733 00000592 1E9C          MOVL      *+XAR4[AR1],ACC       ; [CPU_ALU] |1915| 
    2734                      .dwpsn  file "C:/Users/ZXC/Documents/mcu project/ti-project/clllc_nonpowerSUITE_F28004x/device/driver
    2735 00000593 2BE4          MOV       *+XAR4[4],#0          ; [CPU_ALU] |1552| 
    2736                      .dwpsn  file "C:/Users/ZXC/Documents/mcu project/ti-project/clllc_nonpowerSUITE_F28004x/device/driver
    2737 00000594 A394          MOVL      P,*+XAR4[AR0]         ; [CPU_FPU] |2151| 
    2738 00000595 D060          MOVB      XAR0,#96              ; [CPU_FPU] |2151| 
    2739 00000596 18AA          AND       PH,#0                 ; [CPU_ALU] |2151| 
         00000597 0000 
    2740 00000598 A994          MOVL      *+XAR4[AR0],P         ; [CPU_FPU] |2151| 
    2741                      .dwpsn  file "../clllc_hal.c",line 1926,column 5,is_stmt,isa 0
    2742 00000599 D06A          MOVB      XAR0,#106             ; [CPU_FPU] |1926| 
    2743                      .dwpsn  file "C:/Users/ZXC/Documents/mcu project/ti-project/clllc_nonpowerSUITE_F28004x/device/driver
    2744 0000059a CCC4          AND       AL,*+XAR4[0],#0xfffe  ; [CPU_FPU] |1852| 
         0000059b FFFE 
    2745 0000059c 5002          ORB       AL,#0x02              ; [CPU_ALU] |1852| 
    2746 0000059d 96C4          MOV       *+XAR4[0],AL          ; [CPU_FPU] |1852| 
    2747                      .dwpsn  file "../clllc_hal.c",line 1926,column 5,is_stmt,isa 0
    2748 0000059e 06A6          MOVL      ACC,XAR6              ; [CPU_FPU] |1926| 
    2749 0000059f FF40          SFR       ACC,1                 ; [CPU_ALU] |1926| 
    2750                      .dwpsn  file "C:/Users/ZXC/Documents/mcu project/ti-project/clllc_nonpowerSUITE_F28004x/device/driver
    2751 000005a0 C4A4          MOVL      XAR6,XAR4             ; [CPU_FPU] |2397| 
    2752                      .dwpsn  file "C:/Users/ZXC/Documents/mcu project/ti-project/clllc_nonpowerSUITE_F28004x/device/driver
    2753 000005a1 18C4          AND       *+XAR4[0],#0xe07f     ; [CPU_FPU] |1630| 
         000005a2 E07F 
    2754                      .dwpsn  file "../clllc_hal.c",line 1926,column 5,is_stmt,isa 0
    2755 000005a3 1EA7          MOVL      XAR7,ACC              ; [CPU_FPU] |1926| 
    2756 000005a4 1E94          MOVL      *+XAR4[AR0],ACC       ; [CPU_FPU] |1926| 
    2757                      .dwpsn  file "C:/Users/ZXC/Documents/mcu project/ti-project/clllc_nonpowerSUITE_F28004x/device/driver
    2758 000005a5 DE09          ADDB      XAR6,#9               ; [CPU_ALU] |2397| 
    2759                      .dwpsn  file "../clllc_hal.c",line 1940,column 5,is_stmt,isa 0
    2760 000005a6 D06C          MOVB      XAR0,#108             ; [CPU_FPU] |1940| 
    2761                      .dwpsn  file "C:/Users/ZXC/Documents/mcu project/ti-project/clllc_nonpowerSUITE_F28004x/device/driver
    2762 000005a7 CCC5          AND       AL,*+XAR5[0],#0xf3ee  ; [CPU_ALU] |2340| 
         000005a8 F3EE 
    2763 000005a9 5002          ORB       AL,#0x02              ; [CPU_ALU] |2340| 
TMS320C2000 Assembler PC v22.6.0 Mon Sep  2 11:55:45 2024

Copyright (c) 1996-2018 Texas Instruments Incorporated
clllc_hal.asm                                                        PAGE   61

    2764 000005aa 96C5          MOV       *+XAR5[0],AL          ; [CPU_FPU] |2340| 
    2765 000005ab CCC5          AND       AL,*+XAR5[0],#0xcfbb  ; [CPU_FPU] |2340| 
         000005ac CFBB 
    2766 000005ad 5008          ORB       AL,#0x08              ; [CPU_ALU] |2340| 
    2767 000005ae 96C5          MOV       *+XAR5[0],AL          ; [CPU_FPU] |2340| 
    2768                      .dwpsn  file "../clllc_hal.c",line 1940,column 5,is_stmt,isa 0
    2769 000005af C394          MOVL      *+XAR4[AR0],XAR7      ; [CPU_FPU] |1940| 
    2770                      .dwpsn  file "C:/Users/ZXC/Documents/mcu project/ti-project/clllc_nonpowerSUITE_F28004x/device/driver
    2771 000005b0 1AC6          OR        *+XAR6[0],#0x0010     ; [CPU_ALU] |2397| 
         000005b1 0010 
    2772                      .dwpsn  file "../clllc_hal.c",line 1944,column 5,is_stmt,isa 0
    2773 000005b2 7622          EALLOW    ; [CPU_ALU] |1944| 
    2774                      .dwpsn  file "../clllc_hal.c",line 1948,column 5,is_stmt,isa 0
    2775 000005b3 D040          MOVB      XAR0,#64              ; [CPU_ALU] |1948| 
    2776                      .dwpsn  file "../clllc_hal.c",line 1949,column 5,is_stmt,isa 0
    2777 000005b4 D142          MOVB      XAR1,#66              ; [CPU_ALU] |1949| 
    2778                      .dwpsn  file "../clllc_hal.c",line 1948,column 5,is_stmt,isa 0
    2779 000005b5 2B94          MOV       *+XAR4[AR0],#0        ; [CPU_ALU] |1948| 
    2780                      .dwpsn  file "../clllc_hal.c",line 1951,column 5,is_stmt,isa 0
    2781 000005b6 D0C4          MOVB      XAR0,#196             ; [CPU_ALU] |1951| 
    2782                      .dwpsn  file "../clllc_hal.c",line 1949,column 5,is_stmt,isa 0
    2783 000005b7 2B9C          MOV       *+XAR4[AR1],#0        ; [CPU_ALU] |1949| 
    2784                      .dwpsn  file "../clllc_hal.c",line 1951,column 5,is_stmt,isa 0
    2785 000005b8 2B94          MOV       *+XAR4[AR0],#0        ; [CPU_ALU] |1951| 
    2786                      .dwpsn  file "../clllc_hal.c",line 1952,column 5,is_stmt,isa 0
    2787 000005b9 761A          EDIS      ; [CPU_ALU] |1952| 
    2788                      .dwpsn  file "../clllc_hal.c",line 1986,column 5,is_stmt,isa 0
    2789 000005ba E851          MPYF32    R2H,R2H,#18304        ; [CPU_FPU] |1986| 
         000005bb E012 
    2790                      .dwpsn  file "C:/Users/ZXC/Documents/mcu project/ti-project/clllc_nonpowerSUITE_F28004x/device/driver
    2791 000005bc D040          MOVB      XAR0,#64              ; [CPU_ALU] |2806| 
    2792                      .dwpsn  file "../clllc_hal.c",line 1986,column 5,is_stmt,isa 0
    2793 000005bd E801          MOVIZ     R0H,#12425            ; [CPU_FPU] |1986| 
         000005be 8448 
    2794                      .dwpsn  file "C:/Users/ZXC/Documents/mcu project/ti-project/clllc_nonpowerSUITE_F28004x/device/driver
    2795 000005bf D140          MOVB      XAR1,#64              ; [CPU_ALU] |2806| 
    2796                      .dwpsn  file "../clllc_hal.c",line 1986,column 5,is_stmt,isa 0
    2797 000005c0 E80B          MOVXI     R0H,#28767            ; [CPU_FPU] |1986| 
         000005c1 82F8 
    2798 000005c2 E700          MPYF32    R0H,R0H,R2H           ; [CPU_FPU] |1986| 
         000005c3 0080 
    2799                      .dwpsn  file "C:/Users/ZXC/Documents/mcu project/ti-project/clllc_nonpowerSUITE_F28004x/device/driver
    2800 000005c4 83A4          MOVL      XAR5,XAR4             ; [CPU_ALU] |3407| 
    2801                      .dwpsn  file "../clllc_hal.c",line 1986,column 5,is_stmt,isa 0
    2802 000005c5 E700          MPYF32    R0H,R1H,R0H           ; [CPU_FPU] |1986| 
         000005c6 0008 
    2803                      .dwpsn  file "C:/Users/ZXC/Documents/mcu project/ti-project/clllc_nonpowerSUITE_F28004x/device/driver
    2804 000005c7 CC94          AND       AL,*+XAR4[AR0],#0xffef ; [CPU_ALU] |2806| 
         000005c8 FFEF 
    2805                      .dwpsn  file "../clllc_hal.c",line 1986,column 5,is_stmt,isa 0
    2806 000005c9 E710          ADDF32    R0H,R0H,R0H           ; [CPU_FPU] |1986| 
         000005ca 0000 
    2807                      .dwpsn  file "C:/Users/ZXC/Documents/mcu project/ti-project/clllc_nonpowerSUITE_F28004x/device/driver
    2808 000005cb 5020          ORB       AL,#0x20              ; [CPU_ALU] |2806| 
    2809 000005cc D040          MOVB      XAR0,#64              ; [CPU_ALU] |2806| 
TMS320C2000 Assembler PC v22.6.0 Mon Sep  2 11:55:45 2024

Copyright (c) 1996-2018 Texas Instruments Incorporated
clllc_hal.asm                                                        PAGE   62

    2810                      .dwpsn  file "C:/Users/ZXC/Documents/mcu project/ti-project/clllc_nonpowerSUITE_F28004x/device/driver
    2811 000005cd DD0C          ADDB      XAR5,#12              ; [CPU_ALU] |3407| 
    2812                      .dwpsn  file "C:/Users/ZXC/Documents/mcu project/ti-project/clllc_nonpowerSUITE_F28004x/device/driver
    2813 000005ce 969C          MOV       *+XAR4[AR1],AL        ; [CPU_FPU] |2806| 
    2814                      .dwpsn  file "../clllc_hal.c",line 1986,column 5,is_stmt,isa 0
    2815 000005cf E68A          F32TOUI32 R0H,R0H               ; [CPU_FPU] |1986| 
         000005d0 0000 
    2816                      .dwpsn  file "C:/Users/ZXC/Documents/mcu project/ti-project/clllc_nonpowerSUITE_F28004x/device/driver
    2817 000005d1 D140          MOVB      XAR1,#64              ; [CPU_FPU] |2806| 
    2818 000005d2 CC94          AND       AL,*+XAR4[AR0],#0xff7f ; [CPU_FPU] |2806| 
         000005d3 FF7F 
    2819 000005d4 5040          ORB       AL,#0x40              ; [CPU_ALU] |2806| 
    2820                      .dwpsn  file "C:/Users/ZXC/Documents/mcu project/ti-project/clllc_nonpowerSUITE_F28004x/device/driver
    2821 000005d5 D00C          MOVB      XAR0,#12              ; [CPU_FPU] |3511| 
    2822                      .dwpsn  file "C:/Users/ZXC/Documents/mcu project/ti-project/clllc_nonpowerSUITE_F28004x/device/driver
    2823 000005d6 969C          MOV       *+XAR4[AR1],AL        ; [CPU_FPU] |2806| 
    2824                      .dwpsn  file "C:/Users/ZXC/Documents/mcu project/ti-project/clllc_nonpowerSUITE_F28004x/device/driver
    2825 000005d7 D10C          MOVB      XAR1,#12              ; [CPU_FPU] |3511| 
    2826 000005d8 CC94          AND       AL,*+XAR4[AR0],#0xff3f ; [CPU_FPU] |3511| 
         000005d9 FF3F 
    2827 000005da 1AA9          OR        AL,#0x0400            ; [CPU_ALU] |3511| 
         000005db 0400 
    2828                      .dwpsn  file "C:/Users/ZXC/Documents/mcu project/ti-project/clllc_nonpowerSUITE_F28004x/device/driver
    2829 000005dc D00C          MOVB      XAR0,#12              ; [CPU_FPU] |3575| 
    2830                      .dwpsn  file "C:/Users/ZXC/Documents/mcu project/ti-project/clllc_nonpowerSUITE_F28004x/device/driver
    2831 000005dd 969C          MOV       *+XAR4[AR1],AL        ; [CPU_FPU] |3511| 
    2832                      .dwpsn  file "C:/Users/ZXC/Documents/mcu project/ti-project/clllc_nonpowerSUITE_F28004x/device/driver
    2833 000005de D10C          MOVB      XAR1,#12              ; [CPU_FPU] |3575| 
    2834 000005df CC94          AND       AL,*+XAR4[AR0],#0xfcff ; [CPU_FPU] |3575| 
         000005e0 FCFF 
    2835 000005e1 1AA9          OR        AL,#0x0800            ; [CPU_ALU] |3575| 
         000005e2 0800 
    2836                      .dwpsn  file "C:/Users/ZXC/Documents/mcu project/ti-project/clllc_nonpowerSUITE_F28004x/device/driver
    2837 000005e3 D00C          MOVB      XAR0,#12              ; [CPU_FPU] |3639| 
    2838                      .dwpsn  file "C:/Users/ZXC/Documents/mcu project/ti-project/clllc_nonpowerSUITE_F28004x/device/driver
    2839 000005e4 969C          MOV       *+XAR4[AR1],AL        ; [CPU_FPU] |3575| 
    2840                      .dwpsn  file "C:/Users/ZXC/Documents/mcu project/ti-project/clllc_nonpowerSUITE_F28004x/device/driver
    2841 000005e5 D10C          MOVB      XAR1,#12              ; [CPU_FPU] |3639| 
    2842 000005e6 9294          MOV       AL,*+XAR4[AR0]        ; [CPU_FPU] |3639| 
    2843 000005e7 1AA9          OR        AL,#0x8000            ; [CPU_ALU] |3639| 
         000005e8 8000 
    2844                      .dwpsn  file "C:/Users/ZXC/Documents/mcu project/ti-project/clllc_nonpowerSUITE_F28004x/device/driver
    2845 000005e9 D00C          MOVB      XAR0,#12              ; [CPU_FPU] |3275| 
    2846                      .dwpsn  file "C:/Users/ZXC/Documents/mcu project/ti-project/clllc_nonpowerSUITE_F28004x/device/driver
    2847 000005ea 969C          MOV       *+XAR4[AR1],AL        ; [CPU_FPU] |3639| 
    2848                      .dwpsn  file "C:/Users/ZXC/Documents/mcu project/ti-project/clllc_nonpowerSUITE_F28004x/device/driver
    2849 000005eb D10C          MOVB      XAR1,#12              ; [CPU_FPU] |3275| 
    2850 000005ec 9294          MOV       AL,*+XAR4[AR0]        ; [CPU_FPU] |3275| 
    2851 000005ed D00C          MOVB      XAR0,#12              ; [CPU_FPU] |3275| 
    2852 000005ee 5002          ORB       AL,#0x02              ; [CPU_ALU] |3275| 
    2853 000005ef 9694          MOV       *+XAR4[AR0],AL        ; [CPU_FPU] |3275| 
    2854 000005f0 D00C          MOVB      XAR0,#12              ; [CPU_FPU] |3275| 
    2855 000005f1 9294          MOV       AL,*+XAR4[AR0]        ; [CPU_FPU] |3275| 
    2856 000005f2 5001          ORB       AL,#0x01              ; [CPU_ALU] |3275| 
    2857                      .dwpsn  file "C:/Users/ZXC/Documents/mcu project/ti-project/clllc_nonpowerSUITE_F28004x/device/driver
TMS320C2000 Assembler PC v22.6.0 Mon Sep  2 11:55:45 2024

Copyright (c) 1996-2018 Texas Instruments Incorporated
clllc_hal.asm                                                        PAGE   63

    2858 000005f3 D00C          MOVB      XAR0,#12              ; [CPU_FPU] |3359| 
    2859                      .dwpsn  file "C:/Users/ZXC/Documents/mcu project/ti-project/clllc_nonpowerSUITE_F28004x/device/driver
    2860 000005f4 969C          MOV       *+XAR4[AR1],AL        ; [CPU_FPU] |3275| 
    2861                      .dwpsn  file "C:/Users/ZXC/Documents/mcu project/ti-project/clllc_nonpowerSUITE_F28004x/device/driver
    2862 000005f5 D10C          MOVB      XAR1,#12              ; [CPU_FPU] |3412| 
    2863                      .dwpsn  file "C:/Users/ZXC/Documents/mcu project/ti-project/clllc_nonpowerSUITE_F28004x/device/driver
    2864 000005f6 CC94          AND       AL,*+XAR4[AR0],#0xffef ; [CPU_FPU] |3359| 
         000005f7 FFEF 
    2865 000005f8 D00C          MOVB      XAR0,#12              ; [CPU_FPU] |3359| 
    2866 000005f9 9694          MOV       *+XAR4[AR0],AL        ; [CPU_FPU] |3359| 
    2867                      .dwpsn  file "C:/Users/ZXC/Documents/mcu project/ti-project/clllc_nonpowerSUITE_F28004x/device/driver
    2868 000005fa D00C          MOVB      XAR0,#12              ; [CPU_FPU] |3412| 
    2869                      .dwpsn  file "C:/Users/ZXC/Documents/mcu project/ti-project/clllc_nonpowerSUITE_F28004x/device/driver
    2870 000005fb 18C5          AND       *+XAR5[0],#0xbfff     ; [CPU_ALU] |3407| 
         000005fc BFFF 
    2871                      .dwpsn  file "C:/Users/ZXC/Documents/mcu project/ti-project/clllc_nonpowerSUITE_F28004x/device/driver
    2872 000005fd CC9C          AND       AL,*+XAR4[AR1],#0xffdf ; [CPU_ALU] |3412| 
         000005fe FFDF 
    2873                      .dwpsn  file "C:/Users/ZXC/Documents/mcu project/ti-project/clllc_nonpowerSUITE_F28004x/device/driver
    2874 000005ff D10C          MOVB      XAR1,#12              ; [CPU_ALU] |3324| 
    2875                      .dwpsn  file "C:/Users/ZXC/Documents/mcu project/ti-project/clllc_nonpowerSUITE_F28004x/device/driver
    2876 00000600 9694          MOV       *+XAR4[AR0],AL        ; [CPU_ALU] |3412| 
    2877                      .dwpsn  file "C:/Users/ZXC/Documents/mcu project/ti-project/clllc_nonpowerSUITE_F28004x/device/driver
    2878 00000601 D00C          MOVB      XAR0,#12              ; [CPU_ALU] |3324| 
    2879 00000602 9294          MOV       AL,*+XAR4[AR0]        ; [CPU_ALU] |3324| 
